 sdk_demo_v2

 Timestamp is 605596f9 (Fri Mar 19 23:32:25 2021)

 Preferred load address is 00400000

 Start         Length     Name                   Class
 0001:00000000 000000c0H .text$di                CODE
 0001:000000c0 000b1e60H .text$mn                CODE
 0001:000b1f20 000040d0H .text$x                 CODE
 0001:000b5ff0 00000079H .text$yd                CODE
 0002:00000000 00000660H .idata$5                DATA
 0002:00000660 00000004H .00cfg                  DATA
 0002:00000664 00000004H .CRT$XCA                DATA
 0002:00000668 00000004H .CRT$XCAA               DATA
 0002:0000066c 00000004H .CRT$XCL                DATA
 0002:00000670 00000014H .CRT$XCU                DATA
 0002:00000684 00000004H .CRT$XCZ                DATA
 0002:00000688 00000004H .CRT$XIA                DATA
 0002:0000068c 00000004H .CRT$XIAA               DATA
 0002:00000690 00000004H .CRT$XIAC               DATA
 0002:00000694 00000004H .CRT$XIC                DATA
 0002:00000698 00000004H .CRT$XIZ                DATA
 0002:0000069c 00000004H .CRT$XLA                DATA
 0002:000006a0 00000004H .CRT$XLZ                DATA
 0002:000006a4 00000004H .CRT$XPA                DATA
 0002:000006a8 00000004H .CRT$XPZ                DATA
 0002:000006ac 00000004H .CRT$XTA                DATA
 0002:000006b0 00000010H .CRT$XTZ                DATA
 0002:000006b4 00000000H .gfids$y                DATA
 0002:000006c0 00020e80H .rdata                  DATA
 0002:00021540 00000000H .rdata$CastGuardVftablesA DATA
 0002:00021540 00000000H .rdata$CastGuardVftablesC DATA
 0002:00021540 00000018H .rdata$T                DATA
 0002:00021558 000051b4H .rdata$r                DATA
 0002:0002670c 0000034cH .rdata$sxdata           DATA
 0002:00026a58 000003f8H .rdata$zzzdbg           DATA
 0002:00026e50 00000004H .rtc$IAA                DATA
 0002:00026e54 00000004H .rtc$IZZ                DATA
 0002:00026e58 00000004H .rtc$TAA                DATA
 0002:00026e5c 00000004H .rtc$TZZ                DATA
 0002:00026e60 00000004H .tls                    DATA
 0002:00026e64 00000004H .tls$                   DATA
 0002:00026e68 00000008H .tls$ZZZ                DATA
 0002:00026e70 00003120H .xdata$x                DATA
 0002:00029f90 00000000H ATL$__a                 DATA
 0002:00029f90 00000000H ATL$__z                 DATA
 0002:00029f90 00000000H .edata                  DATA
 0002:00029f90 000001ccH .idata$2                DATA
 0002:0002a15c 00000014H .idata$3                DATA
 0002:0002a170 00000660H .idata$4                DATA
 0002:0002a7d0 000022a0H .idata$6                DATA
 0003:00000000 00000348H .data                   DATA
 0003:00000348 00000a40H .data$r                 DATA
 0003:00000d88 00001970H .data$rs                DATA
 0003:000026f8 00000950H .bss                    DATA
 0004:00000000 00003680H .rsrc$01                DATA
 0004:00003680 0006bd60H .rsrc$02                DATA

  Address         Publics by Value              Rva+Base       Lib:Object

 0000:00000000       ___guard_eh_cont_table     00000000     <absolute>
 0000:00000000       ___x64_code_ranges_to_entry_points 00000000     <absolute>
 0000:00000000       ___guard_fids_count        00000000     <absolute>
 0000:00000000       ___x64_code_ranges_to_entry_points_count 00000000     <absolute>
 0000:00000000       ___hybrid_code_map         00000000     <absolute>
 0000:00000000       ___hybrid_code_map_count   00000000     <absolute>
 0000:00000000       ___arm64x_extra_rfe_table_size 00000000     <absolute>
 0000:00000000       ___arm64x_native_entrypoint 00000000     <absolute>
 0000:00000000       ___guard_iat_table         00000000     <absolute>
 0000:00000000       ___guard_iat_count         00000000     <absolute>
 0000:00000000       ___guard_longjmp_count     00000000     <absolute>
 0000:00000000       ___guard_longjmp_table     00000000     <absolute>
 0000:00000000       ___hybrid_auxiliary_iat    00000000     <absolute>
 0000:00000000       ___dynamic_value_reloc_table 00000000     <absolute>
 0000:00000000       ___guard_check_icall_a64n_fptr 00000000     <absolute>
 0000:00000000       ___arm64x_redirection_metadata_count 00000000     <absolute>
 0000:00000000       ___AbsoluteZero            00000000     <absolute>
 0000:00000000       ___volatile_metadata       00000000     <absolute>
 0000:00000000       ___arm64x_extra_rfe_table  00000000     <absolute>
 0000:00000000       ___arm64x_redirection_metadata 00000000     <absolute>
 0000:00000000       ___enclave_config          00000000     <absolute>
 0000:00000000       ___guard_fids_table        00000000     <absolute>
 0000:00000000       ___guard_eh_cont_count     00000000     <absolute>
 0000:00000000       ___hybrid_auxiliary_iat_copy 00000000     <absolute>
 0000:0000002c       __tls_array                0000002c     <absolute>
 0000:000000d3       ___safe_se_handler_count   000000d3     <absolute>
 0000:00000100       ___guard_flags             00000100     <absolute>
 0000:00000000       ___ImageBase               00400000     <linker-defined>
 0001:000000c0       ??$?0$$V@?$_Compressed_pair@V?$allocator@_W@std@@V?$_String_val@U?$_Simple_types@_W@std@@@2@$00@std@@QAE@U_Zero_then_variadic_args_t@1@@Z 004010c0 f i AnnotateBarWindow.obj
 0001:000000e0       ??$?8_WU?$char_traits@_W@std@@V?$allocator@_W@1@@std@@YA_NABV?$basic_string@_WU?$char_traits@_W@std@@V?$allocator@_W@2@@0@QB_W@Z 004010e0 f i AnnotateBarWindow.obj
 0001:00000100       ??$?9_WU?$char_traits@_W@std@@V?$allocator@_W@1@@std@@YA_NABV?$basic_string@_WU?$char_traits@_W@std@@V?$allocator@_W@2@@0@QB_W@Z 00401100 f i AnnotateBarWindow.obj
 0001:00000140       ??$_Allocate@$07U_Default_allocate_traits@std@@$0A@@std@@YAPAXI@Z 00401140 f i AnnotateBarWindow.obj
 0001:00000180       ??$_Allocate_manually_vector_aligned@U_Default_allocate_traits@std@@@std@@YAPAXI@Z 00401180 f i AnnotateBarWindow.obj
 0001:000001f0       ??$_Construct_in_place@PAU?$_Tree_node@PAVIMeetingVideoCtrlEvent@ZOOMSDK@@PAX@std@@AAPAU12@@std@@YAXAAPAU?$_Tree_node@PAVIMeetingVideoCtrlEvent@ZOOMSDK@@PAX@0@0@Z 004011f0 f i sdk_util.obj
 0001:000001f0       ??$_Construct_in_place@PAU?$_Tree_node@U?$pair@$$CBHW4bkItemType@@@std@@PAX@std@@ABQAU12@@std@@YAXAAPAU?$_Tree_node@U?$pair@$$CBHW4bkItemType@@@std@@PAX@0@ABQAU10@@Z 004011f0 f i settings_ui.obj
 0001:000001f0       ??$_Construct_in_place@PAU?$_List_node@HPAX@std@@ABQAU12@@std@@YAXAAPAU?$_List_node@HPAX@0@ABQAU10@@Z 004011f0 f i participant_ui.obj
 0001:000001f0       ??$_Construct_in_place@PAU?$_Tree_node@PAVIClosedCaptionControllerEvent@ZOOMSDK@@PAX@std@@ABQAU12@@std@@YAXAAPAU?$_Tree_node@PAVIClosedCaptionControllerEvent@ZOOMSDK@@PAX@0@ABQAU10@@Z 004011f0 f i sdk_util.obj
 0001:000001f0       ??$_Construct_in_place@PAU?$_Tree_node@PAVIMeetingParticipantsCtrlEvent@ZOOMSDK@@PAX@std@@ABQAU12@@std@@YAXAAPAU?$_Tree_node@PAVIMeetingParticipantsCtrlEvent@ZOOMSDK@@PAX@0@ABQAU10@@Z 004011f0 f i sdk_util.obj
 0001:000001f0       ??$_Construct_in_place@PAU?$_Tree_node@PAVIMeetingServiceEvent@ZOOMSDK@@PAX@std@@AAPAU12@@std@@YAXAAPAU?$_Tree_node@PAVIMeetingServiceEvent@ZOOMSDK@@PAX@0@0@Z 004011f0 f i sdk_util.obj
 0001:000001f0       ??$_Construct_in_place@PAU?$_Tree_node@PAVIClosedCaptionControllerEvent@ZOOMSDK@@PAX@std@@AAPAU12@@std@@YAXAAPAU?$_Tree_node@PAVIClosedCaptionControllerEvent@ZOOMSDK@@PAX@0@0@Z 004011f0 f i sdk_util.obj
 0001:000001f0       ??$_Construct_in_place@PAU?$_Tree_node@PAVISDKInMeetingServiceMgrEvent@@PAX@std@@ABQAU12@@std@@YAXAAPAU?$_Tree_node@PAVISDKInMeetingServiceMgrEvent@@PAX@0@ABQAU10@@Z 004011f0 f i sdk_util.obj
 0001:000001f0       ??$_Construct_in_place@PAU?$_Tree_node@PAVIAuthServiceEvent@ZOOMSDK@@PAX@std@@AAPAU12@@std@@YAXAAPAU?$_Tree_node@PAVIAuthServiceEvent@ZOOMSDK@@PAX@0@0@Z 004011f0 f i sdk_util.obj
 0001:000001f0       ??$_Construct_in_place@PAU?$_Tree_node@U?$pair@$$CBIPAVIUserInfo@ZOOMSDK@@@std@@PAX@std@@AAPAU12@@std@@YAXAAPAU?$_Tree_node@U?$pair@$$CBIPAVIUserInfo@ZOOMSDK@@@std@@PAX@0@0@Z 004011f0 f i user_manager.obj
 0001:000001f0       ??$_Construct_in_place@PAU?$_Tree_node@PAVIPreMeetingServiceEvent@ZOOMSDK@@PAX@std@@AAPAU12@@std@@YAXAAPAU?$_Tree_node@PAVIPreMeetingServiceEvent@ZOOMSDK@@PAX@0@0@Z 004011f0 f i sdk_util.obj
 0001:000001f0       ??$_Construct_in_place@PAU?$_Tree_node@U?$pair@$$CBHW4bkItemType@@@std@@PAX@std@@AAPAU12@@std@@YAXAAPAU?$_Tree_node@U?$pair@$$CBHW4bkItemType@@@std@@PAX@0@0@Z 004011f0 f i settings_ui.obj
 0001:000001f0       ??$_Construct_in_place@PAU?$_Tree_node@PAVIMeetingParticipantsCtrlEvent@ZOOMSDK@@PAX@std@@AAPAU12@@std@@YAXAAPAU?$_Tree_node@PAVIMeetingParticipantsCtrlEvent@ZOOMSDK@@PAX@0@0@Z 004011f0 f i sdk_util.obj
 0001:000001f0       ??$_Construct_in_place@PAU?$_Tree_node@PAVIPreMeetingServiceEvent@ZOOMSDK@@PAX@std@@ABQAU12@@std@@YAXAAPAU?$_Tree_node@PAVIPreMeetingServiceEvent@ZOOMSDK@@PAX@0@ABQAU10@@Z 004011f0 f i sdk_util.obj
 0001:000001f0       ??$_Construct_in_place@PAU?$_Tree_node@PAVIMeetingChatCtrlEvent@ZOOMSDK@@PAX@std@@AAPAU12@@std@@YAXAAPAU?$_Tree_node@PAVIMeetingChatCtrlEvent@ZOOMSDK@@PAX@0@0@Z 004011f0 f i sdk_util.obj
 0001:000001f0       ??$_Construct_in_place@PAU?$_List_node@HPAX@std@@AAPAU12@@std@@YAXAAPAU?$_List_node@HPAX@0@0@Z 004011f0 f i participant_ui.obj
 0001:000001f0       ??$_Construct_in_place@PAU?$_Tree_node@U?$pair@$$CBIPAVIUserInfo@ZOOMSDK@@@std@@PAX@std@@ABQAU12@@std@@YAXAAPAU?$_Tree_node@U?$pair@$$CBIPAVIUserInfo@ZOOMSDK@@@std@@PAX@0@ABQAU10@@Z 004011f0 f i user_manager.obj
 0001:000001f0       ??$_Construct_in_place@PAU?$_Tree_node@PAVISDKInMeetingServiceMgrEvent@@PAX@std@@AAPAU12@@std@@YAXAAPAU?$_Tree_node@PAVISDKInMeetingServiceMgrEvent@@PAX@0@0@Z 004011f0 f i sdk_util.obj
 0001:000001f0       ??$_Construct_in_place@PA_WABQA_W@std@@YAXAAPA_WABQA_W@Z 004011f0 f i AnnotateBarWindow.obj
 0001:000001f0       ??$_Construct_in_place@PAU?$_Tree_node@PAVIAuthServiceEvent@ZOOMSDK@@PAX@std@@ABQAU12@@std@@YAXAAPAU?$_Tree_node@PAVIAuthServiceEvent@ZOOMSDK@@PAX@0@ABQAU10@@Z 004011f0 f i sdk_util.obj
 0001:000001f0       ??$_Construct_in_place@PAU?$_Tree_node@PAVIMeetingChatCtrlEvent@ZOOMSDK@@PAX@std@@ABQAU12@@std@@YAXAAPAU?$_Tree_node@PAVIMeetingChatCtrlEvent@ZOOMSDK@@PAX@0@ABQAU10@@Z 004011f0 f i sdk_util.obj
 0001:000001f0       ??$_Construct_in_place@PAU?$_Tree_node@PAVIMeetingServiceEvent@ZOOMSDK@@PAX@std@@ABQAU12@@std@@YAXAAPAU?$_Tree_node@PAVIMeetingServiceEvent@ZOOMSDK@@PAX@0@ABQAU10@@Z 004011f0 f i sdk_util.obj
 0001:000001f0       ??$_Construct_in_place@PAU?$_Tree_node@PAVIMeetingVideoCtrlEvent@ZOOMSDK@@PAX@std@@ABQAU12@@std@@YAXAAPAU?$_Tree_node@PAVIMeetingVideoCtrlEvent@ZOOMSDK@@PAX@0@ABQAU10@@Z 004011f0 f i sdk_util.obj
 0001:00000230       ??$forward@V?$_Tree_const_iterator@V?$_Tree_val@U?$_Tree_simple_types@PAVIMeetingChatCtrlEvent@ZOOMSDK@@@std@@@std@@@std@@@std@@YA$$QAV?$_Tree_const_iterator@V?$_Tree_val@U?$_Tree_simple_types@PAVIMeetingChatCtrlEvent@ZOOMSDK@@@std@@@std@@@0@AAV10@@Z 00401230 f i sdk_util.obj
 0001:00000230       ??$forward@ABQAU?$_Tree_node@U?$pair@$$CBIPAVIUserInfo@ZOOMSDK@@@std@@PAX@std@@@std@@YAABQAU?$_Tree_node@U?$pair@$$CBIPAVIUserInfo@ZOOMSDK@@@std@@PAX@0@ABQAU10@@Z 00401230 f i user_manager.obj
 0001:00000230       ??$addressof@PAU?$_Tree_node@U?$pair@$$CBIPAVIUserInfo@ZOOMSDK@@@std@@PAX@std@@@std@@YAPAPAU?$_Tree_node@U?$pair@$$CBIPAVIUserInfo@ZOOMSDK@@@std@@PAX@0@AAPAU10@@Z 00401230 f i user_manager.obj
 0001:00000230       ??$forward@ABU?$less@PAVIMeetingParticipantsCtrlEvent@ZOOMSDK@@@std@@@std@@YAABU?$less@PAVIMeetingParticipantsCtrlEvent@ZOOMSDK@@@0@ABU10@@Z 00401230 f i sdk_util.obj
 0001:00000230       ?_Extract@?$_In_place_key_extract_set@PAVISDKInMeetingServiceMgrEvent@@PAV1@@std@@SAABQAVISDKInMeetingServiceMgrEvent@@ABQAV3@@Z 00401230 f i sdk_util.obj
 0001:00000230       ??$addressof@V?$_Tree_val@U?$_Tree_simple_types@PAVIClosedCaptionControllerEvent@ZOOMSDK@@@std@@@std@@@std@@YAPAV?$_Tree_val@U?$_Tree_simple_types@PAVIClosedCaptionControllerEvent@ZOOMSDK@@@std@@@0@AAV10@@Z 00401230 f i sdk_util.obj
 0001:00000230       ??$forward@V?$_Tree_iterator@V?$_Tree_val@U?$_Tree_simple_types@U?$pair@$$CBIPAVIUserInfo@ZOOMSDK@@@std@@@std@@@std@@@std@@@std@@YA$$QAV?$_Tree_iterator@V?$_Tree_val@U?$_Tree_simple_types@U?$pair@$$CBIPAVIUserInfo@ZOOMSDK@@@std@@@std@@@std@@@0@AAV10@@Z 00401230 f i user_manager.obj
 0001:00000230       ??$addressof@V?$_Tree_val@U?$_Tree_simple_types@PAVISDKInMeetingServiceMgrEvent@@@std@@@std@@@std@@YAPAV?$_Tree_val@U?$_Tree_simple_types@PAVISDKInMeetingServiceMgrEvent@@@std@@@0@AAV10@@Z 00401230 f i sdk_util.obj
 0001:00000230       ??$addressof@PAU?$_Tree_node@PAVIClosedCaptionControllerEvent@ZOOMSDK@@PAX@std@@@std@@YAPAPAU?$_Tree_node@PAVIClosedCaptionControllerEvent@ZOOMSDK@@PAX@0@AAPAU10@@Z 00401230 f i sdk_util.obj
 0001:00000230       ??$addressof@V?$_Tree_val@U?$_Tree_simple_types@PAVIMeetingVideoCtrlEvent@ZOOMSDK@@@std@@@std@@@std@@YAPAV?$_Tree_val@U?$_Tree_simple_types@PAVIMeetingVideoCtrlEvent@ZOOMSDK@@@std@@@0@AAV10@@Z 00401230 f i sdk_util.obj
 0001:00000230       ??$addressof@V?$_Vector_val@U?$_Simple_types@PAVIUserInfo@ZOOMSDK@@@std@@@std@@@std@@YAPAV?$_Vector_val@U?$_Simple_types@PAVIUserInfo@ZOOMSDK@@@std@@@0@AAV10@@Z 00401230 f i user_manager.obj
 0001:00000230       ??$_Voidify_iter@PAPAU?$_Tree_node@PAVIClosedCaptionControllerEvent@ZOOMSDK@@PAX@std@@@std@@YAPAXPAPAU?$_Tree_node@PAVIClosedCaptionControllerEvent@ZOOMSDK@@PAX@0@@Z 00401230 f i sdk_util.obj
 0001:00000230       ??$forward@V?$_Tree_const_iterator@V?$_Tree_val@U?$_Tree_simple_types@PAVISDKInMeetingServiceMgrEvent@@@std@@@std@@@std@@@std@@YA$$QAV?$_Tree_const_iterator@V?$_Tree_val@U?$_Tree_simple_types@PAVISDKInMeetingServiceMgrEvent@@@std@@@std@@@0@AAV10@@Z 00401230 f i sdk_util.obj
 0001:00000230       ??$addressof@V?$_Tree_val@U?$_Tree_simple_types@PAVIMeetingParticipantsCtrlEvent@ZOOMSDK@@@std@@@std@@@std@@YAPAV?$_Tree_val@U?$_Tree_simple_types@PAVIMeetingParticipantsCtrlEvent@ZOOMSDK@@@std@@@0@AAV10@@Z 00401230 f i sdk_util.obj
 0001:00000230       ??$forward@V?$_Tree_const_iterator@V?$_Tree_val@U?$_Tree_simple_types@PAVIClosedCaptionControllerEvent@ZOOMSDK@@@std@@@std@@@std@@@std@@YA$$QAV?$_Tree_const_iterator@V?$_Tree_val@U?$_Tree_simple_types@PAVIClosedCaptionControllerEvent@ZOOMSDK@@@std@@@std@@@0@AAV10@@Z 00401230 f i sdk_util.obj
 0001:00000230       ??$forward@AB_N@std@@YAAB_NAB_N@Z 00401230 f i sdk_util.obj
 0001:00000230       ??$forward@ABQAVIClosedCaptionControllerEvent@ZOOMSDK@@@std@@YAABQAVIClosedCaptionControllerEvent@ZOOMSDK@@ABQAV12@@Z 00401230 f i sdk_util.obj
 0001:00000230       ??$addressof@V?$basic_string@_WU?$char_traits@_W@std@@V?$allocator@_W@2@@std@@@std@@YAPAV?$basic_string@_WU?$char_traits@_W@std@@V?$allocator@_W@2@@0@AAV10@@Z 00401230 f i chat_controller_ui.obj
 0001:00000230       ??$forward@ABI@std@@YAABIABI@Z 00401230 f i user_manager.obj
 0001:00000230       ??$_Voidify_iter@PAPAU?$_Tree_node@PAVIPreMeetingServiceEvent@ZOOMSDK@@PAX@std@@@std@@YAPAXPAPAU?$_Tree_node@PAVIPreMeetingServiceEvent@ZOOMSDK@@PAX@0@@Z 00401230 f i sdk_util.obj
 0001:00000230       ??$_Voidify_iter@PAPAU?$_Tree_node@U?$pair@$$CBIPAVIUserInfo@ZOOMSDK@@@std@@PAX@std@@@std@@YAPAXPAPAU?$_Tree_node@U?$pair@$$CBIPAVIUserInfo@ZOOMSDK@@@std@@PAX@0@@Z 00401230 f i user_manager.obj
 0001:00000230       ??$addressof@$$CBV?$_Tree_val@U?$_Tree_simple_types@PAVIMeetingChatCtrlEvent@ZOOMSDK@@@std@@@std@@@std@@YAPBV?$_Tree_val@U?$_Tree_simple_types@PAVIMeetingChatCtrlEvent@ZOOMSDK@@@std@@@0@ABV10@@Z 00401230 f i sdk_util.obj
 0001:00000230       ??$forward@AAPAU?$_Tree_node@PAVIAuthServiceEvent@ZOOMSDK@@PAX@std@@@std@@YAAAPAU?$_Tree_node@PAVIAuthServiceEvent@ZOOMSDK@@PAX@0@AAPAU10@@Z 00401230 f i sdk_util.obj
 0001:00000230       ??$addressof@PA_W@std@@YAPAPA_WAAPA_W@Z 00401230 f i AnnotateBarWindow.obj
 0001:00000230       ??$_Voidify_iter@PAPAU?$_Tree_node@PAVISDKInMeetingServiceMgrEvent@@PAX@std@@@std@@YAPAXPAPAU?$_Tree_node@PAVISDKInMeetingServiceMgrEvent@@PAX@0@@Z 00401230 f i sdk_util.obj
 0001:00000230       ??$forward@AAPAU?$_Tree_node@PAVIClosedCaptionControllerEvent@ZOOMSDK@@PAX@std@@@std@@YAAAPAU?$_Tree_node@PAVIClosedCaptionControllerEvent@ZOOMSDK@@PAX@0@AAPAU10@@Z 00401230 f i sdk_util.obj
 0001:00000230       ??$forward@ABQAVIVirtualBGImageInfo@ZOOMSDK@@@std@@YAABQAVIVirtualBGImageInfo@ZOOMSDK@@ABQAV12@@Z 00401230 f i settings_ui.obj
 0001:00000230       ??$forward@ABH@std@@YAABHABH@Z 00401230 f i participant_ui.obj
 0001:00000230       ??$forward@PAU?$_Tree_node@PAVIClosedCaptionControllerEvent@ZOOMSDK@@PAX@std@@@std@@YA$$QAPAU?$_Tree_node@PAVIClosedCaptionControllerEvent@ZOOMSDK@@PAX@0@AAPAU10@@Z 00401230 f i sdk_util.obj
 0001:00000230       ??$addressof@$$CBV?$_Tree_val@U?$_Tree_simple_types@PAVIClosedCaptionControllerEvent@ZOOMSDK@@@std@@@std@@@std@@YAPBV?$_Tree_val@U?$_Tree_simple_types@PAVIClosedCaptionControllerEvent@ZOOMSDK@@@std@@@0@ABV10@@Z 00401230 f i sdk_util.obj
 0001:00000230       ??$forward@ABQAU?$_Tree_node@U?$pair@$$CBHW4bkItemType@@@std@@PAX@std@@@std@@YAABQAU?$_Tree_node@U?$pair@$$CBHW4bkItemType@@@std@@PAX@0@ABQAU10@@Z 00401230 f i settings_ui.obj
 0001:00000230       ??$forward@AAW4bkItemType@@@std@@YAAAW4bkItemType@@AAW41@@Z 00401230 f i settings_ui.obj
 0001:00000230       ??$addressof@PAVIMeetingParticipantsCtrlEvent@ZOOMSDK@@@std@@YAPAPAVIMeetingParticipantsCtrlEvent@ZOOMSDK@@AAPAV12@@Z 00401230 f i sdk_util.obj
 0001:00000230       ??$forward@ABQAVIMeetingServiceEvent@ZOOMSDK@@@std@@YAABQAVIMeetingServiceEvent@ZOOMSDK@@ABQAV12@@Z 00401230 f i sdk_util.obj
 0001:00000230       ??$_Voidify_iter@PAPAU?$_Tree_node@U?$pair@$$CBHW4bkItemType@@@std@@PAX@std@@@std@@YAPAXPAPAU?$_Tree_node@U?$pair@$$CBHW4bkItemType@@@std@@PAX@0@@Z 00401230 f i settings_ui.obj
 0001:00000230       ??$forward@PAU?$_Tree_node@PAVIMeetingServiceEvent@ZOOMSDK@@PAX@std@@@std@@YA$$QAPAU?$_Tree_node@PAVIMeetingServiceEvent@ZOOMSDK@@PAX@0@AAPAU10@@Z 00401230 f i sdk_util.obj
 0001:00000230       ??$forward@PAU?$_Tree_node@U?$pair@$$CBIPAVIUserInfo@ZOOMSDK@@@std@@PAX@std@@@std@@YA$$QAPAU?$_Tree_node@U?$pair@$$CBIPAVIUserInfo@ZOOMSDK@@@std@@PAX@0@AAPAU10@@Z 00401230 f i user_manager.obj
 0001:00000230       ??$forward@AAPAVIUserInfo@ZOOMSDK@@@std@@YAAAPAVIUserInfo@ZOOMSDK@@AAPAV12@@Z 00401230 f i user_manager.obj
 0001:00000230       ??$forward@PAVIUserInfo@ZOOMSDK@@@std@@YA$$QAPAVIUserInfo@ZOOMSDK@@AAPAV12@@Z 00401230 f i user_manager.obj
 0001:00000230       ??$addressof@$$CBV?$_Tree_val@U?$_Tree_simple_types@PAVIMeetingVideoCtrlEvent@ZOOMSDK@@@std@@@std@@@std@@YAPBV?$_Tree_val@U?$_Tree_simple_types@PAVIMeetingVideoCtrlEvent@ZOOMSDK@@@std@@@0@ABV10@@Z 00401230 f i sdk_util.obj
 0001:00000230       ??$_Get_unwrapped@AAV?$_Tree_unchecked_const_iterator@V?$_Tree_val@U?$_Tree_simple_types@PAVIMeetingChatCtrlEvent@ZOOMSDK@@@std@@@std@@U_Iterator_base0@2@@std@@@std@@YAAAV?$_Tree_unchecked_const_iterator@V?$_Tree_val@U?$_Tree_simple_types@PAVIMeetingChatCtrlEvent@ZOOMSDK@@@std@@@std@@U_Iterator_base0@2@@0@AAV10@@Z 00401230 f i sdk_util.obj
 0001:00000230       ??$addressof@_W@std@@YAPA_WAA_W@Z 00401230 f i schedule_meeting_ui.obj
 0001:00000230       ??$forward@ABU?$less@PAVISDKInMeetingServiceMgrEvent@@@std@@@std@@YAABU?$less@PAVISDKInMeetingServiceMgrEvent@@@0@ABU10@@Z 00401230 f i sdk_util.obj
 0001:00000230       ??$forward@ABQAVIMeetingChatCtrlEvent@ZOOMSDK@@@std@@YAABQAVIMeetingChatCtrlEvent@ZOOMSDK@@ABQAV12@@Z 00401230 f i sdk_util.obj
 0001:00000230       ??$move@AAV?$allocator@_W@std@@@std@@YA$$QAV?$allocator@_W@0@AAV10@@Z 00401230 f i chat_controller_ui.obj
 0001:00000230       ??$addressof@$$CBV?$_String_val@U?$_Simple_types@_W@std@@@std@@@std@@YAPBV?$_String_val@U?$_Simple_types@_W@std@@@0@ABV10@@Z 00401230 f i chat_controller_ui.obj
 0001:00000230       ?select_on_container_copy_construction@?$_Default_allocator_traits@V?$allocator@_W@std@@@std@@SA?AV?$allocator@_W@2@ABV32@@Z 00401230 f i schedule_meeting_ui.obj
 0001:00000230       ??$forward@V?$allocator@_W@std@@@std@@YA$$QAV?$allocator@_W@0@AAV10@@Z 00401230 f i chat_controller_ui.obj
 0001:00000230       ??$forward@AAPAU?$_Tree_node@U?$pair@$$CBHW4bkItemType@@@std@@PAX@std@@@std@@YAAAPAU?$_Tree_node@U?$pair@$$CBHW4bkItemType@@@std@@PAX@0@AAPAU10@@Z 00401230 f i settings_ui.obj
 0001:00000230       ??$forward@AAPAU?$_Tree_node@PAVIMeetingChatCtrlEvent@ZOOMSDK@@PAX@std@@@std@@YAAAPAU?$_Tree_node@PAVIMeetingChatCtrlEvent@ZOOMSDK@@PAX@0@AAPAU10@@Z 00401230 f i sdk_util.obj
 0001:00000230       ??$addressof@PAVIAuthServiceEvent@ZOOMSDK@@@std@@YAPAPAVIAuthServiceEvent@ZOOMSDK@@AAPAV12@@Z 00401230 f i sdk_util.obj
 0001:00000230       ??$forward@AAPAU?$_Tree_node@PAVISDKInMeetingServiceMgrEvent@@PAX@std@@@std@@YAAAPAU?$_Tree_node@PAVISDKInMeetingServiceMgrEvent@@PAX@0@AAPAU10@@Z 00401230 f i sdk_util.obj
 0001:00000230       ??$forward@ABU?$less@PAVIAuthServiceEvent@ZOOMSDK@@@std@@@std@@YAABU?$less@PAVIAuthServiceEvent@ZOOMSDK@@@0@ABU10@@Z 00401230 f i sdk_util.obj
 0001:00000230       ??$forward@ABU?$less@H@std@@@std@@YAABU?$less@H@0@ABU10@@Z 00401230 f i settings_ui.obj
 0001:00000230       ??$_Get_unwrapped@AAV?$_Tree_unchecked_const_iterator@V?$_Tree_val@U?$_Tree_simple_types@PAVIPreMeetingServiceEvent@ZOOMSDK@@@std@@@std@@U_Iterator_base0@2@@std@@@std@@YAAAV?$_Tree_unchecked_const_iterator@V?$_Tree_val@U?$_Tree_simple_types@PAVIPreMeetingServiceEvent@ZOOMSDK@@@std@@@std@@U_Iterator_base0@2@@0@AAV10@@Z 00401230 f i sdk_util.obj
 0001:00000230       ??$addressof@PAU?$_List_node@HPAX@std@@@std@@YAPAPAU?$_List_node@HPAX@0@AAPAU10@@Z 00401230 f i participant_ui.obj
 0001:00000230       ??$_Get_unwrapped@AAV?$_Tree_unchecked_const_iterator@V?$_Tree_val@U?$_Tree_simple_types@PAVIMeetingServiceEvent@ZOOMSDK@@@std@@@std@@U_Iterator_base0@2@@std@@@std@@YAAAV?$_Tree_unchecked_const_iterator@V?$_Tree_val@U?$_Tree_simple_types@PAVIMeetingServiceEvent@ZOOMSDK@@@std@@@std@@U_Iterator_base0@2@@0@AAV10@@Z 00401230 f i sdk_util.obj
 0001:00000230       ??$addressof@PAU?$_Tree_node@PAVIMeetingChatCtrlEvent@ZOOMSDK@@PAX@std@@@std@@YAPAPAU?$_Tree_node@PAVIMeetingChatCtrlEvent@ZOOMSDK@@PAX@0@AAPAU10@@Z 00401230 f i sdk_util.obj
 0001:00000230       ??$addressof@PAU?$_Tree_node@PAVIMeetingParticipantsCtrlEvent@ZOOMSDK@@PAX@std@@@std@@YAPAPAU?$_Tree_node@PAVIMeetingParticipantsCtrlEvent@ZOOMSDK@@PAX@0@AAPAU10@@Z 00401230 f i sdk_util.obj
 0001:00000230       ??$addressof@PAU?$_Tree_node@U?$pair@$$CBHW4bkItemType@@@std@@PAX@std@@@std@@YAPAPAU?$_Tree_node@U?$pair@$$CBHW4bkItemType@@@std@@PAX@0@AAPAU10@@Z 00401230 f i settings_ui.obj
 0001:00000230       ??$forward@AAPAU?$_Tree_node@PAVIMeetingParticipantsCtrlEvent@ZOOMSDK@@PAX@std@@@std@@YAAAPAU?$_Tree_node@PAVIMeetingParticipantsCtrlEvent@ZOOMSDK@@PAX@0@AAPAU10@@Z 00401230 f i sdk_util.obj
 0001:00000230       ?_Extract@?$_In_place_key_extract_set@PAVIMeetingChatCtrlEvent@ZOOMSDK@@PAV12@@std@@SAABQAVIMeetingChatCtrlEvent@ZOOMSDK@@ABQAV34@@Z 00401230 f i sdk_util.obj
 0001:00000230       ?_Extract@?$_In_place_key_extract_set@PAVIClosedCaptionControllerEvent@ZOOMSDK@@PAV12@@std@@SAABQAVIClosedCaptionControllerEvent@ZOOMSDK@@ABQAV34@@Z 00401230 f i sdk_util.obj
 0001:00000230       ??$addressof@PAVIMeetingServiceEvent@ZOOMSDK@@@std@@YAPAPAVIMeetingServiceEvent@ZOOMSDK@@AAPAV12@@Z 00401230 f i sdk_util.obj
 0001:00000230       ?_Extract@?$_In_place_key_extract_set@PAVIMeetingServiceEvent@ZOOMSDK@@PAV12@@std@@SAABQAVIMeetingServiceEvent@ZOOMSDK@@ABQAV34@@Z 00401230 f i sdk_util.obj
 0001:00000230       ??$_Get_unwrapped@AAV?$_Tree_unchecked_const_iterator@V?$_Tree_val@U?$_Tree_simple_types@PAVIAuthServiceEvent@ZOOMSDK@@@std@@@std@@U_Iterator_base0@2@@std@@@std@@YAAAV?$_Tree_unchecked_const_iterator@V?$_Tree_val@U?$_Tree_simple_types@PAVIAuthServiceEvent@ZOOMSDK@@@std@@@std@@U_Iterator_base0@2@@0@AAV10@@Z 00401230 f i sdk_util.obj
 0001:00000230       ??$addressof@PAVIPreMeetingServiceEvent@ZOOMSDK@@@std@@YAPAPAVIPreMeetingServiceEvent@ZOOMSDK@@AAPAV12@@Z 00401230 f i sdk_util.obj
 0001:00000230       ?_Kfn@?$_Tset_traits@PAVIClosedCaptionControllerEvent@ZOOMSDK@@U?$less@PAVIClosedCaptionControllerEvent@ZOOMSDK@@@std@@V?$allocator@PAVIClosedCaptionControllerEvent@ZOOMSDK@@@4@$0A@@std@@SAABQAVIClosedCaptionControllerEvent@ZOOMSDK@@ABQAV34@@Z 00401230 f i sdk_util.obj
 0001:00000230       ??$forward@ABV?$basic_string@_WU?$char_traits@_W@std@@V?$allocator@_W@2@@std@@@std@@YAABV?$basic_string@_WU?$char_traits@_W@std@@V?$allocator@_W@2@@0@ABV10@@Z 00401230 f i schedule_meeting_ui.obj
 0001:00000230       ??$_Voidify_iter@PAPA_W@std@@YAPAXPAPA_W@Z 00401230 f i AnnotateBarWindow.obj
 0001:00000230       ??$_Voidify_iter@PAPAU?$_Tree_node@PAVIMeetingVideoCtrlEvent@ZOOMSDK@@PAX@std@@@std@@YAPAXPAPAU?$_Tree_node@PAVIMeetingVideoCtrlEvent@ZOOMSDK@@PAX@0@@Z 00401230 f i sdk_util.obj
 0001:00000230       ??$addressof@PAVISDKInMeetingServiceMgrEvent@@@std@@YAPAPAVISDKInMeetingServiceMgrEvent@@AAPAV1@@Z 00401230 f i sdk_util.obj
 0001:00000230       ??$forward@PAU?$_Tree_node@PAVIAuthServiceEvent@ZOOMSDK@@PAX@std@@@std@@YA$$QAPAU?$_Tree_node@PAVIAuthServiceEvent@ZOOMSDK@@PAX@0@AAPAU10@@Z 00401230 f i sdk_util.obj
 0001:00000230       ??$addressof@V?$_Tree_val@U?$_Tree_simple_types@PAVIAuthServiceEvent@ZOOMSDK@@@std@@@std@@@std@@YAPAV?$_Tree_val@U?$_Tree_simple_types@PAVIAuthServiceEvent@ZOOMSDK@@@std@@@0@AAV10@@Z 00401230 f i sdk_util.obj
 0001:00000230       ??$_Kfn@$$CBHW4bkItemType@@@?$_Tmap_traits@HW4bkItemType@@U?$less@H@std@@V?$allocator@U?$pair@$$CBHW4bkItemType@@@std@@@3@$0A@@std@@SAABHABU?$pair@$$CBHW4bkItemType@@@1@@Z 00401230 f i settings_ui.obj
 0001:00000230       ??$addressof@V?$_Tree_val@U?$_Tree_simple_types@U?$pair@$$CBHW4bkItemType@@@std@@@std@@@std@@@std@@YAPAV?$_Tree_val@U?$_Tree_simple_types@U?$pair@$$CBHW4bkItemType@@@std@@@std@@@0@AAV10@@Z 00401230 f i settings_ui.obj
 0001:00000230       ??$move@AAV?$basic_istream@_WU?$char_traits@_W@std@@@std@@@std@@YA$$QAV?$basic_istream@_WU?$char_traits@_W@std@@@0@AAV10@@Z 00401230 f i schedule_meeting_ui.obj
 0001:00000230       ??$addressof@$$CBV?$_Tree_val@U?$_Tree_simple_types@U?$pair@$$CBHW4bkItemType@@@std@@@std@@@std@@@std@@YAPBV?$_Tree_val@U?$_Tree_simple_types@U?$pair@$$CBHW4bkItemType@@@std@@@std@@@0@ABV10@@Z 00401230 f i settings_ui.obj
 0001:00000230       ??$forward@U?$pair@IPAVIUserInfo@ZOOMSDK@@@std@@@std@@YA$$QAU?$pair@IPAVIUserInfo@ZOOMSDK@@@0@AAU10@@Z 00401230 f i user_manager.obj
 0001:00000230       ??$forward@U_Zero_then_variadic_args_t@std@@@std@@YA$$QAU_Zero_then_variadic_args_t@0@AAU10@@Z 00401230 f i sdk_util.obj
 0001:00000230       ??$addressof@$$CBV?$_Tree_val@U?$_Tree_simple_types@U?$pair@$$CBIPAVIUserInfo@ZOOMSDK@@@std@@@std@@@std@@@std@@YAPBV?$_Tree_val@U?$_Tree_simple_types@U?$pair@$$CBIPAVIUserInfo@ZOOMSDK@@@std@@@std@@@0@ABV10@@Z 00401230 f i user_manager.obj
 0001:00000230       ??$forward@W4bkItemType@@@std@@YA$$QAW4bkItemType@@AAW41@@Z 00401230 f i settings_ui.obj
 0001:00000230       ??$forward@ABQAU?$_List_node@HPAX@std@@@std@@YAABQAU?$_List_node@HPAX@0@ABQAU10@@Z 00401230 f i participant_ui.obj
 0001:00000230       ??$forward@PAU?$_Tree_node@PAVIPreMeetingServiceEvent@ZOOMSDK@@PAX@std@@@std@@YA$$QAPAU?$_Tree_node@PAVIPreMeetingServiceEvent@ZOOMSDK@@PAX@0@AAPAU10@@Z 00401230 f i sdk_util.obj
 0001:00000230       ??$forward@ABU?$less@PAVIMeetingServiceEvent@ZOOMSDK@@@std@@@std@@YAABU?$less@PAVIMeetingServiceEvent@ZOOMSDK@@@0@ABU10@@Z 00401230 f i sdk_util.obj
 0001:00000230       ??$addressof@$$CBV?$_Tree_val@U?$_Tree_simple_types@PAVIMeetingParticipantsCtrlEvent@ZOOMSDK@@@std@@@std@@@std@@YAPBV?$_Tree_val@U?$_Tree_simple_types@PAVIMeetingParticipantsCtrlEvent@ZOOMSDK@@@std@@@0@ABV10@@Z 00401230 f i sdk_util.obj
 0001:00000230       ??$forward@V?$_Tree_const_iterator@V?$_Tree_val@U?$_Tree_simple_types@PAVIMeetingServiceEvent@ZOOMSDK@@@std@@@std@@@std@@@std@@YA$$QAV?$_Tree_const_iterator@V?$_Tree_val@U?$_Tree_simple_types@PAVIMeetingServiceEvent@ZOOMSDK@@@std@@@std@@@0@AAV10@@Z 00401230 f i sdk_util.obj
 0001:00000230       ??$forward@U?$pair@HW4bkItemType@@@std@@@std@@YA$$QAU?$pair@HW4bkItemType@@@0@AAU10@@Z 00401230 f i settings_ui.obj
 0001:00000230       ??$forward@ABU?$less@PAVIPreMeetingServiceEvent@ZOOMSDK@@@std@@@std@@YAABU?$less@PAVIPreMeetingServiceEvent@ZOOMSDK@@@0@ABU10@@Z 00401230 f i sdk_util.obj
 0001:00000230       ??$forward@PAU?$_Tree_node@PAVIMeetingChatCtrlEvent@ZOOMSDK@@PAX@std@@@std@@YA$$QAPAU?$_Tree_node@PAVIMeetingChatCtrlEvent@ZOOMSDK@@PAX@0@AAPAU10@@Z 00401230 f i sdk_util.obj
 0001:00000230       ??$forward@ABQAVIPreMeetingServiceEvent@ZOOMSDK@@@std@@YAABQAVIPreMeetingServiceEvent@ZOOMSDK@@ABQAV12@@Z 00401230 f i sdk_util.obj
 0001:00000230       ??$_Unfancy@_W@std@@YAPA_WPA_W@Z 00401230 f i AnnotateBarWindow.obj
 0001:00000230       ??$addressof@U?$pair@$$CBIPAVIUserInfo@ZOOMSDK@@@std@@@std@@YAPAU?$pair@$$CBIPAVIUserInfo@ZOOMSDK@@@0@AAU10@@Z 00401230 f i user_manager.obj
 0001:00000230       ?_Kfn@?$_Tset_traits@PAVIPreMeetingServiceEvent@ZOOMSDK@@U?$less@PAVIPreMeetingServiceEvent@ZOOMSDK@@@std@@V?$allocator@PAVIPreMeetingServiceEvent@ZOOMSDK@@@4@$0A@@std@@SAABQAVIPreMeetingServiceEvent@ZOOMSDK@@ABQAV34@@Z 00401230 f i sdk_util.obj
 0001:00000230       ??$forward@PAU?$_Tree_node@PAVIMeetingParticipantsCtrlEvent@ZOOMSDK@@PAX@std@@@std@@YA$$QAPAU?$_Tree_node@PAVIMeetingParticipantsCtrlEvent@ZOOMSDK@@PAX@0@AAPAU10@@Z 00401230 f i sdk_util.obj
 0001:00000230       ?_Extract@?$_In_place_key_extract_map@IU?$pair@IPAVIUserInfo@ZOOMSDK@@@std@@@std@@SAABIABU?$pair@IPAVIUserInfo@ZOOMSDK@@@2@@Z 00401230 f i user_manager.obj
 0001:00000230       ??$forward@V?$_Tree_iterator@V?$_Tree_val@U?$_Tree_simple_types@U?$pair@$$CBHW4bkItemType@@@std@@@std@@@std@@@std@@@std@@YA$$QAV?$_Tree_iterator@V?$_Tree_val@U?$_Tree_simple_types@U?$pair@$$CBHW4bkItemType@@@std@@@std@@@std@@@0@AAV10@@Z 00401230 f i settings_ui.obj
 0001:00000230       ??$forward@PAU?$_Tree_node@PAVISDKInMeetingServiceMgrEvent@@PAX@std@@@std@@YA$$QAPAU?$_Tree_node@PAVISDKInMeetingServiceMgrEvent@@PAX@0@AAPAU10@@Z 00401230 f i sdk_util.obj
 0001:00000230       ??$forward@H@std@@YA$$QAHAAH@Z 00401230 f i settings_ui.obj
 0001:00000230       ??$forward@ABQA_W@std@@YAABQA_WABQA_W@Z 00401230 f i AnnotateBarWindow.obj
 0001:00000230       ??$addressof@$$CBV?$_Tree_val@U?$_Tree_simple_types@PAVISDKInMeetingServiceMgrEvent@@@std@@@std@@@std@@YAPBV?$_Tree_val@U?$_Tree_simple_types@PAVISDKInMeetingServiceMgrEvent@@@std@@@0@ABV10@@Z 00401230 f i sdk_util.obj
 0001:00000230       ??$addressof@$$CBV?$_Tree_val@U?$_Tree_simple_types@PAVIAuthServiceEvent@ZOOMSDK@@@std@@@std@@@std@@YAPBV?$_Tree_val@U?$_Tree_simple_types@PAVIAuthServiceEvent@ZOOMSDK@@@std@@@0@ABV10@@Z 00401230 f i sdk_util.obj
 0001:00000230       ??$_Unfancy@PAVIAlternativeHostInfo@ZOOMSDK@@@std@@YAPAPAVIAlternativeHostInfo@ZOOMSDK@@PAPAV12@@Z 00401230 f i schedule_meeting_ui.obj
 0001:00000230       ??$addressof@PAU?$_Tree_node@PAVIAuthServiceEvent@ZOOMSDK@@PAX@std@@@std@@YAPAPAU?$_Tree_node@PAVIAuthServiceEvent@ZOOMSDK@@PAX@0@AAPAU10@@Z 00401230 f i sdk_util.obj
 0001:00000230       ??$forward@ABQAU?$_Tree_node@PAVIMeetingVideoCtrlEvent@ZOOMSDK@@PAX@std@@@std@@YAABQAU?$_Tree_node@PAVIMeetingVideoCtrlEvent@ZOOMSDK@@PAX@0@ABQAU10@@Z 00401230 f i sdk_util.obj
 0001:00000230       ??$addressof@V?$_Tree_val@U?$_Tree_simple_types@PAVIMeetingChatCtrlEvent@ZOOMSDK@@@std@@@std@@@std@@YAPAV?$_Tree_val@U?$_Tree_simple_types@PAVIMeetingChatCtrlEvent@ZOOMSDK@@@std@@@0@AAV10@@Z 00401230 f i sdk_util.obj
 0001:00000230       ??$forward@ABQAU?$_Tree_node@PAVIMeetingChatCtrlEvent@ZOOMSDK@@PAX@std@@@std@@YAABQAU?$_Tree_node@PAVIMeetingChatCtrlEvent@ZOOMSDK@@PAX@0@ABQAU10@@Z 00401230 f i sdk_util.obj
 0001:00000230       ?_Extract@?$_In_place_key_extract_map@HU?$pair@HW4bkItemType@@@std@@@std@@SAABHABU?$pair@HW4bkItemType@@@2@@Z 00401230 f i settings_ui.obj
 0001:00000230       ??$move@AAV?$tuple@ABI@std@@@std@@YA$$QAV?$tuple@ABI@0@AAV10@@Z 00401230 f i user_manager.obj
 0001:00000230       ??$forward@V?$basic_string@_WU?$char_traits@_W@std@@V?$allocator@_W@2@@std@@@std@@YA$$QAV?$basic_string@_WU?$char_traits@_W@std@@V?$allocator@_W@2@@0@AAV10@@Z 00401230 f i custom_ui_share_flow.obj
 0001:00000230       ??$forward@ABU?$less@PAVIClosedCaptionControllerEvent@ZOOMSDK@@@std@@@std@@YAABU?$less@PAVIClosedCaptionControllerEvent@ZOOMSDK@@@0@ABU10@@Z 00401230 f i sdk_util.obj
 0001:00000230       ??$forward@ABQAVIInterpreterInfo@ZOOMSDK@@@std@@YAABQAVIInterpreterInfo@ZOOMSDK@@ABQAV12@@Z 00401230 f i schedule_meeting_ui.obj
 0001:00000230       ??$forward@ABQAVIAlternativeHostInfo@ZOOMSDK@@@std@@YAABQAVIAlternativeHostInfo@ZOOMSDK@@ABQAV12@@Z 00401230 f i schedule_meeting_ui.obj
 0001:00000230       ??$addressof@V?$basic_stringbuf@_WU?$char_traits@_W@std@@V?$allocator@_W@2@@std@@@std@@YAPAV?$basic_stringbuf@_WU?$char_traits@_W@std@@V?$allocator@_W@2@@0@AAV10@@Z 00401230 f i schedule_meeting_ui.obj
 0001:00000230       ??$forward@V?$_Tree_const_iterator@V?$_Tree_val@U?$_Tree_simple_types@PAVIMeetingVideoCtrlEvent@ZOOMSDK@@@std@@@std@@@std@@@std@@YA$$QAV?$_Tree_const_iterator@V?$_Tree_val@U?$_Tree_simple_types@PAVIMeetingVideoCtrlEvent@ZOOMSDK@@@std@@@std@@@0@AAV10@@Z 00401230 f i sdk_util.obj
 0001:00000230       ??$addressof@PAU?$_Tree_node@PAVISDKInMeetingServiceMgrEvent@@PAX@std@@@std@@YAPAPAU?$_Tree_node@PAVISDKInMeetingServiceMgrEvent@@PAX@0@AAPAU10@@Z 00401230 f i sdk_util.obj
 0001:00000230       ??$_Get_unwrapped@AAV?$_Tree_unchecked_const_iterator@V?$_Tree_val@U?$_Tree_simple_types@PAVIMeetingParticipantsCtrlEvent@ZOOMSDK@@@std@@@std@@U_Iterator_base0@2@@std@@@std@@YAAAV?$_Tree_unchecked_const_iterator@V?$_Tree_val@U?$_Tree_simple_types@PAVIMeetingParticipantsCtrlEvent@ZOOMSDK@@@std@@@std@@U_Iterator_base0@2@@0@AAV10@@Z 00401230 f i sdk_util.obj
 0001:00000230       ??$_Voidify_iter@PAPAU?$_List_node@HPAX@std@@@std@@YAPAXPAPAU?$_List_node@HPAX@0@@Z 00401230 f i participant_ui.obj
 0001:00000230       ?_Extract@?$_In_place_key_extract_set@PAVIAuthServiceEvent@ZOOMSDK@@PAV12@@std@@SAABQAVIAuthServiceEvent@ZOOMSDK@@ABQAV34@@Z 00401230 f i sdk_util.obj
 0001:00000230       ??$addressof@V?$_Tree_val@U?$_Tree_simple_types@PAVIPreMeetingServiceEvent@ZOOMSDK@@@std@@@std@@@std@@YAPAV?$_Tree_val@U?$_Tree_simple_types@PAVIPreMeetingServiceEvent@ZOOMSDK@@@std@@@0@AAV10@@Z 00401230 f i sdk_util.obj
 0001:00000230       ??$addressof@U?$pair@$$CBHW4bkItemType@@@std@@@std@@YAPAU?$pair@$$CBHW4bkItemType@@@0@AAU10@@Z 00401230 f i settings_ui.obj
 0001:00000230       ??$addressof@H@std@@YAPAHAAH@Z 00401230 f i participant_ui.obj
 0001:00000230       ??$_Voidify_iter@PAPAU?$_Tree_node@PAVIMeetingParticipantsCtrlEvent@ZOOMSDK@@PAX@std@@@std@@YAPAXPAPAU?$_Tree_node@PAVIMeetingParticipantsCtrlEvent@ZOOMSDK@@PAX@0@@Z 00401230 f i sdk_util.obj
 0001:00000230       ??$forward@I@std@@YA$$QAIAAI@Z 00401230 f i settings_ui.obj
 0001:00000230       ??$forward@ABQAU?$_Tree_node@PAVIClosedCaptionControllerEvent@ZOOMSDK@@PAX@std@@@std@@YAABQAU?$_Tree_node@PAVIClosedCaptionControllerEvent@ZOOMSDK@@PAX@0@ABQAU10@@Z 00401230 f i sdk_util.obj
 0001:00000230       ?_Kfn@?$_Tset_traits@PAVIMeetingChatCtrlEvent@ZOOMSDK@@U?$less@PAVIMeetingChatCtrlEvent@ZOOMSDK@@@std@@V?$allocator@PAVIMeetingChatCtrlEvent@ZOOMSDK@@@4@$0A@@std@@SAABQAVIMeetingChatCtrlEvent@ZOOMSDK@@ABQAV34@@Z 00401230 f i sdk_util.obj
 0001:00000230       ??$forward_as_tuple@$$V@std@@YA?AV?$tuple@$$V@0@XZ 00401230 f i user_manager.obj
 0001:00000230       ??$forward@AAPAU?$_Tree_node@PAVIMeetingServiceEvent@ZOOMSDK@@PAX@std@@@std@@YAAAPAU?$_Tree_node@PAVIMeetingServiceEvent@ZOOMSDK@@PAX@0@AAPAU10@@Z 00401230 f i sdk_util.obj
 0001:00000230       ?_Kfn@?$_Tset_traits@PAVIMeetingParticipantsCtrlEvent@ZOOMSDK@@U?$less@PAVIMeetingParticipantsCtrlEvent@ZOOMSDK@@@std@@V?$allocator@PAVIMeetingParticipantsCtrlEvent@ZOOMSDK@@@4@$0A@@std@@SAABQAVIMeetingParticipantsCtrlEvent@ZOOMSDK@@ABQAV34@@Z 00401230 f i sdk_util.obj
 0001:00000230       ??$addressof@V?$_Tree_val@U?$_Tree_simple_types@U?$pair@$$CBIPAVIUserInfo@ZOOMSDK@@@std@@@std@@@std@@@std@@YAPAV?$_Tree_val@U?$_Tree_simple_types@U?$pair@$$CBIPAVIUserInfo@ZOOMSDK@@@std@@@std@@@0@AAV10@@Z 00401230 f i user_manager.obj
 0001:00000230       ??$addressof@PAU?$_Tree_node@PAVIMeetingServiceEvent@ZOOMSDK@@PAX@std@@@std@@YAPAPAU?$_Tree_node@PAVIMeetingServiceEvent@ZOOMSDK@@PAX@0@AAPAU10@@Z 00401230 f i sdk_util.obj
 0001:00000230       ?_Kfn@?$_Tset_traits@PAVIMeetingVideoCtrlEvent@ZOOMSDK@@U?$less@PAVIMeetingVideoCtrlEvent@ZOOMSDK@@@std@@V?$allocator@PAVIMeetingVideoCtrlEvent@ZOOMSDK@@@4@$0A@@std@@SAABQAVIMeetingVideoCtrlEvent@ZOOMSDK@@ABQAV34@@Z 00401230 f i sdk_util.obj
 0001:00000230       ??$forward@ABUpiecewise_construct_t@std@@@std@@YAABUpiecewise_construct_t@0@ABU10@@Z 00401230 f i user_manager.obj
 0001:00000230       ??$_Convert_size@I@std@@YAII@Z 00401230 f i AnnotateBarWindow.obj
 0001:00000230       ??$forward@V?$_Tree_const_iterator@V?$_Tree_val@U?$_Tree_simple_types@PAVIMeetingParticipantsCtrlEvent@ZOOMSDK@@@std@@@std@@@std@@@std@@YA$$QAV?$_Tree_const_iterator@V?$_Tree_val@U?$_Tree_simple_types@PAVIMeetingParticipantsCtrlEvent@ZOOMSDK@@@std@@@std@@@0@AAV10@@Z 00401230 f i sdk_util.obj
 0001:00000230       ??$forward@PAU?$_Tree_node@U?$pair@$$CBHW4bkItemType@@@std@@PAX@std@@@std@@YA$$QAPAU?$_Tree_node@U?$pair@$$CBHW4bkItemType@@@std@@PAX@0@AAPAU10@@Z 00401230 f i settings_ui.obj
 0001:00000230       ??$forward@ABQAU?$_Tree_node@PAVIPreMeetingServiceEvent@ZOOMSDK@@PAX@std@@@std@@YAABQAU?$_Tree_node@PAVIPreMeetingServiceEvent@ZOOMSDK@@PAX@0@ABQAU10@@Z 00401230 f i sdk_util.obj
 0001:00000230       ??$forward@AAPAU?$_Tree_node@PAVIMeetingVideoCtrlEvent@ZOOMSDK@@PAX@std@@@std@@YAAAPAU?$_Tree_node@PAVIMeetingVideoCtrlEvent@ZOOMSDK@@PAX@0@AAPAU10@@Z 00401230 f i sdk_util.obj
 0001:00000230       ?_Extract@?$_In_place_key_extract_set@PAVIPreMeetingServiceEvent@ZOOMSDK@@PAV12@@std@@SAABQAVIPreMeetingServiceEvent@ZOOMSDK@@ABQAV34@@Z 00401230 f i sdk_util.obj
 0001:00000230       ??$forward@ABQAU?$_Tree_node@PAVIMeetingServiceEvent@ZOOMSDK@@PAX@std@@@std@@YAABQAU?$_Tree_node@PAVIMeetingServiceEvent@ZOOMSDK@@PAX@0@ABQAU10@@Z 00401230 f i sdk_util.obj
 0001:00000230       ??$_Voidify_iter@PAPAU?$_Tree_node@PAVIAuthServiceEvent@ZOOMSDK@@PAX@std@@@std@@YAPAXPAPAU?$_Tree_node@PAVIAuthServiceEvent@ZOOMSDK@@PAX@0@@Z 00401230 f i sdk_util.obj
 0001:00000230       ??$forward@ABU?$less@PAVIMeetingChatCtrlEvent@ZOOMSDK@@@std@@@std@@YAABU?$less@PAVIMeetingChatCtrlEvent@ZOOMSDK@@@0@ABU10@@Z 00401230 f i sdk_util.obj
 0001:00000230       ?_Extract@?$_In_place_key_extract_set@PAVIMeetingVideoCtrlEvent@ZOOMSDK@@PAV12@@std@@SAABQAVIMeetingVideoCtrlEvent@ZOOMSDK@@ABQAV34@@Z 00401230 f i sdk_util.obj
 0001:00000230       ??$forward@V?$tuple@ABI@std@@@std@@YA$$QAV?$tuple@ABI@0@AAV10@@Z 00401230 f i user_manager.obj
 0001:00000230       ??$forward@PAU?$_Tree_node@PAVIMeetingVideoCtrlEvent@ZOOMSDK@@PAX@std@@@std@@YA$$QAPAU?$_Tree_node@PAVIMeetingVideoCtrlEvent@ZOOMSDK@@PAX@0@AAPAU10@@Z 00401230 f i sdk_util.obj
 0001:00000230       ??$_Voidify_iter@PAPAU?$_Tree_node@PAVIMeetingServiceEvent@ZOOMSDK@@PAX@std@@@std@@YAPAXPAPAU?$_Tree_node@PAVIMeetingServiceEvent@ZOOMSDK@@PAX@0@@Z 00401230 f i sdk_util.obj
 0001:00000230       ??$_Unfancy@PAVIVirtualBGImageInfo@ZOOMSDK@@@std@@YAPAPAVIVirtualBGImageInfo@ZOOMSDK@@PAPAV12@@Z 00401230 f i settings_ui.obj
 0001:00000230       ??$_Unfancy@PAVIInterpreterInfo@ZOOMSDK@@@std@@YAPAPAVIInterpreterInfo@ZOOMSDK@@PAPAV12@@Z 00401230 f i schedule_meeting_ui.obj
 0001:00000230       ?_Kfn@?$_Tset_traits@PAVISDKInMeetingServiceMgrEvent@@U?$less@PAVISDKInMeetingServiceMgrEvent@@@std@@V?$allocator@PAVISDKInMeetingServiceMgrEvent@@@3@$0A@@std@@SAABQAVISDKInMeetingServiceMgrEvent@@ABQAV3@@Z 00401230 f i sdk_util.obj
 0001:00000230       ?_Kfn@?$_Tset_traits@PAVIAuthServiceEvent@ZOOMSDK@@U?$less@PAVIAuthServiceEvent@ZOOMSDK@@@std@@V?$allocator@PAVIAuthServiceEvent@ZOOMSDK@@@4@$0A@@std@@SAABQAVIAuthServiceEvent@ZOOMSDK@@ABQAV34@@Z 00401230 f i sdk_util.obj
 0001:00000230       ??$addressof@V?$_String_val@U?$_Simple_types@_W@std@@@std@@@std@@YAPAV?$_String_val@U?$_Simple_types@_W@std@@@0@AAV10@@Z 00401230 f i chat_controller_ui.obj
 0001:00000230       ??$move@AAPAVIUserInfo@ZOOMSDK@@@std@@YA$$QAPAVIUserInfo@ZOOMSDK@@AAPAV12@@Z 00401230 f i user_manager.obj
 0001:00000230       ??$_Unfancy@PAVIUserInfo@ZOOMSDK@@@std@@YAPAPAVIUserInfo@ZOOMSDK@@PAPAV12@@Z 00401230 f i user_manager.obj
 0001:00000230       ??$forward@ABU?$less@PAVIMeetingVideoCtrlEvent@ZOOMSDK@@@std@@@std@@YAABU?$less@PAVIMeetingVideoCtrlEvent@ZOOMSDK@@@0@ABU10@@Z 00401230 f i sdk_util.obj
 0001:00000230       ??$addressof@PAVIMeetingVideoCtrlEvent@ZOOMSDK@@@std@@YAPAPAVIMeetingVideoCtrlEvent@ZOOMSDK@@AAPAV12@@Z 00401230 f i sdk_util.obj
 0001:00000230       ??$addressof@PAU?$_Tree_node@PAVIMeetingVideoCtrlEvent@ZOOMSDK@@PAX@std@@@std@@YAPAPAU?$_Tree_node@PAVIMeetingVideoCtrlEvent@ZOOMSDK@@PAX@0@AAPAU10@@Z 00401230 f i sdk_util.obj
 0001:00000230       ??$move@AAD@std@@YA$$QADAAD@Z 00401230 f i sdk_util.obj
 0001:00000230       ??$addressof@PAVIClosedCaptionControllerEvent@ZOOMSDK@@@std@@YAPAPAVIClosedCaptionControllerEvent@ZOOMSDK@@AAPAV12@@Z 00401230 f i sdk_util.obj
 0001:00000230       ??$forward@V?$tuple@$$V@std@@@std@@YA$$QAV?$tuple@$$V@0@AAV10@@Z 00401230 f i user_manager.obj
 0001:00000230       ??$addressof@$$CBV?$basic_string@_WU?$char_traits@_W@std@@V?$allocator@_W@2@@std@@@std@@YAPBV?$basic_string@_WU?$char_traits@_W@std@@V?$allocator@_W@2@@0@ABV10@@Z 00401230 f i custom_ui_share_flow.obj
 0001:00000230       ??$forward@AAPAU?$_Tree_node@U?$pair@$$CBIPAVIUserInfo@ZOOMSDK@@@std@@PAX@std@@@std@@YAAAPAU?$_Tree_node@U?$pair@$$CBIPAVIUserInfo@ZOOMSDK@@@std@@PAX@0@AAPAU10@@Z 00401230 f i user_manager.obj
 0001:00000230       ?_Kfn@?$_Tset_traits@PAVIMeetingServiceEvent@ZOOMSDK@@U?$less@PAVIMeetingServiceEvent@ZOOMSDK@@@std@@V?$allocator@PAVIMeetingServiceEvent@ZOOMSDK@@@4@$0A@@std@@SAABQAVIMeetingServiceEvent@ZOOMSDK@@ABQAV34@@Z 00401230 f i sdk_util.obj
 0001:00000230       ??$_Kfn@$$CBIPAVIUserInfo@ZOOMSDK@@@?$_Tmap_traits@IPAVIUserInfo@ZOOMSDK@@U?$less@I@std@@V?$allocator@U?$pair@$$CBIPAVIUserInfo@ZOOMSDK@@@std@@@4@$0A@@std@@SAABIABU?$pair@$$CBIPAVIUserInfo@ZOOMSDK@@@1@@Z 00401230 f i user_manager.obj
 0001:00000230       ??$_Get_unwrapped@AAV?$_Tree_unchecked_const_iterator@V?$_Tree_val@U?$_Tree_simple_types@PAVIClosedCaptionControllerEvent@ZOOMSDK@@@std@@@std@@U_Iterator_base0@2@@std@@@std@@YAAAV?$_Tree_unchecked_const_iterator@V?$_Tree_val@U?$_Tree_simple_types@PAVIClosedCaptionControllerEvent@ZOOMSDK@@@std@@@std@@U_Iterator_base0@2@@0@AAV10@@Z 00401230 f i sdk_util.obj
 0001:00000230       ??$forward@V?$_Tree_const_iterator@V?$_Tree_val@U?$_Tree_simple_types@PAVIPreMeetingServiceEvent@ZOOMSDK@@@std@@@std@@@std@@@std@@YA$$QAV?$_Tree_const_iterator@V?$_Tree_val@U?$_Tree_simple_types@PAVIPreMeetingServiceEvent@ZOOMSDK@@@std@@@std@@@0@AAV10@@Z 00401230 f i sdk_util.obj
 0001:00000230       ??$addressof@V?$_Tree_val@U?$_Tree_simple_types@PAVIMeetingServiceEvent@ZOOMSDK@@@std@@@std@@@std@@YAPAV?$_Tree_val@U?$_Tree_simple_types@PAVIMeetingServiceEvent@ZOOMSDK@@@std@@@0@AAV10@@Z 00401230 f i sdk_util.obj
 0001:00000230       ??$forward@ABQAU?$_Tree_node@PAVISDKInMeetingServiceMgrEvent@@PAX@std@@@std@@YAABQAU?$_Tree_node@PAVISDKInMeetingServiceMgrEvent@@PAX@0@ABQAU10@@Z 00401230 f i sdk_util.obj
 0001:00000230       ??$forward@ABU?$less@I@std@@@std@@YAABU?$less@I@0@ABU10@@Z 00401230 f i user_manager.obj
 0001:00000230       ??$forward@ABQAU?$_Tree_node@PAVIMeetingParticipantsCtrlEvent@ZOOMSDK@@PAX@std@@@std@@YAABQAU?$_Tree_node@PAVIMeetingParticipantsCtrlEvent@ZOOMSDK@@PAX@0@ABQAU10@@Z 00401230 f i sdk_util.obj
 0001:00000230       ??$addressof@PAU?$_Tree_node@PAVIPreMeetingServiceEvent@ZOOMSDK@@PAX@std@@@std@@YAPAPAU?$_Tree_node@PAVIPreMeetingServiceEvent@ZOOMSDK@@PAX@0@AAPAU10@@Z 00401230 f i sdk_util.obj
 0001:00000230       ??$forward@ABQAVIUserInfo@ZOOMSDK@@@std@@YAABQAVIUserInfo@ZOOMSDK@@ABQAV12@@Z 00401230 f i user_manager.obj
 0001:00000230       ??$forward@ABQAVIAuthServiceEvent@ZOOMSDK@@@std@@YAABQAVIAuthServiceEvent@ZOOMSDK@@ABQAV12@@Z 00401230 f i sdk_util.obj
 0001:00000230       ??$forward@AAPAU?$_Tree_node@PAVIPreMeetingServiceEvent@ZOOMSDK@@PAX@std@@@std@@YAAAPAU?$_Tree_node@PAVIPreMeetingServiceEvent@ZOOMSDK@@PAX@0@AAPAU10@@Z 00401230 f i sdk_util.obj
 0001:00000230       ??$forward@AAV?$allocator@_W@std@@@std@@YAAAV?$allocator@_W@0@AAV10@@Z 00401230 f i chat_controller_ui.obj
 0001:00000230       ??$_Voidify_iter@PAPAU?$_Tree_node@PAVIMeetingChatCtrlEvent@ZOOMSDK@@PAX@std@@@std@@YAPAXPAPAU?$_Tree_node@PAVIMeetingChatCtrlEvent@ZOOMSDK@@PAX@0@@Z 00401230 f i sdk_util.obj
 0001:00000230       ??$forward@ABQAVIMeetingParticipantsCtrlEvent@ZOOMSDK@@@std@@YAABQAVIMeetingParticipantsCtrlEvent@ZOOMSDK@@ABQAV12@@Z 00401230 f i sdk_util.obj
 0001:00000230       ??$_Get_unwrapped@AAV?$_Tree_unchecked_const_iterator@V?$_Tree_val@U?$_Tree_simple_types@PAVISDKInMeetingServiceMgrEvent@@@std@@@std@@U_Iterator_base0@2@@std@@@std@@YAAAV?$_Tree_unchecked_const_iterator@V?$_Tree_val@U?$_Tree_simple_types@PAVISDKInMeetingServiceMgrEvent@@@std@@@std@@U_Iterator_base0@2@@0@AAV10@@Z 00401230 f i sdk_util.obj
 0001:00000230       ??$forward@ABQAU?$_Tree_node@PAVIAuthServiceEvent@ZOOMSDK@@PAX@std@@@std@@YAABQAU?$_Tree_node@PAVIAuthServiceEvent@ZOOMSDK@@PAX@0@ABQAU10@@Z 00401230 f i sdk_util.obj
 0001:00000230       ??$addressof@PAVIMeetingChatCtrlEvent@ZOOMSDK@@@std@@YAPAPAVIMeetingChatCtrlEvent@ZOOMSDK@@AAPAV12@@Z 00401230 f i sdk_util.obj
 0001:00000230       ??$forward@ABQAVIMeetingVideoCtrlEvent@ZOOMSDK@@@std@@YAABQAVIMeetingVideoCtrlEvent@ZOOMSDK@@ABQAV12@@Z 00401230 f i sdk_util.obj
 0001:00000230       ??$move@AAV?$basic_string@_WU?$char_traits@_W@std@@V?$allocator@_W@2@@std@@@std@@YA$$QAV?$basic_string@_WU?$char_traits@_W@std@@V?$allocator@_W@2@@0@AAV10@@Z 00401230 f i chat_controller_ui.obj
 0001:00000230       ??$_Unfancy@V?$basic_string@_WU?$char_traits@_W@std@@V?$allocator@_W@2@@std@@@std@@YAPAV?$basic_string@_WU?$char_traits@_W@std@@V?$allocator@_W@2@@0@PAV10@@Z 00401230 f i custom_ui_share_flow.obj
 0001:00000230       ??$forward@ABQAVISDKInMeetingServiceMgrEvent@@@std@@YAABQAVISDKInMeetingServiceMgrEvent@@ABQAV1@@Z 00401230 f i sdk_util.obj
 0001:00000230       ??$addressof@V?$_List_val@U?$_List_simple_types@H@std@@@std@@@std@@YAPAV?$_List_val@U?$_List_simple_types@H@std@@@0@AAV10@@Z 00401230 f i participant_ui.obj
 0001:00000230       ??$forward@AAPAU?$_List_node@HPAX@std@@@std@@YAAAPAU?$_List_node@HPAX@0@AAPAU10@@Z 00401230 f i participant_ui.obj
 0001:00000230       ??$forward@V?$_Tree_const_iterator@V?$_Tree_val@U?$_Tree_simple_types@PAVIAuthServiceEvent@ZOOMSDK@@@std@@@std@@@std@@@std@@YA$$QAV?$_Tree_const_iterator@V?$_Tree_val@U?$_Tree_simple_types@PAVIAuthServiceEvent@ZOOMSDK@@@std@@@std@@@0@AAV10@@Z 00401230 f i sdk_util.obj
 0001:00000230       ??$addressof@$$CBV?$_Tree_val@U?$_Tree_simple_types@PAVIMeetingServiceEvent@ZOOMSDK@@@std@@@std@@@std@@YAPBV?$_Tree_val@U?$_Tree_simple_types@PAVIMeetingServiceEvent@ZOOMSDK@@@std@@@0@ABV10@@Z 00401230 f i sdk_util.obj
 0001:00000230       ??$forward@_N@std@@YA$$QA_NAA_N@Z 00401230 f i sdk_util.obj
 0001:00000230       ??$addressof@$$CBV?$_Tree_val@U?$_Tree_simple_types@PAVIPreMeetingServiceEvent@ZOOMSDK@@@std@@@std@@@std@@YAPBV?$_Tree_val@U?$_Tree_simple_types@PAVIPreMeetingServiceEvent@ZOOMSDK@@@std@@@0@ABV10@@Z 00401230 f i sdk_util.obj
 0001:00000230       ?_Extract@?$_In_place_key_extract_set@PAVIMeetingParticipantsCtrlEvent@ZOOMSDK@@PAV12@@std@@SAABQAVIMeetingParticipantsCtrlEvent@ZOOMSDK@@ABQAV34@@Z 00401230 f i sdk_util.obj
 0001:00000240       ??$_Deallocate@$07$0A@@std@@YAXPAXI@Z 00401240 f i AnnotateBarWindow.obj
 0001:000002a0       ??$_Destroy_in_place@PAU?$_Tree_node@PAVIMeetingServiceEvent@ZOOMSDK@@PAX@std@@@std@@YAXAAPAU?$_Tree_node@PAVIMeetingServiceEvent@ZOOMSDK@@PAX@0@@Z 004012a0 f i sdk_util.obj
 0001:000002a0       ?__global_delete@@YAXPAXI@Z 004012a0 f i AnnotateBarWindow.obj
 0001:000002a0       ??$_Adl_verify_range@V?$_Tree_const_iterator@V?$_Tree_val@U?$_Tree_simple_types@PAVIPreMeetingServiceEvent@ZOOMSDK@@@std@@@std@@@std@@V12@@std@@YAXABV?$_Tree_const_iterator@V?$_Tree_val@U?$_Tree_simple_types@PAVIPreMeetingServiceEvent@ZOOMSDK@@@std@@@std@@@0@0@Z 004012a0 f i sdk_util.obj
 0001:000002a0       ??$_Pocca@V?$allocator@_W@std@@@std@@YAXAAV?$allocator@_W@0@ABV10@@Z 004012a0 f i custom_ui_share_flow.obj
 0001:000002a0       ??$destroy@PAVISDKInMeetingServiceMgrEvent@@@?$_Default_allocator_traits@V?$allocator@U?$_Tree_node@PAVISDKInMeetingServiceMgrEvent@@PAX@std@@@std@@@std@@SAXAAV?$allocator@U?$_Tree_node@PAVISDKInMeetingServiceMgrEvent@@PAX@std@@@1@QAPAVISDKInMeetingServiceMgrEvent@@@Z 004012a0 f i sdk_util.obj
 0001:000002a0       ??$_Destroy_range@V?$allocator@PAVIInterpreterInfo@ZOOMSDK@@@std@@@std@@YAXPAPAVIInterpreterInfo@ZOOMSDK@@QAPAV12@AAV?$allocator@PAVIInterpreterInfo@ZOOMSDK@@@0@@Z 004012a0 f i schedule_meeting_ui.obj
 0001:000002a0       ??$_Adl_verify_range@V?$_Tree_unchecked_const_iterator@V?$_Tree_val@U?$_Tree_simple_types@PAVIAuthServiceEvent@ZOOMSDK@@@std@@@std@@U_Iterator_base0@2@@std@@V12@@std@@YAXABV?$_Tree_unchecked_const_iterator@V?$_Tree_val@U?$_Tree_simple_types@PAVIAuthServiceEvent@ZOOMSDK@@@std@@@std@@U_Iterator_base0@2@@0@0@Z 004012a0 f i sdk_util.obj
 0001:000002a0       ??$_Adl_verify_range@V?$_Tree_unchecked_const_iterator@V?$_Tree_val@U?$_Tree_simple_types@PAVIMeetingParticipantsCtrlEvent@ZOOMSDK@@@std@@@std@@U_Iterator_base0@2@@std@@V12@@std@@YAXABV?$_Tree_unchecked_const_iterator@V?$_Tree_val@U?$_Tree_simple_types@PAVIMeetingParticipantsCtrlEvent@ZOOMSDK@@@std@@@std@@U_Iterator_base0@2@@0@0@Z 004012a0 f i sdk_util.obj
 0001:000002a0       ??$_Adl_verify_range@V?$_Tree_unchecked_const_iterator@V?$_Tree_val@U?$_Tree_simple_types@PAVISDKInMeetingServiceMgrEvent@@@std@@@std@@U_Iterator_base0@2@@std@@V12@@std@@YAXABV?$_Tree_unchecked_const_iterator@V?$_Tree_val@U?$_Tree_simple_types@PAVISDKInMeetingServiceMgrEvent@@@std@@@std@@U_Iterator_base0@2@@0@0@Z 004012a0 f i sdk_util.obj
 0001:000002a0       ??$_Adl_verify_range@V?$_Tree_unchecked_const_iterator@V?$_Tree_val@U?$_Tree_simple_types@PAVIClosedCaptionControllerEvent@ZOOMSDK@@@std@@@std@@U_Iterator_base0@2@@std@@V12@@std@@YAXABV?$_Tree_unchecked_const_iterator@V?$_Tree_val@U?$_Tree_simple_types@PAVIClosedCaptionControllerEvent@ZOOMSDK@@@std@@@std@@U_Iterator_base0@2@@0@0@Z 004012a0 f i sdk_util.obj
 0001:000002a0       ??$_Destroy_in_place@PAU?$_Tree_node@PAVIPreMeetingServiceEvent@ZOOMSDK@@PAX@std@@@std@@YAXAAPAU?$_Tree_node@PAVIPreMeetingServiceEvent@ZOOMSDK@@PAX@0@@Z 004012a0 f i sdk_util.obj
 0001:000002a0       ??$destroy@PAVIClosedCaptionControllerEvent@ZOOMSDK@@@?$_Default_allocator_traits@V?$allocator@U?$_Tree_node@PAVIClosedCaptionControllerEvent@ZOOMSDK@@PAX@std@@@std@@@std@@SAXAAV?$allocator@U?$_Tree_node@PAVIClosedCaptionControllerEvent@ZOOMSDK@@PAX@std@@@1@QAPAVIClosedCaptionControllerEvent@ZOOMSDK@@@Z 004012a0 f i sdk_util.obj
 0001:000002a0       ??$GetDefaultValueT@PAVIAlternativeHostInfo@ZOOMSDK@@@@YAXAAPAVIAlternativeHostInfo@ZOOMSDK@@@Z 004012a0 f i schedule_meeting_ui.obj
 0001:000002a0       ?__empty_global_delete@@YAXPAXI@Z 004012a0 f i AnnotateBarWindow.obj
 0001:000002a0       ??$destroy@PAVIMeetingServiceEvent@ZOOMSDK@@@?$_Default_allocator_traits@V?$allocator@U?$_Tree_node@PAVIMeetingServiceEvent@ZOOMSDK@@PAX@std@@@std@@@std@@SAXAAV?$allocator@U?$_Tree_node@PAVIMeetingServiceEvent@ZOOMSDK@@PAX@std@@@1@QAPAVIMeetingServiceEvent@ZOOMSDK@@@Z 004012a0 f i sdk_util.obj
 0001:000002a0       ??$_Adl_verify_range@V?$_Tree_const_iterator@V?$_Tree_val@U?$_Tree_simple_types@PAVIMeetingServiceEvent@ZOOMSDK@@@std@@@std@@@std@@V12@@std@@YAXABV?$_Tree_const_iterator@V?$_Tree_val@U?$_Tree_simple_types@PAVIMeetingServiceEvent@ZOOMSDK@@@std@@@std@@@0@0@Z 004012a0 f i sdk_util.obj
 0001:000002a0       ??$_Adl_verify_range@V?$_Tree_unchecked_const_iterator@V?$_Tree_val@U?$_Tree_simple_types@PAVIPreMeetingServiceEvent@ZOOMSDK@@@std@@@std@@U_Iterator_base0@2@@std@@V12@@std@@YAXABV?$_Tree_unchecked_const_iterator@V?$_Tree_val@U?$_Tree_simple_types@PAVIPreMeetingServiceEvent@ZOOMSDK@@@std@@@std@@U_Iterator_base0@2@@0@0@Z 004012a0 f i sdk_util.obj
 0001:000002a0       ??$_Destroy_in_place@PAU?$_Tree_node@PAVIAuthServiceEvent@ZOOMSDK@@PAX@std@@@std@@YAXAAPAU?$_Tree_node@PAVIAuthServiceEvent@ZOOMSDK@@PAX@0@@Z 004012a0 f i sdk_util.obj
 0001:000002a0       ??$_Destroy_range@V?$allocator@PAVIAlternativeHostInfo@ZOOMSDK@@@std@@@std@@YAXPAPAVIAlternativeHostInfo@ZOOMSDK@@QAPAV12@AAV?$allocator@PAVIAlternativeHostInfo@ZOOMSDK@@@0@@Z 004012a0 f i schedule_meeting_ui.obj
 0001:000002a0       ??$_Destroy_range@V?$allocator@PAVIVirtualBGImageInfo@ZOOMSDK@@@std@@@std@@YAXPAPAVIVirtualBGImageInfo@ZOOMSDK@@QAPAV12@AAV?$allocator@PAVIVirtualBGImageInfo@ZOOMSDK@@@0@@Z 004012a0 f i settings_ui.obj
 0001:000002a0       ??$_Destroy_in_place@PAU?$_Tree_node@PAVIMeetingParticipantsCtrlEvent@ZOOMSDK@@PAX@std@@@std@@YAXAAPAU?$_Tree_node@PAVIMeetingParticipantsCtrlEvent@ZOOMSDK@@PAX@0@@Z 004012a0 f i sdk_util.obj
 0001:000002a0       ??$_Destroy_in_place@PA_W@std@@YAXAAPA_W@Z 004012a0 f i AnnotateBarWindow.obj
 0001:000002a0       ??$_Destroy_in_place@PAU?$_Tree_node@PAVISDKInMeetingServiceMgrEvent@@PAX@std@@@std@@YAXAAPAU?$_Tree_node@PAVISDKInMeetingServiceMgrEvent@@PAX@0@@Z 004012a0 f i sdk_util.obj
 0001:000002a0       ??$_Destroy_in_place@PAU?$_Tree_node@PAVIMeetingChatCtrlEvent@ZOOMSDK@@PAX@std@@@std@@YAXAAPAU?$_Tree_node@PAVIMeetingChatCtrlEvent@ZOOMSDK@@PAX@0@@Z 004012a0 f i sdk_util.obj
 0001:000002a0       ??$destroy@PAVIAuthServiceEvent@ZOOMSDK@@@?$_Default_allocator_traits@V?$allocator@U?$_Tree_node@PAVIAuthServiceEvent@ZOOMSDK@@PAX@std@@@std@@@std@@SAXAAV?$allocator@U?$_Tree_node@PAVIAuthServiceEvent@ZOOMSDK@@PAX@std@@@1@QAPAVIAuthServiceEvent@ZOOMSDK@@@Z 004012a0 f i sdk_util.obj
 0001:000002a0       ??$_Adl_verify_range@V?$_Tree_unchecked_const_iterator@V?$_Tree_val@U?$_Tree_simple_types@PAVIMeetingChatCtrlEvent@ZOOMSDK@@@std@@@std@@U_Iterator_base0@2@@std@@V12@@std@@YAXABV?$_Tree_unchecked_const_iterator@V?$_Tree_val@U?$_Tree_simple_types@PAVIMeetingChatCtrlEvent@ZOOMSDK@@@std@@@std@@U_Iterator_base0@2@@0@0@Z 004012a0 f i sdk_util.obj
 0001:000002a0       ??$_Adl_verify_range@V?$_Tree_const_iterator@V?$_Tree_val@U?$_Tree_simple_types@PAVIClosedCaptionControllerEvent@ZOOMSDK@@@std@@@std@@@std@@V12@@std@@YAXABV?$_Tree_const_iterator@V?$_Tree_val@U?$_Tree_simple_types@PAVIClosedCaptionControllerEvent@ZOOMSDK@@@std@@@std@@@0@0@Z 004012a0 f i sdk_util.obj
 0001:000002a0       ??$destroy@PAVIMeetingParticipantsCtrlEvent@ZOOMSDK@@@?$_Default_allocator_traits@V?$allocator@U?$_Tree_node@PAVIMeetingParticipantsCtrlEvent@ZOOMSDK@@PAX@std@@@std@@@std@@SAXAAV?$allocator@U?$_Tree_node@PAVIMeetingParticipantsCtrlEvent@ZOOMSDK@@PAX@std@@@1@QAPAVIMeetingParticipantsCtrlEvent@ZOOMSDK@@@Z 004012a0 f i sdk_util.obj
 0001:000002a0       ??$_Destroy_in_place@PAU?$_Tree_node@U?$pair@$$CBIPAVIUserInfo@ZOOMSDK@@@std@@PAX@std@@@std@@YAXAAPAU?$_Tree_node@U?$pair@$$CBIPAVIUserInfo@ZOOMSDK@@@std@@PAX@0@@Z 004012a0 f i user_manager.obj
 0001:000002a0       ??$_Adl_verify_range@V?$_Tree_const_iterator@V?$_Tree_val@U?$_Tree_simple_types@PAVIMeetingChatCtrlEvent@ZOOMSDK@@@std@@@std@@@std@@V12@@std@@YAXABV?$_Tree_const_iterator@V?$_Tree_val@U?$_Tree_simple_types@PAVIMeetingChatCtrlEvent@ZOOMSDK@@@std@@@std@@@0@0@Z 004012a0 f i sdk_util.obj
 0001:000002a0       ??$_Adl_verify_range@V?$_Tree_const_iterator@V?$_Tree_val@U?$_Tree_simple_types@PAVIAuthServiceEvent@ZOOMSDK@@@std@@@std@@@std@@V12@@std@@YAXABV?$_Tree_const_iterator@V?$_Tree_val@U?$_Tree_simple_types@PAVIAuthServiceEvent@ZOOMSDK@@@std@@@std@@@0@0@Z 004012a0 f i sdk_util.obj
 0001:000002a0       ??$_Destroy_in_place@PAU?$_Tree_node@U?$pair@$$CBHW4bkItemType@@@std@@PAX@std@@@std@@YAXAAPAU?$_Tree_node@U?$pair@$$CBHW4bkItemType@@@std@@PAX@0@@Z 004012a0 f i settings_ui.obj
 0001:000002a0       ??$_Adl_verify_range@V?$_Tree_const_iterator@V?$_Tree_val@U?$_Tree_simple_types@PAVIMeetingVideoCtrlEvent@ZOOMSDK@@@std@@@std@@@std@@V12@@std@@YAXABV?$_Tree_const_iterator@V?$_Tree_val@U?$_Tree_simple_types@PAVIMeetingVideoCtrlEvent@ZOOMSDK@@@std@@@std@@@0@0@Z 004012a0 f i sdk_util.obj
 0001:000002a0       ??$destroy@PAVIMeetingVideoCtrlEvent@ZOOMSDK@@@?$_Default_allocator_traits@V?$allocator@U?$_Tree_node@PAVIMeetingVideoCtrlEvent@ZOOMSDK@@PAX@std@@@std@@@std@@SAXAAV?$allocator@U?$_Tree_node@PAVIMeetingVideoCtrlEvent@ZOOMSDK@@PAX@std@@@1@QAPAVIMeetingVideoCtrlEvent@ZOOMSDK@@@Z 004012a0 f i sdk_util.obj
 0001:000002a0       ??$destroy@PAVIMeetingChatCtrlEvent@ZOOMSDK@@@?$_Default_allocator_traits@V?$allocator@U?$_Tree_node@PAVIMeetingChatCtrlEvent@ZOOMSDK@@PAX@std@@@std@@@std@@SAXAAV?$allocator@U?$_Tree_node@PAVIMeetingChatCtrlEvent@ZOOMSDK@@PAX@std@@@1@QAPAVIMeetingChatCtrlEvent@ZOOMSDK@@@Z 004012a0 f i sdk_util.obj
 0001:000002a0       ??$_Destroy_in_place@PAU?$_Tree_node@PAVIMeetingVideoCtrlEvent@ZOOMSDK@@PAX@std@@@std@@YAXAAPAU?$_Tree_node@PAVIMeetingVideoCtrlEvent@ZOOMSDK@@PAX@0@@Z 004012a0 f i sdk_util.obj
 0001:000002a0       ??$destroy@U?$pair@$$CBHW4bkItemType@@@std@@@?$_Default_allocator_traits@V?$allocator@U?$_Tree_node@U?$pair@$$CBHW4bkItemType@@@std@@PAX@std@@@std@@@std@@SAXAAV?$allocator@U?$_Tree_node@U?$pair@$$CBHW4bkItemType@@@std@@PAX@std@@@1@QAU?$pair@$$CBHW4bkItemType@@@1@@Z 004012a0 f i settings_ui.obj
 0001:000002a0       ??$_Destroy_range@V?$allocator@PAVIUserInfo@ZOOMSDK@@@std@@@std@@YAXPAPAVIUserInfo@ZOOMSDK@@QAPAV12@AAV?$allocator@PAVIUserInfo@ZOOMSDK@@@0@@Z 004012a0 f i user_manager.obj
 0001:000002a0       ??$GetDefaultValueT@PAVIInterpreterInfo@ZOOMSDK@@@@YAXAAPAVIInterpreterInfo@ZOOMSDK@@@Z 004012a0 f i schedule_meeting_ui.obj
 0001:000002a0       ??$destroy@U?$pair@$$CBIPAVIUserInfo@ZOOMSDK@@@std@@@?$_Default_allocator_traits@V?$allocator@U?$_Tree_node@U?$pair@$$CBIPAVIUserInfo@ZOOMSDK@@@std@@PAX@std@@@std@@@std@@SAXAAV?$allocator@U?$_Tree_node@U?$pair@$$CBIPAVIUserInfo@ZOOMSDK@@@std@@PAX@std@@@1@QAU?$pair@$$CBIPAVIUserInfo@ZOOMSDK@@@1@@Z 004012a0 f i user_manager.obj
 0001:000002a0       ??$destroy@H@?$_Default_allocator_traits@V?$allocator@U?$_List_node@HPAX@std@@@std@@@std@@SAXAAV?$allocator@U?$_List_node@HPAX@std@@@1@QAH@Z 004012a0 f i participant_ui.obj
 0001:000002a0       ??$destroy@PAVIPreMeetingServiceEvent@ZOOMSDK@@@?$_Default_allocator_traits@V?$allocator@U?$_Tree_node@PAVIPreMeetingServiceEvent@ZOOMSDK@@PAX@std@@@std@@@std@@SAXAAV?$allocator@U?$_Tree_node@PAVIPreMeetingServiceEvent@ZOOMSDK@@PAX@std@@@1@QAPAVIPreMeetingServiceEvent@ZOOMSDK@@@Z 004012a0 f i sdk_util.obj
 0001:000002a0       ??$destroy@PAVIUserInfo@ZOOMSDK@@@?$_Default_allocator_traits@V?$allocator@PAVIUserInfo@ZOOMSDK@@@std@@@std@@SAXAAV?$allocator@PAVIUserInfo@ZOOMSDK@@@1@QAPAVIUserInfo@ZOOMSDK@@@Z 004012a0 f i user_manager.obj
 0001:000002a0       ??$_Destroy_in_place@PAU?$_Tree_node@PAVIClosedCaptionControllerEvent@ZOOMSDK@@PAX@std@@@std@@YAXAAPAU?$_Tree_node@PAVIClosedCaptionControllerEvent@ZOOMSDK@@PAX@0@@Z 004012a0 f i sdk_util.obj
 0001:000002a0       ??$_Destroy_in_place@PAU?$_List_node@HPAX@std@@@std@@YAXAAPAU?$_List_node@HPAX@0@@Z 004012a0 f i participant_ui.obj
 0001:000002a0       ??$_Adl_verify_range@V?$_Tree_const_iterator@V?$_Tree_val@U?$_Tree_simple_types@PAVISDKInMeetingServiceMgrEvent@@@std@@@std@@@std@@V12@@std@@YAXABV?$_Tree_const_iterator@V?$_Tree_val@U?$_Tree_simple_types@PAVISDKInMeetingServiceMgrEvent@@@std@@@std@@@0@0@Z 004012a0 f i sdk_util.obj
 0001:000002a0       ??$_Adl_verify_range@V?$_Tree_const_iterator@V?$_Tree_val@U?$_Tree_simple_types@PAVIMeetingParticipantsCtrlEvent@ZOOMSDK@@@std@@@std@@@std@@V12@@std@@YAXABV?$_Tree_const_iterator@V?$_Tree_val@U?$_Tree_simple_types@PAVIMeetingParticipantsCtrlEvent@ZOOMSDK@@@std@@@std@@@0@0@Z 004012a0 f i sdk_util.obj
 0001:000002a0       ??$_Adl_verify_range@V?$_Tree_unchecked_const_iterator@V?$_Tree_val@U?$_Tree_simple_types@PAVIMeetingServiceEvent@ZOOMSDK@@@std@@@std@@U_Iterator_base0@2@@std@@V12@@std@@YAXABV?$_Tree_unchecked_const_iterator@V?$_Tree_val@U?$_Tree_simple_types@PAVIMeetingServiceEvent@ZOOMSDK@@@std@@@std@@U_Iterator_base0@2@@0@0@Z 004012a0 f i sdk_util.obj
 0001:000002b0       ??$_Get_size_of_n@$01@std@@YAII@Z 004012b0 f i AnnotateBarWindow.obj
 0001:000002e0       ??$_Reallocate_for@V<lambda_03628ca18370b1f44a99b655e704819b>@@PB_W@?$basic_string@_WU?$char_traits@_W@std@@V?$allocator@_W@2@@std@@AAEAAV01@IV<lambda_03628ca18370b1f44a99b655e704819b>@@PB_W@Z 004012e0 f i AnnotateBarWindow.obj
 0001:000003b0       ??$_Traits_equal@U?$char_traits@_W@std@@@std@@YA_NQB_WI0I@Z 004013b0 f i AnnotateBarWindow.obj
 0001:000003f0       ??$max@I@std@@YAABIABI0@Z  004013f0 f i AnnotateBarWindow.obj
 0001:000003f0       ??$max@PA_W@std@@YAABQA_WABQA_W0@Z 004013f0 f i schedule_meeting_ui.obj
 0001:00000420       ??$min@I@std@@YAABIABI0@Z  00401420 f i AnnotateBarWindow.obj
 0001:00000450       ??0?$_String_val@U?$_Simple_types@_W@std@@@std@@QAE@XZ 00401450 f i AnnotateBarWindow.obj
 0001:00000480       ?_Get_first@?$_Compressed_pair@U?$less@PAVIMeetingChatCtrlEvent@ZOOMSDK@@@std@@V?$_Compressed_pair@V?$allocator@U?$_Tree_node@PAVIMeetingChatCtrlEvent@ZOOMSDK@@PAX@std@@@std@@V?$_Tree_val@U?$_Tree_simple_types@PAVIMeetingChatCtrlEvent@ZOOMSDK@@@std@@@2@$00@2@$00@std@@QBEABU?$less@PAVIMeetingChatCtrlEvent@ZOOMSDK@@@2@XZ 00401480 f i sdk_util.obj
 0001:00000480       ?_Get_first@?$_Compressed_pair@V?$allocator@U?$_Tree_node@PAVIMeetingServiceEvent@ZOOMSDK@@PAX@std@@@std@@V?$_Tree_val@U?$_Tree_simple_types@PAVIMeetingServiceEvent@ZOOMSDK@@@std@@@2@$00@std@@QAEAAV?$allocator@U?$_Tree_node@PAVIMeetingServiceEvent@ZOOMSDK@@PAX@std@@@2@XZ 00401480 f i sdk_util.obj
 0001:00000480       ?_Get_first@?$_Compressed_pair@V?$allocator@U?$_List_node@HPAX@std@@@std@@V?$_List_val@U?$_List_simple_types@H@std@@@2@$00@std@@QAEAAV?$allocator@U?$_List_node@HPAX@std@@@2@XZ 00401480 f i participant_ui.obj
 0001:00000480       ??0?$allocator@U?$_Tree_node@PAVIMeetingChatCtrlEvent@ZOOMSDK@@PAX@std@@@std@@QAE@XZ 00401480 f i sdk_util.obj
 0001:00000480       ?_Get_first@?$_Compressed_pair@V?$allocator@U?$_Tree_node@PAVIClosedCaptionControllerEvent@ZOOMSDK@@PAX@std@@@std@@V?$_Tree_val@U?$_Tree_simple_types@PAVIClosedCaptionControllerEvent@ZOOMSDK@@@std@@@2@$00@std@@QAEAAV?$allocator@U?$_Tree_node@PAVIClosedCaptionControllerEvent@ZOOMSDK@@PAX@std@@@2@XZ 00401480 f i sdk_util.obj
 0001:00000480       ?_Get_first@?$_Compressed_pair@V?$allocator@PAVIUserInfo@ZOOMSDK@@@std@@V?$_Vector_val@U?$_Simple_types@PAVIUserInfo@ZOOMSDK@@@std@@@2@$00@std@@QBEABV?$allocator@PAVIUserInfo@ZOOMSDK@@@2@XZ 00401480 f i user_manager.obj
 0001:00000480       ??0?$allocator@U?$_Tree_node@PAVIMeetingParticipantsCtrlEvent@ZOOMSDK@@PAX@std@@@std@@QAE@XZ 00401480 f i sdk_util.obj
 0001:00000480       ??0_Bxty@?$_String_val@U?$_Simple_types@_W@std@@@std@@QAE@XZ 00401480 f i AnnotateBarWindow.obj
 0001:00000480       ?_Get_first@?$_Compressed_pair@V?$allocator@U?$_Tree_node@U?$pair@$$CBHW4bkItemType@@@std@@PAX@std@@@std@@V?$_Tree_val@U?$_Tree_simple_types@U?$pair@$$CBHW4bkItemType@@@std@@@std@@@2@$00@std@@QBEABV?$allocator@U?$_Tree_node@U?$pair@$$CBHW4bkItemType@@@std@@PAX@std@@@2@XZ 00401480 f i settings_ui.obj
 0001:00000480       ?_Get_first@?$_Compressed_pair@U?$less@I@std@@V?$_Compressed_pair@V?$allocator@U?$_Tree_node@U?$pair@$$CBIPAVIUserInfo@ZOOMSDK@@@std@@PAX@std@@@std@@V?$_Tree_val@U?$_Tree_simple_types@U?$pair@$$CBIPAVIUserInfo@ZOOMSDK@@@std@@@std@@@2@$00@2@$00@std@@QBEABU?$less@I@2@XZ 00401480 f i user_manager.obj
 0001:00000480       ?_Get_first@?$_Compressed_pair@V?$allocator@U?$_Tree_node@PAVIMeetingServiceEvent@ZOOMSDK@@PAX@std@@@std@@V?$_Tree_val@U?$_Tree_simple_types@PAVIMeetingServiceEvent@ZOOMSDK@@@std@@@2@$00@std@@QBEABV?$allocator@U?$_Tree_node@PAVIMeetingServiceEvent@ZOOMSDK@@PAX@std@@@2@XZ 00401480 f i sdk_util.obj
 0001:00000480       ?_Get_first@?$_Compressed_pair@U?$less@PAVIClosedCaptionControllerEvent@ZOOMSDK@@@std@@V?$_Compressed_pair@V?$allocator@U?$_Tree_node@PAVIClosedCaptionControllerEvent@ZOOMSDK@@PAX@std@@@std@@V?$_Tree_val@U?$_Tree_simple_types@PAVIClosedCaptionControllerEvent@ZOOMSDK@@@std@@@2@$00@2@$00@std@@QBEABU?$less@PAVIClosedCaptionControllerEvent@ZOOMSDK@@@2@XZ 00401480 f i sdk_util.obj
 0001:00000480       ?_Get_first@?$_Compressed_pair@V?$allocator@V?$basic_string@_WU?$char_traits@_W@std@@V?$allocator@_W@2@@std@@@std@@V?$_Vector_val@U?$_Simple_types@V?$basic_string@_WU?$char_traits@_W@std@@V?$allocator@_W@2@@std@@@std@@@2@$00@std@@QBEABV?$allocator@V?$basic_string@_WU?$char_traits@_W@std@@V?$allocator@_W@2@@std@@@2@XZ 00401480 f i custom_ui_share_flow.obj
 0001:00000480       ??0?$allocator@U?$_Tree_node@PAVIAuthServiceEvent@ZOOMSDK@@PAX@std@@@std@@QAE@XZ 00401480 f i sdk_util.obj
 0001:00000480       ?_Get_first@?$_Compressed_pair@V?$allocator@V?$basic_string@_WU?$char_traits@_W@std@@V?$allocator@_W@2@@std@@@std@@V?$_Vector_val@U?$_Simple_types@V?$basic_string@_WU?$char_traits@_W@std@@V?$allocator@_W@2@@std@@@std@@@2@$00@std@@QAEAAV?$allocator@V?$basic_string@_WU?$char_traits@_W@std@@V?$allocator@_W@2@@std@@@2@XZ 00401480 f i custom_ui_share_flow.obj
 0001:00000480       ??0?$allocator@U?$_Tree_node@PAVISDKInMeetingServiceMgrEvent@@PAX@std@@@std@@QAE@XZ 00401480 f i sdk_util.obj
 0001:00000480       ?_Get_first@?$_Compressed_pair@V?$allocator@PAVIVirtualBGImageInfo@ZOOMSDK@@@std@@V?$_Vector_val@U?$_Simple_types@PAVIVirtualBGImageInfo@ZOOMSDK@@@std@@@2@$00@std@@QAEAAV?$allocator@PAVIVirtualBGImageInfo@ZOOMSDK@@@2@XZ 00401480 f i settings_ui.obj
 0001:00000480       ?_Get_first@?$_Compressed_pair@U?$less@H@std@@V?$_Compressed_pair@V?$allocator@U?$_Tree_node@U?$pair@$$CBHW4bkItemType@@@std@@PAX@std@@@std@@V?$_Tree_val@U?$_Tree_simple_types@U?$pair@$$CBHW4bkItemType@@@std@@@std@@@2@$00@2@$00@std@@QBEABU?$less@H@2@XZ 00401480 f i settings_ui.obj
 0001:00000480       ??0?$allocator@PAVIAlternativeHostInfo@ZOOMSDK@@@std@@QAE@XZ 00401480 f i schedule_meeting_ui.obj
 0001:00000480       ?_Get_first@?$_Compressed_pair@V?$allocator@U?$_Tree_node@U?$pair@$$CBIPAVIUserInfo@ZOOMSDK@@@std@@PAX@std@@@std@@V?$_Tree_val@U?$_Tree_simple_types@U?$pair@$$CBIPAVIUserInfo@ZOOMSDK@@@std@@@std@@@2@$00@std@@QAEAAV?$allocator@U?$_Tree_node@U?$pair@$$CBIPAVIUserInfo@ZOOMSDK@@@std@@PAX@std@@@2@XZ 00401480 f i user_manager.obj
 0001:00000480       ?_Get_first@?$_Compressed_pair@V?$allocator@PAVIVirtualBGImageInfo@ZOOMSDK@@@std@@V?$_Vector_val@U?$_Simple_types@PAVIVirtualBGImageInfo@ZOOMSDK@@@std@@@2@$00@std@@QBEABV?$allocator@PAVIVirtualBGImageInfo@ZOOMSDK@@@2@XZ 00401480 f i settings_ui.obj
 0001:00000480       ?_Get_first@?$_Compressed_pair@V?$allocator@U?$_Tree_node@PAVIMeetingParticipantsCtrlEvent@ZOOMSDK@@PAX@std@@@std@@V?$_Tree_val@U?$_Tree_simple_types@PAVIMeetingParticipantsCtrlEvent@ZOOMSDK@@@std@@@2@$00@std@@QAEAAV?$allocator@U?$_Tree_node@PAVIMeetingParticipantsCtrlEvent@ZOOMSDK@@PAX@std@@@2@XZ 00401480 f i sdk_util.obj
 0001:00000480       ?GetMarkup@CDialogBuilder@DuiLib@@QAEPAVCMarkup@2@XZ 00401480 f i DuiLib:UIDlgBuilder.obj
 0001:00000480       ?_Get_first@?$_Compressed_pair@V?$allocator@U?$_Tree_node@PAVIPreMeetingServiceEvent@ZOOMSDK@@PAX@std@@@std@@V?$_Tree_val@U?$_Tree_simple_types@PAVIPreMeetingServiceEvent@ZOOMSDK@@@std@@@2@$00@std@@QBEABV?$allocator@U?$_Tree_node@PAVIPreMeetingServiceEvent@ZOOMSDK@@PAX@std@@@2@XZ 00401480 f i sdk_util.obj
 0001:00000480       ??0?$allocator@PAVIInterpreterInfo@ZOOMSDK@@@std@@QAE@XZ 00401480 f i schedule_meeting_ui.obj
 0001:00000480       ??0?$allocator@U?$_Tree_node@PAVIMeetingServiceEvent@ZOOMSDK@@PAX@std@@@std@@QAE@XZ 00401480 f i sdk_util.obj
 0001:00000480       ?_Get_first@?$_Compressed_pair@V?$allocator@PAVIAlternativeHostInfo@ZOOMSDK@@@std@@V?$_Vector_val@U?$_Simple_types@PAVIAlternativeHostInfo@ZOOMSDK@@@std@@@2@$00@std@@QBEABV?$allocator@PAVIAlternativeHostInfo@ZOOMSDK@@@2@XZ 00401480 f i schedule_meeting_ui.obj
 0001:00000480       ??0?$allocator@U?$_Tree_node@PAVIMeetingVideoCtrlEvent@ZOOMSDK@@PAX@std@@@std@@QAE@XZ 00401480 f i sdk_util.obj
 0001:00000480       ??0?$allocator@V?$basic_string@_WU?$char_traits@_W@std@@V?$allocator@_W@2@@std@@@std@@QAE@XZ 00401480 f i custom_ui_share_flow.obj
 0001:00000480       ?_Get_first@?$_Compressed_pair@V?$allocator@U?$_Tree_node@PAVIMeetingParticipantsCtrlEvent@ZOOMSDK@@PAX@std@@@std@@V?$_Tree_val@U?$_Tree_simple_types@PAVIMeetingParticipantsCtrlEvent@ZOOMSDK@@@std@@@2@$00@std@@QBEABV?$allocator@U?$_Tree_node@PAVIMeetingParticipantsCtrlEvent@ZOOMSDK@@PAX@std@@@2@XZ 00401480 f i sdk_util.obj
 0001:00000480       ?_Get_first@?$_Compressed_pair@V?$allocator@_W@std@@V?$_String_val@U?$_Simple_types@_W@std@@@2@$00@std@@QAEAAV?$allocator@_W@2@XZ 00401480 f i AnnotateBarWindow.obj
 0001:00000480       ?_Get_first@?$_Compressed_pair@V?$allocator@PAVIUserInfo@ZOOMSDK@@@std@@V?$_Vector_val@U?$_Simple_types@PAVIUserInfo@ZOOMSDK@@@std@@@2@$00@std@@QAEAAV?$allocator@PAVIUserInfo@ZOOMSDK@@@2@XZ 00401480 f i user_manager.obj
 0001:00000480       ??0?$allocator@U?$_Tree_node@U?$pair@$$CBIPAVIUserInfo@ZOOMSDK@@@std@@PAX@std@@@std@@QAE@XZ 00401480 f i user_manager.obj
 0001:00000480       ?_Get_first@?$_Compressed_pair@V?$allocator@U?$_Tree_node@PAVISDKInMeetingServiceMgrEvent@@PAX@std@@@std@@V?$_Tree_val@U?$_Tree_simple_types@PAVISDKInMeetingServiceMgrEvent@@@std@@@2@$00@std@@QAEAAV?$allocator@U?$_Tree_node@PAVISDKInMeetingServiceMgrEvent@@PAX@std@@@2@XZ 00401480 f i sdk_util.obj
 0001:00000480       ?_Get_first@?$_Compressed_pair@U?$less@PAVIMeetingParticipantsCtrlEvent@ZOOMSDK@@@std@@V?$_Compressed_pair@V?$allocator@U?$_Tree_node@PAVIMeetingParticipantsCtrlEvent@ZOOMSDK@@PAX@std@@@std@@V?$_Tree_val@U?$_Tree_simple_types@PAVIMeetingParticipantsCtrlEvent@ZOOMSDK@@@std@@@2@$00@2@$00@std@@QBEABU?$less@PAVIMeetingParticipantsCtrlEvent@ZOOMSDK@@@2@XZ 00401480 f i sdk_util.obj
 0001:00000480       ?_Get_first@?$_Compressed_pair@V?$allocator@PAVIInterpreterInfo@ZOOMSDK@@@std@@V?$_Vector_val@U?$_Simple_types@PAVIInterpreterInfo@ZOOMSDK@@@std@@@2@$00@std@@QBEABV?$allocator@PAVIInterpreterInfo@ZOOMSDK@@@2@XZ 00401480 f i schedule_meeting_ui.obj
 0001:00000480       ?_Get_first@?$_Compressed_pair@V?$allocator@_W@std@@V?$_String_val@U?$_Simple_types@_W@std@@@2@$00@std@@QBEABV?$allocator@_W@2@XZ 00401480 f i AnnotateBarWindow.obj
 0001:00000480       ?_Get_first@?$_Compressed_pair@V?$allocator@U?$_Tree_node@PAVIMeetingChatCtrlEvent@ZOOMSDK@@PAX@std@@@std@@V?$_Tree_val@U?$_Tree_simple_types@PAVIMeetingChatCtrlEvent@ZOOMSDK@@@std@@@2@$00@std@@QBEABV?$allocator@U?$_Tree_node@PAVIMeetingChatCtrlEvent@ZOOMSDK@@PAX@std@@@2@XZ 00401480 f i sdk_util.obj
 0001:00000480       ??0?$allocator@PAVIVirtualBGImageInfo@ZOOMSDK@@@std@@QAE@XZ 00401480 f i settings_ui.obj
 0001:00000480       ?_Get_first@?$_Compressed_pair@V?$allocator@U?$_List_node@HPAX@std@@@std@@V?$_List_val@U?$_List_simple_types@H@std@@@2@$00@std@@QBEABV?$allocator@U?$_List_node@HPAX@std@@@2@XZ 00401480 f i participant_ui.obj
 0001:00000480       ?_Get_first@?$_Compressed_pair@V?$allocator@U?$_Tree_node@PAVISDKInMeetingServiceMgrEvent@@PAX@std@@@std@@V?$_Tree_val@U?$_Tree_simple_types@PAVISDKInMeetingServiceMgrEvent@@@std@@@2@$00@std@@QBEABV?$allocator@U?$_Tree_node@PAVISDKInMeetingServiceMgrEvent@@PAX@std@@@2@XZ 00401480 f i sdk_util.obj
 0001:00000480       ?_Get_first@?$_Compressed_pair@V?$allocator@PAVIAlternativeHostInfo@ZOOMSDK@@@std@@V?$_Vector_val@U?$_Simple_types@PAVIAlternativeHostInfo@ZOOMSDK@@@std@@@2@$00@std@@QAEAAV?$allocator@PAVIAlternativeHostInfo@ZOOMSDK@@@2@XZ 00401480 f i schedule_meeting_ui.obj
 0001:00000480       ?_Get_first@?$_Compressed_pair@V?$allocator@U?$_Tree_node@PAVIAuthServiceEvent@ZOOMSDK@@PAX@std@@@std@@V?$_Tree_val@U?$_Tree_simple_types@PAVIAuthServiceEvent@ZOOMSDK@@@std@@@2@$00@std@@QAEAAV?$allocator@U?$_Tree_node@PAVIAuthServiceEvent@ZOOMSDK@@PAX@std@@@2@XZ 00401480 f i sdk_util.obj
 0001:00000480       ??0?$allocator@PAVIUserInfo@ZOOMSDK@@@std@@QAE@XZ 00401480 f i user_manager.obj
 0001:00000480       ?_Get_first@?$_Compressed_pair@V?$allocator@U?$_Tree_node@U?$pair@$$CBHW4bkItemType@@@std@@PAX@std@@@std@@V?$_Tree_val@U?$_Tree_simple_types@U?$pair@$$CBHW4bkItemType@@@std@@@std@@@2@$00@std@@QAEAAV?$allocator@U?$_Tree_node@U?$pair@$$CBHW4bkItemType@@@std@@PAX@std@@@2@XZ 00401480 f i settings_ui.obj
 0001:00000480       ?_Get_first@?$_Compressed_pair@V?$allocator@U?$_Tree_node@PAVIClosedCaptionControllerEvent@ZOOMSDK@@PAX@std@@@std@@V?$_Tree_val@U?$_Tree_simple_types@PAVIClosedCaptionControllerEvent@ZOOMSDK@@@std@@@2@$00@std@@QBEABV?$allocator@U?$_Tree_node@PAVIClosedCaptionControllerEvent@ZOOMSDK@@PAX@std@@@2@XZ 00401480 f i sdk_util.obj
 0001:00000480       ?_Get_first@?$_Compressed_pair@U?$less@PAVIMeetingVideoCtrlEvent@ZOOMSDK@@@std@@V?$_Compressed_pair@V?$allocator@U?$_Tree_node@PAVIMeetingVideoCtrlEvent@ZOOMSDK@@PAX@std@@@std@@V?$_Tree_val@U?$_Tree_simple_types@PAVIMeetingVideoCtrlEvent@ZOOMSDK@@@std@@@2@$00@2@$00@std@@QBEABU?$less@PAVIMeetingVideoCtrlEvent@ZOOMSDK@@@2@XZ 00401480 f i sdk_util.obj
 0001:00000480       ?_Get_first@?$_Compressed_pair@V?$allocator@U?$_Tree_node@PAVIAuthServiceEvent@ZOOMSDK@@PAX@std@@@std@@V?$_Tree_val@U?$_Tree_simple_types@PAVIAuthServiceEvent@ZOOMSDK@@@std@@@2@$00@std@@QBEABV?$allocator@U?$_Tree_node@PAVIAuthServiceEvent@ZOOMSDK@@PAX@std@@@2@XZ 00401480 f i sdk_util.obj
 0001:00000480       ?_Get_first@?$_Compressed_pair@U?$less@PAVIMeetingServiceEvent@ZOOMSDK@@@std@@V?$_Compressed_pair@V?$allocator@U?$_Tree_node@PAVIMeetingServiceEvent@ZOOMSDK@@PAX@std@@@std@@V?$_Tree_val@U?$_Tree_simple_types@PAVIMeetingServiceEvent@ZOOMSDK@@@std@@@2@$00@2@$00@std@@QBEABU?$less@PAVIMeetingServiceEvent@ZOOMSDK@@@2@XZ 00401480 f i sdk_util.obj
 0001:00000480       ??0CMoreFeaturesWorkflow@@QAE@XZ 00401480 f i more_features_workflow.obj
 0001:00000480       ??0?$allocator@U?$_Tree_node@PAVIClosedCaptionControllerEvent@ZOOMSDK@@PAX@std@@@std@@QAE@XZ 00401480 f i sdk_util.obj
 0001:00000480       ?_Get_first@?$_Compressed_pair@V?$allocator@U?$_Tree_node@PAVIMeetingChatCtrlEvent@ZOOMSDK@@PAX@std@@@std@@V?$_Tree_val@U?$_Tree_simple_types@PAVIMeetingChatCtrlEvent@ZOOMSDK@@@std@@@2@$00@std@@QAEAAV?$allocator@U?$_Tree_node@PAVIMeetingChatCtrlEvent@ZOOMSDK@@PAX@std@@@2@XZ 00401480 f i sdk_util.obj
 0001:00000480       ??0?$allocator@U?$_Tree_node@U?$pair@$$CBHW4bkItemType@@@std@@PAX@std@@@std@@QAE@XZ 00401480 f i settings_ui.obj
 0001:00000480       ??0?$allocator@U?$_Tree_node@PAVIPreMeetingServiceEvent@ZOOMSDK@@PAX@std@@@std@@QAE@XZ 00401480 f i sdk_util.obj
 0001:00000480       ?_Get_first@?$_Compressed_pair@U?$less@PAVISDKInMeetingServiceMgrEvent@@@std@@V?$_Compressed_pair@V?$allocator@U?$_Tree_node@PAVISDKInMeetingServiceMgrEvent@@PAX@std@@@std@@V?$_Tree_val@U?$_Tree_simple_types@PAVISDKInMeetingServiceMgrEvent@@@std@@@2@$00@2@$00@std@@QBEABU?$less@PAVISDKInMeetingServiceMgrEvent@@@2@XZ 00401480 f i sdk_util.obj
 0001:00000480       ?_Get_first@?$_Compressed_pair@U?$less@PAVIAuthServiceEvent@ZOOMSDK@@@std@@V?$_Compressed_pair@V?$allocator@U?$_Tree_node@PAVIAuthServiceEvent@ZOOMSDK@@PAX@std@@@std@@V?$_Tree_val@U?$_Tree_simple_types@PAVIAuthServiceEvent@ZOOMSDK@@@std@@@2@$00@2@$00@std@@QBEABU?$less@PAVIAuthServiceEvent@ZOOMSDK@@@2@XZ 00401480 f i sdk_util.obj
 0001:00000480       ?_Get_first@?$_Compressed_pair@U?$less@PAVIPreMeetingServiceEvent@ZOOMSDK@@@std@@V?$_Compressed_pair@V?$allocator@U?$_Tree_node@PAVIPreMeetingServiceEvent@ZOOMSDK@@PAX@std@@@std@@V?$_Tree_val@U?$_Tree_simple_types@PAVIPreMeetingServiceEvent@ZOOMSDK@@@std@@@2@$00@2@$00@std@@QBEABU?$less@PAVIPreMeetingServiceEvent@ZOOMSDK@@@2@XZ 00401480 f i sdk_util.obj
 0001:00000480       ??0?$allocator@_W@std@@QAE@XZ 00401480 f i AnnotateBarWindow.obj
 0001:00000480       ?_Get_first@?$_Compressed_pair@V?$allocator@U?$_Tree_node@PAVIMeetingVideoCtrlEvent@ZOOMSDK@@PAX@std@@@std@@V?$_Tree_val@U?$_Tree_simple_types@PAVIMeetingVideoCtrlEvent@ZOOMSDK@@@std@@@2@$00@std@@QBEABV?$allocator@U?$_Tree_node@PAVIMeetingVideoCtrlEvent@ZOOMSDK@@PAX@std@@@2@XZ 00401480 f i sdk_util.obj
 0001:00000480       ?_Get_first@?$_Compressed_pair@V?$allocator@U?$_Tree_node@U?$pair@$$CBIPAVIUserInfo@ZOOMSDK@@@std@@PAX@std@@@std@@V?$_Tree_val@U?$_Tree_simple_types@U?$pair@$$CBIPAVIUserInfo@ZOOMSDK@@@std@@@std@@@2@$00@std@@QBEABV?$allocator@U?$_Tree_node@U?$pair@$$CBIPAVIUserInfo@ZOOMSDK@@@std@@PAX@std@@@2@XZ 00401480 f i user_manager.obj
 0001:00000480       ?_Get_first@?$_Compressed_pair@V?$allocator@U?$_Tree_node@PAVIMeetingVideoCtrlEvent@ZOOMSDK@@PAX@std@@@std@@V?$_Tree_val@U?$_Tree_simple_types@PAVIMeetingVideoCtrlEvent@ZOOMSDK@@@std@@@2@$00@std@@QAEAAV?$allocator@U?$_Tree_node@PAVIMeetingVideoCtrlEvent@ZOOMSDK@@PAX@std@@@2@XZ 00401480 f i sdk_util.obj
 0001:00000480       ??0?$allocator@U?$_List_node@HPAX@std@@@std@@QAE@XZ 00401480 f i participant_ui.obj
 0001:00000480       ?_Get_first@?$_Compressed_pair@V?$allocator@U?$_Tree_node@PAVIPreMeetingServiceEvent@ZOOMSDK@@PAX@std@@@std@@V?$_Tree_val@U?$_Tree_simple_types@PAVIPreMeetingServiceEvent@ZOOMSDK@@@std@@@2@$00@std@@QAEAAV?$allocator@U?$_Tree_node@PAVIPreMeetingServiceEvent@ZOOMSDK@@PAX@std@@@2@XZ 00401480 f i sdk_util.obj
 0001:00000480       ?_Get_first@?$_Compressed_pair@V?$allocator@PAVIInterpreterInfo@ZOOMSDK@@@std@@V?$_Vector_val@U?$_Simple_types@PAVIInterpreterInfo@ZOOMSDK@@@std@@@2@$00@std@@QAEAAV?$allocator@PAVIInterpreterInfo@ZOOMSDK@@@2@XZ 00401480 f i schedule_meeting_ui.obj
 0001:00000490       ??0?$basic_string@_WU?$char_traits@_W@std@@V?$allocator@_W@2@@std@@QAE@QB_W@Z 00401490 f i AnnotateBarWindow.obj
 0001:00000520       ??0AnnotateBarWindow@@QAE@PAVICustomizedShareRender@ZOOMSDK@@@Z 00401520 f   AnnotateBarWindow.obj
 0001:00000680       ??0CComCriticalSection@ATL@@QAE@XZ 00401680 f i AnnotateBarWindow.obj
 0001:000006b0       ??0INotifyUI@DuiLib@@QAE@XZ 004016b0 f i AnnotateBarWindow.obj
 0001:000006d0       ??0_Fake_proxy_ptr_impl@std@@QAE@ABU_Fake_allocator@1@ABU_Container_base0@1@@Z 004016d0 f i AnnotateBarWindow.obj
 0001:000006e0       ??0bad_alloc@std@@AAE@QBD@Z 004016e0 f i AnnotateBarWindow.obj
 0001:00000710       ??0bad_alloc@std@@QAE@ABV01@@Z 00401710 f i AnnotateBarWindow.obj
 0001:00000740       ??0bad_array_new_length@std@@QAE@ABV01@@Z 00401740 f i AnnotateBarWindow.obj
 0001:00000770       ??0bad_array_new_length@std@@QAE@XZ 00401770 f i AnnotateBarWindow.obj
 0001:000007a0       ??0exception@std@@QAE@ABV01@@Z 004017a0 f i AnnotateBarWindow.obj
 0001:000007e0       ??0exception@std@@QAE@QBDH@Z 004017e0 f i AnnotateBarWindow.obj
 0001:00000810       ??1?$_Compressed_pair@V?$allocator@_W@std@@V?$_String_val@U?$_Simple_types@_W@std@@@2@$00@std@@QAE@XZ 00401810 f i AnnotateBarWindow.obj
 0001:00000830       ??1?$_String_val@U?$_Simple_types@_W@std@@@std@@QAE@XZ 00401830 f i AnnotateBarWindow.obj
 0001:00000850       ??1?$basic_string@_WU?$char_traits@_W@std@@V?$allocator@_W@2@@std@@QAE@XZ 00401850 f i AnnotateBarWindow.obj
 0001:00000870       ??1AnnotateBarWindow@@QAE@XZ 00401870 f   AnnotateBarWindow.obj
 0001:00000a70       ??1CMoreFeaturesWorkflow@@QAE@XZ 00401a70 f i more_features_workflow.obj
 0001:00000a70       ?CleanUp@CSDKFeatureCustomSettingsWorkFlow@@QAEXXZ 00401a70 f i settings_ui.obj
 0001:00000a70       ??1_Bxty@?$_String_val@U?$_Simple_types@_W@std@@@std@@QAE@XZ 00401a70 f i AnnotateBarWindow.obj
 0001:00000a70       ?Cleanup@CSDKAudioSettingsWorkFlow@@QAEXXZ 00401a70 f i settings_ui.obj
 0001:00000a70       ?Cleanup@CSDKRestAPIUserWorkFlow@@QAEXXZ 00401a70 f i LOGIN_sdk_login_UI.obj
 0001:00000a70       ?OnNoVideoDeviceIsUseful@CSDKCustomUIWorkFlow@@UAEXXZ 00401a70 f i custom_ui_mgr_flow.obj
 0001:00000a70       ?DoStopDirectShareBtnClick@CSDKLoggedInUIMgr@@IAEXXZ 00401a70 f i LoggedIn_sdk_controller_ui.obj
 0001:00000a70       ?onLogout@CAuthSDKWorkFlow@@UAEXXZ 00401a70 f i init_auth_sdk_workflow.obj
 0001:00000a70       ?CustomizeDemoResource@CInitSDKWorkFlow@@QAEXXZ 00401a70 f i init_auth_sdk_workflow.obj
 0001:00000a70       ?onLogout@CSDKWithoutLoginStartJoinMeetingFlow@@UAEXXZ 00401a70 f i LOGIN_join_meeting_only_workflow.obj
 0001:00000a70       ?onParticipantListBtnClicked@CSDKCustomUIWorkFlow@@UAEXXZ 00401a70 f i custom_ui_mgr_flow.obj
 0001:00000a70       ?onZoomIdentityExpired@CSDKLoginCBHandler@@UAEXXZ 00401a70 f i LOGIN_sdk_login_UI.obj
 0001:00000a70       ??1CComCriticalSection@ATL@@QAE@XZ 00401a70 f i AnnotateBarWindow.obj
 0001:00000a70       ?onAudioMenuBtnClicked@CSDKCustomUIWorkFlow@@UAEXXZ 00401a70 f i custom_ui_mgr_flow.obj
 0001:00000a70       ?onLogout@CSDKLoginCBHandler@@UAEXXZ 00401a70 f i LOGIN_sdk_login_UI.obj
 0001:00000a70       ?onSharingContentStartRecving@CCustomizeInMeetingUIMgr@@UAEXXZ 00401a70 f i custom_ui_mgr.obj
 0001:00000a70       ?onZoomAuthIdentityExpired@CAuthSDKWorkFlow@@UAEXXZ 00401a70 f i init_auth_sdk_workflow.obj
 0001:00000a70       ?Cleanup@CSDKGeneralSettingsWorkFlow@@QAEXXZ 00401a70 f i settings_ui.obj
 0001:00000a70       ?Cleanup@CSDKWithoutLoginStartJoinMeetingFlow@@QAEXXZ 00401a70 f i LOGIN_sdk_login_UI.obj
 0001:00000a70       ?Cleanup@CAuthSDKWorkFlow@@QAEXXZ 00401a70 f i sdk_init_auth_ui.obj
 0001:00000a70       ?onZoomIdentityExpired@CAuthSDKWorkFlow@@UAEXXZ 00401a70 f i init_auth_sdk_workflow.obj
 0001:00000a70       ?_Release@_Fake_proxy_ptr_impl@std@@QAEXXZ 00401a70 f i AnnotateBarWindow.obj
 0001:00000a70       ?Cleanup@CSDKVideoSettingsWorkFlow@@QAEXXZ 00401a70 f i settings_ui.obj
 0001:00000a70       ?OnSelectedVideoDeviceIsChanged@CSDKVirtualBGSettingsWorkFlow@@UAEXXZ 00401a70 f i SETTINGS_virtualBG_workflow.obj
 0001:00000a70       ?onZoomInviteDialogFailed@CSDKCustomUIWorkFlow@@UAEXXZ 00401a70 f i custom_ui_mgr_flow.obj
 0001:00000a70       ?onZoomAuthIdentityExpired@CSDKLoginCBHandler@@UAEXXZ 00401a70 f i LOGIN_sdk_login_UI.obj
 0001:00000a70       ?onBreakoutRoomBtnClicked@CSDKCustomUIWorkFlow@@UAEXXZ 00401a70 f i custom_ui_mgr_flow.obj
 0001:00000a70       ?OnSelectedAudioDeviceIsChanged@CSDKCustomUIWorkFlow@@UAEXXZ 00401a70 f i custom_ui_mgr_flow.obj
 0001:00000a70       ?_Orphan_all@_Container_base0@std@@QAEXXZ 00401a70 f i AnnotateBarWindow.obj
 0001:00000a70       ?DoInit@CControlUI@DuiLib@@UAEXXZ 00401a70 f i DuiLib:UIControl.obj
 0001:00000a70       ?Cleanup@CSDKRecordingSettingsWorkFlow@@QAEXXZ 00401a70 f i settings_ui.obj
 0001:00000a70       ?OnNoVideoDeviceIsUseful@CSDKVirtualBGSettingsWorkFlow@@UAEXXZ 00401a70 f i SETTINGS_virtualBG_workflow.obj
 0001:00000a70       ?OnNoWindowToShowPreview@CSDKCustomUIWorkFlow@@UAEXXZ 00401a70 f i custom_ui_mgr_flow.obj
 0001:00000a70       ?onVBImageDidDownloaded@CSDKVirtualBGSettingsUIGroup@@UAEXXZ 00401a70 f i settings_ui.obj
 0001:00000a70       ?Cleanup@CSDKLoginWithSSOFlow@@QAEXXZ 00401a70 f i LOGIN_sdk_login_UI.obj
 0001:00000a70       ?DoInit@CComboUI@DuiLib@@UAEXXZ 00401a70 f i DuiLib:UICombo.obj
 0001:00000a70       ?onCCBTNClicked@CSDKCustomUIWorkFlow@@UAEXXZ 00401a70 f i custom_ui_mgr_flow.obj
 0001:00000a70       ?onEndMeetingBtnClicked@CSDKCustomUIWorkFlow@@UAEXXZ 00401a70 f i custom_ui_mgr_flow.obj
 0001:00000a70       ?onStartShareBtnClicked@CSDKCustomUIWorkFlow@@UAEXXZ 00401a70 f i custom_ui_mgr_flow.obj
 0001:00000a70       ?onZoomAuthIdentityExpired@CSDKWithoutLoginStartJoinMeetingFlow@@UAEXXZ 00401a70 f i LOGIN_join_meeting_only_workflow.obj
 0001:00000a70       ?Cleanup@CSDKUICustomSettingsWorkFlow@@QAEXXZ 00401a70 f i settings_ui.obj
 0001:00000a70       ?onCustomLiveStreamMenuClicked@CSDKCustomUIWorkFlow@@UAEXXZ 00401a70 f i custom_ui_mgr_flow.obj
 0001:00000a70       ?OnSelectedVideoDeviceIsChanged@CSDKCustomUIWorkFlow@@UAEXXZ 00401a70 f i custom_ui_mgr_flow.obj
 0001:00000a70       ?Cleanup@CSDKJoinMeetingForLoginUserFlow@@QAEXXZ 00401a70 f i Join_meeting_for_login_user_ui.obj
 0001:00000a70       ?OnNoWindowToShowPreview@CSDKVirtualBGSettingsWorkFlow@@UAEXXZ 00401a70 f i SETTINGS_virtualBG_workflow.obj
 0001:00000a70       ?onZoomIdentityExpired@CSDKWithoutLoginStartJoinMeetingFlow@@UAEXXZ 00401a70 f i LOGIN_join_meeting_only_workflow.obj
 0001:00000a70       ?onSelectedVBImageChanged@CSDKVirtualBGSettingsUIGroup@@UAEXXZ 00401a70 f i settings_ui.obj
 0001:00000a80       ??1CDialogBuilder@DuiLib@@QAE@XZ 00401a80 f i AnnotateBarWindow.obj
 0001:00000aa0       ??1bad_alloc@std@@UAE@XZ   00401aa0 f i AnnotateBarWindow.obj
 0001:00000ac0       ??1bad_array_new_length@std@@UAE@XZ 00401ac0 f i AnnotateBarWindow.obj
 0001:00000ae0       ??1exception@std@@UAE@XZ   00401ae0 f i AnnotateBarWindow.obj
 0001:00000b10       ??2@YAPAXIPAX@Z            00401b10 f i AnnotateBarWindow.obj
 0001:00000b20       ??R<lambda_03628ca18370b1f44a99b655e704819b>@@QBEXQA_WIQB_W@Z 00401b20 f i AnnotateBarWindow.obj
 0001:00000b60       ??_GAnnotateClearWindow@@QAEPAXI@Z 00401b60 f i AnnotateBarWindow.obj
 0001:00000ba0       ??_GAnnotateDrawWindow@@QAEPAXI@Z 00401ba0 f i AnnotateBarWindow.obj
 0001:00000be0       ??_GAnnotateFormatWindow@@QAEPAXI@Z 00401be0 f i AnnotateBarWindow.obj
 0001:00000c20       ??_GAnnotateSpolightWindow@@QAEPAXI@Z 00401c20 f i AnnotateBarWindow.obj
 0001:00000c60       ??_GAnnotateStampWindow@@QAEPAXI@Z 00401c60 f i AnnotateBarWindow.obj
 0001:00000ca0       ??_Gbad_alloc@std@@UAEPAXI@Z 00401ca0 f i AnnotateBarWindow.obj
 0001:00000ca0       ??_Ebad_alloc@std@@UAEPAXI@Z 00401ca0 f i AnnotateBarWindow.obj
 0001:00000cd0       ??_Ebad_array_new_length@std@@UAEPAXI@Z 00401cd0 f i AnnotateBarWindow.obj
 0001:00000cd0       ??_Gbad_array_new_length@std@@UAEPAXI@Z 00401cd0 f i AnnotateBarWindow.obj
 0001:00000d00       ??_Gexception@std@@UAEPAXI@Z 00401d00 f i AnnotateBarWindow.obj
 0001:00000d00       ??_Eexception@std@@UAEPAXI@Z 00401d00 f i AnnotateBarWindow.obj
 0001:00000d30       ?GetClassStyle@AnnotateBarWindow@@UBEIXZ 00401d30 f i AnnotateBarWindow.obj
 0001:00000d30       ?GetClassStyle@AnnotateStampWindow@@UBEIXZ 00401d30 f i AnnotateStampWindow.obj
 0001:00000d30       ?GetClassStyle@CameraControlWindow@@UBEIXZ 00401d30 f i CameraControlWindow.obj
 0001:00000d30       ?GetClassStyle@AnnotateSpolightWindow@@UBEIXZ 00401d30 f i AnnotateSpolightWindow.obj
 0001:00000d30       ?GetClassStyle@ViewOptionsWindow@@UBEIXZ 00401d30 f i ViewOptionsWindow.obj
 0001:00000d30       ?GetClassStyle@AnnotateClearWindow@@UBEIXZ 00401d30 f i AnnotateClearWindow.obj
 0001:00000d30       ?GetClassStyle@CSDKSheduleMeetingUIMgr@@UBEIXZ 00401d30 f i schedule_meeting_ui.obj
 0001:00000d30       ?GetClassStyle@CSDKMeetingChatUIMgr@@UBEIXZ 00401d30 f i chat_controller_ui.obj
 0001:00000d30       ?GetClassStyle@AnnotateFormatWindow@@UBEIXZ 00401d30 f i AnnotateFormatWindow.obj
 0001:00000d30       ?GetClassStyle@CDialInCountryUIMgr@@UBEIXZ 00401d30 f i dial_in_country_ui.obj
 0001:00000d30       ?GetClassStyle@CSDKLoginUIMgr@@UBEIXZ 00401d30 f i LOGIN_sdk_login_UI.obj
 0001:00000d30       ?GetClassStyle@CSDKSettingsUIMgr@@UBEIXZ 00401d30 f i settings_ui.obj
 0001:00000d30       ?GetClassStyle@CInvitationUIMgr@@UBEIXZ 00401d30 f i invitation_ui.obj
 0001:00000d30       ?GetClassStyle@CSDKLoggedInUIMgr@@UBEIXZ 00401d30 f i LoggedIn_sdk_controller_ui.obj
 0001:00000d30       ?GetClassStyle@AnnotateDrawWindow@@UBEIXZ 00401d30 f i AnnotateDrawWindow.obj
 0001:00000d30       ?GetClassStyle@CCloseCaptionUIMgr@@UBEIXZ 00401d30 f i close_caption_ui.obj
 0001:00000d30       ?GetClassStyle@CSDKInitAuthUIMgr@@UBEIXZ 00401d30 f i sdk_init_auth_ui.obj
 0001:00000d30       ?GetClassStyle@CSDKJoinMeetingForLoginUserUIMgr@@UBEIXZ 00401d30 f i Join_meeting_for_login_user_ui.obj
 0001:00000d30       ?GetClassStyle@ShareToolbarWindow@@UBEIXZ 00401d30 f i ShareToolbarWindow.obj
 0001:00000d40       ?GetSkinRes@AnnotateBarWindow@@UAEIXZ 00401d40 f i AnnotateBarWindow.obj
 0001:00000d50       ?GetWindowClassName@ShareToolbarWindow@@UBEPB_WXZ 00401d50 f i ShareToolbarWindow.obj
 0001:00000d50       ?GetWindowClassName@CSDKMeetingChatUIMgr@@UBEPB_WXZ 00401d50 f i chat_controller_ui.obj
 0001:00000d50       ?GetWindowClassName@CSDKSettingsUIMgr@@UBEPB_WXZ 00401d50 f i settings_ui.obj
 0001:00000d50       ?GetWindowClassName@ViewOptionsWindow@@UBEPB_WXZ 00401d50 f i ViewOptionsWindow.obj
 0001:00000d50       ?GetWindowClassName@AnnotateSpolightWindow@@UBEPB_WXZ 00401d50 f i AnnotateSpolightWindow.obj
 0001:00000d50       ?GetWindowClassName@CCloseCaptionUIMgr@@UBEPB_WXZ 00401d50 f i close_caption_ui.obj
 0001:00000d50       ?GetWindowClassName@CSDKInitAuthUIMgr@@UBEPB_WXZ 00401d50 f i sdk_init_auth_ui.obj
 0001:00000d50       ?GetWindowClassName@AnnotateClearWindow@@UBEPB_WXZ 00401d50 f i AnnotateClearWindow.obj
 0001:00000d50       ?GetWindowClassName@AnnotateBarWindow@@UBEPB_WXZ 00401d50 f i AnnotateBarWindow.obj
 0001:00000d50       ?GetWindowClassName@CMoreFeaturesUIMgr@@UBEPB_WXZ 00401d50 f i more_features_ui.obj
 0001:00000d50       ?GetWindowClassName@CSDKJoinMeetingForLoginUserUIMgr@@UBEPB_WXZ 00401d50 f i Join_meeting_for_login_user_ui.obj
 0001:00000d50       ?GetWindowClassName@AnnotateStampWindow@@UBEPB_WXZ 00401d50 f i AnnotateStampWindow.obj
 0001:00000d50       ?GetWindowClassName@CArrowWindow@@UBEPB_WXZ 00401d50 f i arrow_window.obj
 0001:00000d50       ?GetWindowClassName@CDialInCountryUIMgr@@UBEPB_WXZ 00401d50 f i dial_in_country_ui.obj
 0001:00000d50       ?GetWindowClassName@AnnotateFormatWindow@@UBEPB_WXZ 00401d50 f i AnnotateFormatWindow.obj
 0001:00000d50       ?GetWindowClassName@CameraControlWindow@@UBEPB_WXZ 00401d50 f i CameraControlWindow.obj
 0001:00000d50       ?GetWindowClassName@CParticipantUIMgr@@UBEPB_WXZ 00401d50 f i participant_ui.obj
 0001:00000d50       ?GetWindowClassName@CUtilWnd@@UBEPB_WXZ 00401d50 f i util_window.obj
 0001:00000d50       ?GetWindowClassName@CCustomizeUIShareSelectUI@@UBEPB_WXZ 00401d50 f i custom_ui_share_mgr.obj
 0001:00000d50       ?GetWindowClassName@CSDKLoginUIMgr@@UBEPB_WXZ 00401d50 f i LOGIN_sdk_login_UI.obj
 0001:00000d50       ?GetWindowClassName@CMoreMenuUIMgr@@UBEPB_WXZ 00401d50 f i more_menu_ui.obj
 0001:00000d50       ?GetWindowClassName@CToolbarBottom@@UBEPB_WXZ 00401d50 f i toolbar_bottom_ui.obj
 0001:00000d50       ?GetWindowClassName@CSDKLoggedInUIMgr@@UBEPB_WXZ 00401d50 f i LoggedIn_sdk_controller_ui.obj
 0001:00000d50       ?GetWindowClassName@CSDKSheduleMeetingUIMgr@@UBEPB_WXZ 00401d50 f i schedule_meeting_ui.obj
 0001:00000d50       ?GetWindowClassName@AnnotateDrawWindow@@UBEPB_WXZ 00401d50 f i AnnotateDrawWindow.obj
 0001:00000d60       ?HandleMessage@AnnotateBarWindow@@UAEJIIJ@Z 00401d60 f   AnnotateBarWindow.obj
 0001:00000f70       ?HideBrotherWindows@AnnotateBarWindow@@AAEXPA_W@Z 00401f70 f   AnnotateBarWindow.obj
 0001:000010f0       ?HideOwnedWindows@AnnotateBarWindow@@QAEXXZ 004020f0 f   AnnotateBarWindow.obj
 0001:000011a0       ?Init@CComCriticalSection@ATL@@QAEJXZ 004021a0 f i AnnotateBarWindow.obj
 0001:000011e0       ?InitWindow@AnnotateBarWindow@@UAEXXZ 004021e0 f   AnnotateBarWindow.obj
 0001:000013c0       ?MoveWindowPosTo@AnnotateBarWindow@@QAEXPAUHWND__@@@Z 004023c0 f   AnnotateBarWindow.obj
 0001:00001440       ?Notify@AnnotateBarWindow@@UAEXAAUtagTNotifyUI@DuiLib@@@Z 00402440 f   AnnotateBarWindow.obj
 0001:00001820       ?OnClose@AnnotateBarWindow@@QAEJIIJAAH@Z 00402820 f   AnnotateBarWindow.obj
 0001:00001850       ?OnDestroy@AnnotateClearWindow@@QAEJIIJAAH@Z 00402850 f   AnnotateClearWindow.obj
 0001:00001850       ?OnDestroy@AnnotateFormatWindow@@QAEJIIJAAH@Z 00402850 f   AnnotateFormatWindow.obj
 0001:00001850       ?OnClose@ShareToolbarWindow@@QAEJIIJAAH@Z 00402850 f   ShareToolbarWindow.obj
 0001:00001850       ?OnClose@AnnotateDrawWindow@@QAEJIIJAAH@Z 00402850 f   AnnotateDrawWindow.obj
 0001:00001850       ?OnClose@CSDKJoinMeetingForLoginUserUIMgr@@QAEJIIJAAH@Z 00402850 f   Join_meeting_for_login_user_ui.obj
 0001:00001850       ?OnClose@ViewOptionsWindow@@QAEJIIJAAH@Z 00402850 f   ViewOptionsWindow.obj
 0001:00001850       ?OnClose@AnnotateClearWindow@@QAEJIIJAAH@Z 00402850 f   AnnotateClearWindow.obj
 0001:00001850       ?OnDestroy@ViewOptionsWindow@@QAEJIIJAAH@Z 00402850 f   ViewOptionsWindow.obj
 0001:00001850       ?OnDestroy@AnnotateBarWindow@@QAEJIIJAAH@Z 00402850 f   AnnotateBarWindow.obj
 0001:00001850       ?OnClose@AnnotateFormatWindow@@QAEJIIJAAH@Z 00402850 f   AnnotateFormatWindow.obj
 0001:00001850       ?OnClose@CameraControlWindow@@QAEJIIJAAH@Z 00402850 f   CameraControlWindow.obj
 0001:00001850       ?OnDestroy@AnnotateStampWindow@@QAEJIIJAAH@Z 00402850 f   AnnotateStampWindow.obj
 0001:00001850       ?OnDestroy@ShareToolbarWindow@@QAEJIIJAAH@Z 00402850 f   ShareToolbarWindow.obj
 0001:00001850       ?OnClose@AnnotateStampWindow@@QAEJIIJAAH@Z 00402850 f   AnnotateStampWindow.obj
 0001:00001850       ?OnClose@AnnotateSpolightWindow@@QAEJIIJAAH@Z 00402850 f   AnnotateSpolightWindow.obj
 0001:00001850       ?OnDestroy@CameraControlWindow@@QAEJIIJAAH@Z 00402850 f   CameraControlWindow.obj
 0001:00001850       ?OnDestroy@AnnotateSpolightWindow@@QAEJIIJAAH@Z 00402850 f   AnnotateSpolightWindow.obj
 0001:00001850       ?OnDestroy@AnnotateDrawWindow@@QAEJIIJAAH@Z 00402850 f   AnnotateDrawWindow.obj
 0001:00001870       ?_Orphan_ptr@?$_Tree_val@U?$_Tree_simple_types@U?$pair@$$CBIPAVIUserInfo@ZOOMSDK@@@std@@@std@@@std@@QAEXQAU?$_Tree_node@U?$pair@$$CBIPAVIUserInfo@ZOOMSDK@@@std@@PAX@2@@Z 00402870 f i user_manager.obj
 0001:00001870       ?onActiveSpeakerVideoUserChanged@CUtilWnd@@UAEXI@Z 00402870 f i util_window.obj
 0001:00001870       ?onRecordingStatus@CSDKCustomUIWorkFlow@@UAEXW4RecordingStatus@ZOOMSDK@@@Z 00402870 f i custom_ui_mgr_flow.obj
 0001:00001870       ?onRecordPriviligeChanged@CSDKCustomUIWorkFlow@@UAEX_N@Z 00402870 f i custom_ui_mgr_flow.obj
 0001:00001870       ?onShareContentNotification@CSDKCustomUIWorkFlow@@UAEXAAUtagShareInfo@ZOOMSDK@@@Z 00402870 f i custom_ui_mgr_flow.obj
 0001:00001870       ?onMeetingParameterNotification@CSDKLoggedInUIMgr@@UAEXPBUtagMeetingParameter@ZOOMSDK@@@Z 00402870 f i LoggedIn_sdk_controller_ui.obj
 0001:00001870       ?OnFinalMessage@CSDKLoginUIMgr@@UAEXPAUHWND__@@@Z 00402870 f i LOGIN_sdk_login_UI.obj
 0001:00001870       ?onMeetingParameterNotification@CSDKWithoutLoginStartJoinMeetingFlow@@UAEXPBUtagMeetingParameter@ZOOMSDK@@@Z 00402870 f i LOGIN_join_meeting_only_workflow.obj
 0001:00001870       ?onActiveSpeakerVideoUserChanged@CSDKCustomUIWorkFlow@@UAEXI@Z 00402870 f i custom_ui_mgr_flow.obj
 0001:00001870       ?_Orphan_ptr@?$_Tree_val@U?$_Tree_simple_types@U?$pair@$$CBHW4bkItemType@@@std@@@std@@@std@@QAEXQAU?$_Tree_node@U?$pair@$$CBHW4bkItemType@@@std@@PAX@2@@Z 00402870 f i settings_ui.obj
 0001:00001870       ?onLockShareStatus@CSDKCustomUIWorkFlow@@UAEX_N@Z 00402870 f i custom_ui_mgr_flow.obj
 0001:00001870       ?OnFinalMessage@CParticipantUIMgr@@UAEXPAUHWND__@@@Z 00402870 f i participant_ui.obj
 0001:00001870       ?_Orphan_ptr@?$_Tree_val@U?$_Tree_simple_types@PAVIMeetingServiceEvent@ZOOMSDK@@@std@@@std@@QAEXQAU?$_Tree_node@PAVIMeetingServiceEvent@ZOOMSDK@@PAX@2@@Z 00402870 f i sdk_util.obj
 0001:00001870       ?onSSLCertVerifyNotification@CInitSDKWorkFlow@@UAEXPAVISSLCertVerificationHandler@ZOOMSDK@@@Z 00402870 f i init_auth_sdk_workflow.obj
 0001:00001870       ?onMeetingStatisticsWarningNotification@CSDKWithoutLoginStartJoinMeetingFlow@@UAEXW4StatisticsWarningType@ZOOMSDK@@@Z 00402870 f i LOGIN_join_meeting_only_workflow.obj
 0001:00001870       ?OnFinalMessage@ViewOptionsWindow@@UAEXPAUHWND__@@@Z 00402870 f i ViewOptionsWindow.obj
 0001:00001870       ?OnFinalMessage@CCustomizeUIShareSelectUI@@UAEXPAUHWND__@@@Z 00402870 f i custom_ui_share_mgr.obj
 0001:00001870       ?onInviteBtnClicked@CSDKCustomUIWorkFlow@@UAEXAA_N@Z 00402870 f i custom_ui_mgr_flow.obj
 0001:00001870       ?onMeetingParameterNotification@CSDKRestAPIUserUIGroup@@UAEXPBUtagMeetingParameter@ZOOMSDK@@@Z 00402870 f i LOGIN_sdk_login_UI.obj
 0001:00001870       ?OnFinalMessage@CArrowWindow@@UAEXPAUHWND__@@@Z 00402870 f i arrow_window.obj
 0001:00001870       ?OnFinalMessage@CSDKSettingsUIMgr@@UAEXPAUHWND__@@@Z 00402870 f i settings_ui.obj
 0001:00001870       ?OnFinalMessage@CameraControlWindow@@UAEXPAUHWND__@@@Z 00402870 f i CameraControlWindow.obj
 0001:00001870       ?onMultiShareSwitchToSingleShareNeedConfirm@CSDKCustomUIWorkFlow@@UAEXPAVIShareSwitchMultiToSingleConfirmHandler@ZOOMSDK@@@Z 00402870 f i custom_ui_mgr_flow.obj
 0001:00001870       ?_Orphan_ptr@?$_Tree_val@U?$_Tree_simple_types@PAVIClosedCaptionControllerEvent@ZOOMSDK@@@std@@@std@@QAEXQAU?$_Tree_node@PAVIClosedCaptionControllerEvent@ZOOMSDK@@PAX@2@@Z 00402870 f i sdk_util.obj
 0001:00001870       ?_Orphan_ptr@?$_Tree_val@U?$_Tree_simple_types@PAVISDKInMeetingServiceMgrEvent@@@std@@@std@@QAEXQAU?$_Tree_node@PAVISDKInMeetingServiceMgrEvent@@PAX@2@@Z 00402870 f i sdk_util.obj
 0001:00001870       ?onHostRequestStartVideo@CSDKCustomUIWorkFlow@@UAEXPAVIRequestStartVideoHandler@ZOOMSDK@@@Z 00402870 f i custom_ui_mgr_flow.obj
 0001:00001870       ?OnFinalMessage@AnnotateBarWindow@@UAEXPAUHWND__@@@Z 00402870 f i AnnotateBarWindow.obj
 0001:00001870       ?onAuthenticationReturn@CSDKWithoutLoginStartJoinMeetingFlow@@UAEXW4AuthResult@ZOOMSDK@@@Z 00402870 f i LOGIN_join_meeting_only_workflow.obj
 0001:00001870       ?onMeetingParameterNotification@CSDKJoinMeetingForLoginUserFlow@@UAEXPBUtagMeetingParameter@ZOOMSDK@@@Z 00402870 f i Join_meeting_for_login_user_workflow.obj
 0001:00001870       ?Notify@ClosedCaptionDisplayUI@@UAEXAAUtagTNotifyUI@DuiLib@@@Z 00402870 f i display_cc_ui.obj
 0001:00001870       ?_Compat@?$_Vector_const_iterator@V?$_Vector_val@U?$_Simple_types@PAVIUserInfo@ZOOMSDK@@@std@@@std@@@std@@QBEXABV12@@Z 00402870 f i user_manager.obj
 0001:00001870       ?OnNoAudioDeviceIsUseful@CSDKCustomUIWorkFlow@@UAEX_N@Z 00402870 f i custom_ui_mgr_flow.obj
 0001:00001870       ?onCustomizedAnnotationObjDestroyed@CCustomizeInMeetingUIMgr@@UAEXPAVICustomizedAnnotationObj@ZOOMSDK@@@Z 00402870 f i custom_ui_mgr.obj
 0001:00001870       ?onCloudRecordingStatus@CSDKCustomUIWorkFlow@@UAEXW4RecordingStatus@ZOOMSDK@@@Z 00402870 f i custom_ui_mgr_flow.obj
 0001:00001870       ?OnFinalMessage@ShareToolbarWindow@@UAEXPAUHWND__@@@Z 00402870 f i ShareToolbarWindow.obj
 0001:00001870       ?onActiveVideoUserChanged@CSDKCustomUIWorkFlow@@UAEXI@Z 00402870 f i custom_ui_mgr_flow.obj
 0001:00001870       ?onMeetingStatisticsWarningNotification@CSDKJoinMeetingForLoginUserUIGroup@@UAEXW4StatisticsWarningType@ZOOMSDK@@@Z 00402870 f i Join_meeting_for_login_user_ui.obj
 0001:00001870       ?onMeetingStatisticsWarningNotification@CSDKWithoutLoginStartJoinMeetingUIGroup@@UAEXW4StatisticsWarningType@ZOOMSDK@@@Z 00402870 f i LOGIN_sdk_login_UI.obj
 0001:00001870       ?_Orphan_ptr@?$_Tree_val@U?$_Tree_simple_types@PAVIMeetingChatCtrlEvent@ZOOMSDK@@@std@@@std@@QAEXQAU?$_Tree_node@PAVIMeetingChatCtrlEvent@ZOOMSDK@@PAX@2@@Z 00402870 f i sdk_util.obj
 0001:00001870       ?onSharingSourceUserIDNotification@CCustomizeInMeetingUIMgr@@UAEXI@Z 00402870 f i custom_ui_mgr.obj
 0001:00001870       ?PaintStatusImage@CControlUI@DuiLib@@UAEXPAUHDC__@@@Z 00402870 f i DuiLib:UIControl.obj
 0001:00001870       ?onAuthenticationReturn@CSDKLoginCBHandler@@UAEXW4AuthResult@ZOOMSDK@@@Z 00402870 f i LOGIN_sdk_login_UI.obj
 0001:00001870       ?OnFinalMessage@CSDKJoinMeetingForLoginUserUIMgr@@UAEXPAUHWND__@@@Z 00402870 f i Join_meeting_for_login_user_ui.obj
 0001:00001870       ?onCustomizedLocalRecordingSourceNotification@CCustomizeInMeetingUIMgr@@UAEXPAVICustomizedLocalRecordingLayoutHelper@ZOOMSDK@@@Z 00402870 f i custom_ui_mgr.obj
 0001:00001870       ?_Orphan_ptr@?$_Tree_val@U?$_Tree_simple_types@PAVIMeetingVideoCtrlEvent@ZOOMSDK@@@std@@@std@@QAEXQAU?$_Tree_node@PAVIMeetingVideoCtrlEvent@ZOOMSDK@@PAX@2@@Z 00402870 f i sdk_util.obj
 0001:00001870       ?OnFinalMessage@CCloseCaptionUIMgr@@UAEXPAUHWND__@@@Z 00402870 f i close_caption_ui.obj
 0001:00001870       ?onMeetingParameterNotification@CSDKWithoutLoginStartJoinMeetingUIGroup@@UAEXPBUtagMeetingParameter@ZOOMSDK@@@Z 00402870 f i LOGIN_sdk_login_UI.obj
 0001:00001870       ?OnFinalMessage@AnnotateStampWindow@@UAEXPAUHWND__@@@Z 00402870 f i AnnotateStampWindow.obj
 0001:00001870       ?TxImmReleaseContext@CTxtWinHost@DuiLib@@UAEXPAUHIMC__@@@Z 00402870 f i DuiLib:UIRichEdit.obj
 0001:00001870       ?onChatStautsChangedNotification@CSDKMeetingChatUIMgr@@UAEXPAUtagChatStatus@ZOOMSDK@@@Z 00402870 f i chat_controller_ui.obj
 0001:00001870       ?onMeetingStatisticsWarningNotification@CSDKLoggedInUIMgr@@UAEXW4StatisticsWarningType@ZOOMSDK@@@Z 00402870 f i LoggedIn_sdk_controller_ui.obj
 0001:00001870       ?onChatStautsChangedNotification@CSDKCustomUIWorkFlow@@UAEXPAUtagChatStatus@ZOOMSDK@@@Z 00402870 f i custom_ui_mgr_flow.obj
 0001:00001870       ?OnFinalMessage@AnnotateSpolightWindow@@UAEXPAUHWND__@@@Z 00402870 f i AnnotateSpolightWindow.obj
 0001:00001870       ?onHostChangeNotification@CSDKCustomUIWorkFlow@@UAEXI@Z 00402870 f i custom_ui_mgr_flow.obj
 0001:00001870       ?OnFinalMessage@CMoreFeaturesUIMgr@@UAEXPAUHWND__@@@Z 00402870 f i more_features_ui.obj
 0001:00001870       ?PaintText@CControlUI@DuiLib@@UAEXPAUHDC__@@@Z 00402870 f i DuiLib:UIControl.obj
 0001:00001870       ?OnFinalMessage@CSDKSheduleMeetingUIMgr@@UAEXPAUHWND__@@@Z 00402870 f i schedule_meeting_ui.obj
 0001:00001870       ?OnFinalMessage@CMoreMenuUIMgr@@UAEXPAUHWND__@@@Z 00402870 f i more_menu_ui.obj
 0001:00001870       ?onMeetingParameterNotification@CSDKCustomUIWorkFlow@@UAEXPBUtagMeetingParameter@ZOOMSDK@@@Z 00402870 f i custom_ui_mgr_flow.obj
 0001:00001870       ?_Orphan_ptr@?$_Tree_val@U?$_Tree_simple_types@PAVIMeetingParticipantsCtrlEvent@ZOOMSDK@@@std@@@std@@QAEXQAU?$_Tree_node@PAVIMeetingParticipantsCtrlEvent@ZOOMSDK@@PAX@2@@Z 00402870 f i sdk_util.obj
 0001:00001870       ?OnFinalMessage@CToolbarBottom@@UAEXPAUHWND__@@@Z 00402870 f i toolbar_bottom_ui.obj
 0001:00001870       ?OnFinalMessage@CWindowWnd@DuiLib@@MAEXPAUHWND__@@@Z 00402870 f i DuiLib:UIBase.obj
 0001:00001870       ?OnFinalMessage@CSDKInitAuthUIMgr@@UAEXPAUHWND__@@@Z 00402870 f i sdk_init_auth_ui.obj
 0001:00001870       ?_Alloc_proxy@_Container_base0@std@@QAEXABU_Fake_allocator@2@@Z 00402870 f i chat_controller_ui.obj
 0001:00001870       ?OnFinalMessage@AnnotateFormatWindow@@UAEXPAUHWND__@@@Z 00402870 f i AnnotateFormatWindow.obj
 0001:00001870       ?OnFinalMessage@CSDKLoggedInUIMgr@@UAEXPAUHWND__@@@Z 00402870 f i LoggedIn_sdk_controller_ui.obj
 0001:00001870       ?OnFinalMessage@CDialInCountryUIMgr@@UAEXPAUHWND__@@@Z 00402870 f i dial_in_country_ui.obj
 0001:00001870       ?OnFinalMessage@CUtilWnd@@UAEXPAUHWND__@@@Z 00402870 f i util_window.obj
 0001:00001870       ?OnFinalMessage@CSDKMeetingChatUIMgr@@UAEXPAUHWND__@@@Z 00402870 f i chat_controller_ui.obj
 0001:00001870       ?Notify@CTreeViewUI@DuiLib@@UAEXAAUtagTNotifyUI@2@@Z 00402870 f i DuiLib:UITreeView.obj
 0001:00001870       ?OnFinalMessage@AnnotateClearWindow@@UAEXPAUHWND__@@@Z 00402870 f i AnnotateClearWindow.obj
 0001:00001870       ?onProxySettingNotification@CInitSDKWorkFlow@@UAEXPAVIProxySettingHandler@ZOOMSDK@@@Z 00402870 f i init_auth_sdk_workflow.obj
 0001:00001870       ?OnFinalMessage@AnnotateDrawWindow@@UAEXPAUHWND__@@@Z 00402870 f i AnnotateDrawWindow.obj
 0001:00001870       ?onAssignedToSendCC@CSDKCustomUIWorkFlow@@UAEX_N@Z 00402870 f i custom_ui_mgr_flow.obj
 0001:00001870       ?onMeetingStatisticsWarningNotification@CSDKRestAPIUserUIGroup@@UAEXW4StatisticsWarningType@ZOOMSDK@@@Z 00402870 f i LOGIN_sdk_login_UI.obj
 0001:00001870       ?OnFinalMessage@CInvitationUIMgr@@UAEXPAUHWND__@@@Z 00402870 f i invitation_ui.obj
 0001:00001870       ?_Orphan_ptr@?$_Tree_val@U?$_Tree_simple_types@PAVIPreMeetingServiceEvent@ZOOMSDK@@@std@@@std@@QAEXQAU?$_Tree_node@PAVIPreMeetingServiceEvent@ZOOMSDK@@PAX@2@@Z 00402870 f i sdk_util.obj
 0001:00001870       ?onRecording2MP4Processing@CSDKCustomUIWorkFlow@@UAEXH@Z 00402870 f i custom_ui_mgr_flow.obj
 0001:00001870       ?_Adopt@_Iterator_base0@std@@QAEXPBX@Z 00402870 f i participant_ui.obj
 0001:00001870       ?onMeetingStatisticsWarningNotification@CSDKJoinMeetingForLoginUserFlow@@UAEXW4StatisticsWarningType@ZOOMSDK@@@Z 00402870 f i Join_meeting_for_login_user_workflow.obj
 0001:00001870       ?onUserActiveAudioChange@CSDKCustomUIWorkFlow@@UAEXPAV?$IList@I@ZOOMSDK@@@Z 00402870 f i custom_ui_mgr_flow.obj
 0001:00001870       ?onMeetingStatisticsWarningNotification@CSDKCustomUIWorkFlow@@UAEXW4StatisticsWarningType@ZOOMSDK@@@Z 00402870 f i custom_ui_mgr_flow.obj
 0001:00001870       ?HandleVideoContainerDestroyed@CCustomizeUIVideoMgr@@QAEXPAVICustomizedVideoContainer@ZOOMSDK@@@Z 00402870 f i custom_ui_video_mgr.obj
 0001:00001870       ?onHostRequestStartAudio@CSDKCustomUIWorkFlow@@UAEXPAVIRequestStartAudioHandler@ZOOMSDK@@@Z 00402870 f i custom_ui_mgr_flow.obj
 0001:00001870       ?onMeetingParameterNotification@CSDKJoinMeetingForLoginUserUIGroup@@UAEXPBUtagMeetingParameter@ZOOMSDK@@@Z 00402870 f i Join_meeting_for_login_user_ui.obj
 0001:00001870       ?onActiveVideoUserChanged@CUtilWnd@@UAEXI@Z 00402870 f i util_window.obj
 0001:00001870       ?_Orphan_ptr@?$_Tree_val@U?$_Tree_simple_types@PAVIAuthServiceEvent@ZOOMSDK@@@std@@@std@@QAEXQAU?$_Tree_node@PAVIAuthServiceEvent@ZOOMSDK@@PAX@2@@Z 00402870 f i sdk_util.obj
 0001:00001880       ?Term@CComCriticalSection@ATL@@QAEJXZ 00402880 f i AnnotateBarWindow.obj
 0001:000018a0       ?_Adjust_manually_vector_aligned@std@@YAXAAPAXAAI@Z 004028a0 f i AnnotateBarWindow.obj
 0001:00001910       ?_Allocate@_Default_allocate_traits@std@@SAPAXI@Z 00402910 f i AnnotateBarWindow.obj
 0001:00001930       ?_AtlInitializeCriticalSectionEx@ATL@@YAHPAU_RTL_CRITICAL_SECTION@@KK@Z 00402930 f i AnnotateBarWindow.obj
 0001:00001950       ?_Calculate_growth@?$basic_string@_WU?$char_traits@_W@std@@V?$allocator@_W@2@@std@@ABEII@Z 00402950 f i AnnotateBarWindow.obj
 0001:00001980       ?_Calculate_growth@?$basic_string@_WU?$char_traits@_W@std@@V?$allocator@_W@2@@std@@CAIIII@Z 00402980 f i AnnotateBarWindow.obj
 0001:000019e0       ?_Equal@?$basic_string@_WU?$char_traits@_W@std@@V?$allocator@_W@2@@std@@QBE_NQB_W@Z 004029e0 f i AnnotateBarWindow.obj
 0001:00001a20       ?_Getal@?$_Tree@V?$_Tset_traits@PAVIClosedCaptionControllerEvent@ZOOMSDK@@U?$less@PAVIClosedCaptionControllerEvent@ZOOMSDK@@@std@@V?$allocator@PAVIClosedCaptionControllerEvent@ZOOMSDK@@@4@$0A@@std@@@std@@IAEAAV?$allocator@U?$_Tree_node@PAVIClosedCaptionControllerEvent@ZOOMSDK@@PAX@std@@@2@XZ 00402a20 f i sdk_util.obj
 0001:00001a20       ?_Getcomp@?$_Tree@V?$_Tmap_traits@HW4bkItemType@@U?$less@H@std@@V?$allocator@U?$pair@$$CBHW4bkItemType@@@std@@@3@$0A@@std@@@std@@IBEABU?$less@H@2@XZ 00402a20 f i settings_ui.obj
 0001:00001a20       ?_Getal@?$vector@PAVIAlternativeHostInfo@ZOOMSDK@@V?$allocator@PAVIAlternativeHostInfo@ZOOMSDK@@@std@@@std@@ABEABV?$allocator@PAVIAlternativeHostInfo@ZOOMSDK@@@2@XZ 00402a20 f i schedule_meeting_ui.obj
 0001:00001a20       ?_Getal@?$vector@V?$basic_string@_WU?$char_traits@_W@std@@V?$allocator@_W@2@@std@@V?$allocator@V?$basic_string@_WU?$char_traits@_W@std@@V?$allocator@_W@2@@std@@@2@@std@@AAEAAV?$allocator@V?$basic_string@_WU?$char_traits@_W@std@@V?$allocator@_W@2@@std@@@2@XZ 00402a20 f i custom_ui_share_flow.obj
 0001:00001a20       ?_Getal@?$_Tree@V?$_Tset_traits@PAVIMeetingServiceEvent@ZOOMSDK@@U?$less@PAVIMeetingServiceEvent@ZOOMSDK@@@std@@V?$allocator@PAVIMeetingServiceEvent@ZOOMSDK@@@4@$0A@@std@@@std@@IBEABV?$allocator@U?$_Tree_node@PAVIMeetingServiceEvent@ZOOMSDK@@PAX@std@@@2@XZ 00402a20 f i sdk_util.obj
 0001:00001a20       ?_Getal@?$_Tree@V?$_Tset_traits@PAVIMeetingParticipantsCtrlEvent@ZOOMSDK@@U?$less@PAVIMeetingParticipantsCtrlEvent@ZOOMSDK@@@std@@V?$allocator@PAVIMeetingParticipantsCtrlEvent@ZOOMSDK@@@4@$0A@@std@@@std@@IBEABV?$allocator@U?$_Tree_node@PAVIMeetingParticipantsCtrlEvent@ZOOMSDK@@PAX@std@@@2@XZ 00402a20 f i sdk_util.obj
 0001:00001a20       ?_Getal@?$list@HV?$allocator@H@std@@@std@@AAEAAV?$allocator@U?$_List_node@HPAX@std@@@2@XZ 00402a20 f i participant_ui.obj
 0001:00001a20       ?_Getcomp@?$_Tree@V?$_Tset_traits@PAVIMeetingVideoCtrlEvent@ZOOMSDK@@U?$less@PAVIMeetingVideoCtrlEvent@ZOOMSDK@@@std@@V?$allocator@PAVIMeetingVideoCtrlEvent@ZOOMSDK@@@4@$0A@@std@@@std@@IBEABU?$less@PAVIMeetingVideoCtrlEvent@ZOOMSDK@@@2@XZ 00402a20 f i sdk_util.obj
 0001:00001a20       ?_Getal@?$vector@PAVIAlternativeHostInfo@ZOOMSDK@@V?$allocator@PAVIAlternativeHostInfo@ZOOMSDK@@@std@@@std@@AAEAAV?$allocator@PAVIAlternativeHostInfo@ZOOMSDK@@@2@XZ 00402a20 f i schedule_meeting_ui.obj
 0001:00001a20       ?_Getal@?$basic_string@_WU?$char_traits@_W@std@@V?$allocator@_W@2@@std@@AAEAAV?$allocator@_W@2@XZ 00402a20 f i AnnotateBarWindow.obj
 0001:00001a20       ?_Getcomp@?$_Tree@V?$_Tset_traits@PAVIAuthServiceEvent@ZOOMSDK@@U?$less@PAVIAuthServiceEvent@ZOOMSDK@@@std@@V?$allocator@PAVIAuthServiceEvent@ZOOMSDK@@@4@$0A@@std@@@std@@IBEABU?$less@PAVIAuthServiceEvent@ZOOMSDK@@@2@XZ 00402a20 f i sdk_util.obj
 0001:00001a20       ?_Getal@?$_Tree@V?$_Tset_traits@PAVIMeetingParticipantsCtrlEvent@ZOOMSDK@@U?$less@PAVIMeetingParticipantsCtrlEvent@ZOOMSDK@@@std@@V?$allocator@PAVIMeetingParticipantsCtrlEvent@ZOOMSDK@@@4@$0A@@std@@@std@@IAEAAV?$allocator@U?$_Tree_node@PAVIMeetingParticipantsCtrlEvent@ZOOMSDK@@PAX@std@@@2@XZ 00402a20 f i sdk_util.obj
 0001:00001a20       ?_Getal@?$vector@PAVIVirtualBGImageInfo@ZOOMSDK@@V?$allocator@PAVIVirtualBGImageInfo@ZOOMSDK@@@std@@@std@@AAEAAV?$allocator@PAVIVirtualBGImageInfo@ZOOMSDK@@@2@XZ 00402a20 f i settings_ui.obj
 0001:00001a20       ?_Getcomp@?$_Tree@V?$_Tmap_traits@IPAVIUserInfo@ZOOMSDK@@U?$less@I@std@@V?$allocator@U?$pair@$$CBIPAVIUserInfo@ZOOMSDK@@@std@@@4@$0A@@std@@@std@@IBEABU?$less@I@2@XZ 00402a20 f i user_manager.obj
 0001:00001a20       ?_Getal@?$_Tree@V?$_Tmap_traits@IPAVIUserInfo@ZOOMSDK@@U?$less@I@std@@V?$allocator@U?$pair@$$CBIPAVIUserInfo@ZOOMSDK@@@std@@@4@$0A@@std@@@std@@IAEAAV?$allocator@U?$_Tree_node@U?$pair@$$CBIPAVIUserInfo@ZOOMSDK@@@std@@PAX@std@@@2@XZ 00402a20 f i user_manager.obj
 0001:00001a20       ?_Getal@?$vector@V?$basic_string@_WU?$char_traits@_W@std@@V?$allocator@_W@2@@std@@V?$allocator@V?$basic_string@_WU?$char_traits@_W@std@@V?$allocator@_W@2@@std@@@2@@std@@ABEABV?$allocator@V?$basic_string@_WU?$char_traits@_W@std@@V?$allocator@_W@2@@std@@@2@XZ 00402a20 f i custom_ui_share_flow.obj
 0001:00001a20       ?_Getal@?$_Tree@V?$_Tmap_traits@HW4bkItemType@@U?$less@H@std@@V?$allocator@U?$pair@$$CBHW4bkItemType@@@std@@@3@$0A@@std@@@std@@IBEABV?$allocator@U?$_Tree_node@U?$pair@$$CBHW4bkItemType@@@std@@PAX@std@@@2@XZ 00402a20 f i settings_ui.obj
 0001:00001a20       ?_Getal@?$vector@PAVIUserInfo@ZOOMSDK@@V?$allocator@PAVIUserInfo@ZOOMSDK@@@std@@@std@@AAEAAV?$allocator@PAVIUserInfo@ZOOMSDK@@@2@XZ 00402a20 f i user_manager.obj
 0001:00001a20       ?_Getal@?$_Tree@V?$_Tset_traits@PAVIMeetingChatCtrlEvent@ZOOMSDK@@U?$less@PAVIMeetingChatCtrlEvent@ZOOMSDK@@@std@@V?$allocator@PAVIMeetingChatCtrlEvent@ZOOMSDK@@@4@$0A@@std@@@std@@IBEABV?$allocator@U?$_Tree_node@PAVIMeetingChatCtrlEvent@ZOOMSDK@@PAX@std@@@2@XZ 00402a20 f i sdk_util.obj
 0001:00001a20       ?_Getal@?$_Tree@V?$_Tset_traits@PAVIMeetingServiceEvent@ZOOMSDK@@U?$less@PAVIMeetingServiceEvent@ZOOMSDK@@@std@@V?$allocator@PAVIMeetingServiceEvent@ZOOMSDK@@@4@$0A@@std@@@std@@IAEAAV?$allocator@U?$_Tree_node@PAVIMeetingServiceEvent@ZOOMSDK@@PAX@std@@@2@XZ 00402a20 f i sdk_util.obj
 0001:00001a20       ?_Getal@?$vector@PAVIUserInfo@ZOOMSDK@@V?$allocator@PAVIUserInfo@ZOOMSDK@@@std@@@std@@ABEABV?$allocator@PAVIUserInfo@ZOOMSDK@@@2@XZ 00402a20 f i user_manager.obj
 0001:00001a20       ?_Getcomp@?$_Tree@V?$_Tset_traits@PAVIMeetingServiceEvent@ZOOMSDK@@U?$less@PAVIMeetingServiceEvent@ZOOMSDK@@@std@@V?$allocator@PAVIMeetingServiceEvent@ZOOMSDK@@@4@$0A@@std@@@std@@IBEABU?$less@PAVIMeetingServiceEvent@ZOOMSDK@@@2@XZ 00402a20 f i sdk_util.obj
 0001:00001a20       ?_Getal@?$_Tree@V?$_Tset_traits@PAVIMeetingChatCtrlEvent@ZOOMSDK@@U?$less@PAVIMeetingChatCtrlEvent@ZOOMSDK@@@std@@V?$allocator@PAVIMeetingChatCtrlEvent@ZOOMSDK@@@4@$0A@@std@@@std@@IAEAAV?$allocator@U?$_Tree_node@PAVIMeetingChatCtrlEvent@ZOOMSDK@@PAX@std@@@2@XZ 00402a20 f i sdk_util.obj
 0001:00001a20       ?_Getal@?$_Tree@V?$_Tset_traits@PAVIAuthServiceEvent@ZOOMSDK@@U?$less@PAVIAuthServiceEvent@ZOOMSDK@@@std@@V?$allocator@PAVIAuthServiceEvent@ZOOMSDK@@@4@$0A@@std@@@std@@IBEABV?$allocator@U?$_Tree_node@PAVIAuthServiceEvent@ZOOMSDK@@PAX@std@@@2@XZ 00402a20 f i sdk_util.obj
 0001:00001a20       ?_Getal@?$_Tree@V?$_Tset_traits@PAVIPreMeetingServiceEvent@ZOOMSDK@@U?$less@PAVIPreMeetingServiceEvent@ZOOMSDK@@@std@@V?$allocator@PAVIPreMeetingServiceEvent@ZOOMSDK@@@4@$0A@@std@@@std@@IBEABV?$allocator@U?$_Tree_node@PAVIPreMeetingServiceEvent@ZOOMSDK@@PAX@std@@@2@XZ 00402a20 f i sdk_util.obj
 0001:00001a20       ?_Getal@?$_Tree@V?$_Tset_traits@PAVIMeetingVideoCtrlEvent@ZOOMSDK@@U?$less@PAVIMeetingVideoCtrlEvent@ZOOMSDK@@@std@@V?$allocator@PAVIMeetingVideoCtrlEvent@ZOOMSDK@@@4@$0A@@std@@@std@@IBEABV?$allocator@U?$_Tree_node@PAVIMeetingVideoCtrlEvent@ZOOMSDK@@PAX@std@@@2@XZ 00402a20 f i sdk_util.obj
 0001:00001a20       ?_Getal@?$vector@PAVIInterpreterInfo@ZOOMSDK@@V?$allocator@PAVIInterpreterInfo@ZOOMSDK@@@std@@@std@@ABEABV?$allocator@PAVIInterpreterInfo@ZOOMSDK@@@2@XZ 00402a20 f i schedule_meeting_ui.obj
 0001:00001a20       ?_Getal@?$list@HV?$allocator@H@std@@@std@@ABEABV?$allocator@U?$_List_node@HPAX@std@@@2@XZ 00402a20 f i participant_ui.obj
 0001:00001a20       ?_Getal@?$vector@PAVIVirtualBGImageInfo@ZOOMSDK@@V?$allocator@PAVIVirtualBGImageInfo@ZOOMSDK@@@std@@@std@@ABEABV?$allocator@PAVIVirtualBGImageInfo@ZOOMSDK@@@2@XZ 00402a20 f i settings_ui.obj
 0001:00001a20       ?_Getcomp@?$_Tree@V?$_Tset_traits@PAVIMeetingChatCtrlEvent@ZOOMSDK@@U?$less@PAVIMeetingChatCtrlEvent@ZOOMSDK@@@std@@V?$allocator@PAVIMeetingChatCtrlEvent@ZOOMSDK@@@4@$0A@@std@@@std@@IBEABU?$less@PAVIMeetingChatCtrlEvent@ZOOMSDK@@@2@XZ 00402a20 f i sdk_util.obj
 0001:00001a20       ?_Getal@?$_Tree@V?$_Tmap_traits@IPAVIUserInfo@ZOOMSDK@@U?$less@I@std@@V?$allocator@U?$pair@$$CBIPAVIUserInfo@ZOOMSDK@@@std@@@4@$0A@@std@@@std@@IBEABV?$allocator@U?$_Tree_node@U?$pair@$$CBIPAVIUserInfo@ZOOMSDK@@@std@@PAX@std@@@2@XZ 00402a20 f i user_manager.obj
 0001:00001a20       ?_Getal@?$vector@PAVIInterpreterInfo@ZOOMSDK@@V?$allocator@PAVIInterpreterInfo@ZOOMSDK@@@std@@@std@@AAEAAV?$allocator@PAVIInterpreterInfo@ZOOMSDK@@@2@XZ 00402a20 f i schedule_meeting_ui.obj
 0001:00001a20       ?_Getal@?$_Tree@V?$_Tset_traits@PAVISDKInMeetingServiceMgrEvent@@U?$less@PAVISDKInMeetingServiceMgrEvent@@@std@@V?$allocator@PAVISDKInMeetingServiceMgrEvent@@@3@$0A@@std@@@std@@IBEABV?$allocator@U?$_Tree_node@PAVISDKInMeetingServiceMgrEvent@@PAX@std@@@2@XZ 00402a20 f i sdk_util.obj
 0001:00001a20       ?_Getcomp@?$_Tree@V?$_Tset_traits@PAVISDKInMeetingServiceMgrEvent@@U?$less@PAVISDKInMeetingServiceMgrEvent@@@std@@V?$allocator@PAVISDKInMeetingServiceMgrEvent@@@3@$0A@@std@@@std@@IBEABU?$less@PAVISDKInMeetingServiceMgrEvent@@@2@XZ 00402a20 f i sdk_util.obj
 0001:00001a20       ?_Getcomp@?$_Tree@V?$_Tset_traits@PAVIMeetingParticipantsCtrlEvent@ZOOMSDK@@U?$less@PAVIMeetingParticipantsCtrlEvent@ZOOMSDK@@@std@@V?$allocator@PAVIMeetingParticipantsCtrlEvent@ZOOMSDK@@@4@$0A@@std@@@std@@IBEABU?$less@PAVIMeetingParticipantsCtrlEvent@ZOOMSDK@@@2@XZ 00402a20 f i sdk_util.obj
 0001:00001a20       ?_Getal@?$_Tree@V?$_Tset_traits@PAVISDKInMeetingServiceMgrEvent@@U?$less@PAVISDKInMeetingServiceMgrEvent@@@std@@V?$allocator@PAVISDKInMeetingServiceMgrEvent@@@3@$0A@@std@@@std@@IAEAAV?$allocator@U?$_Tree_node@PAVISDKInMeetingServiceMgrEvent@@PAX@std@@@2@XZ 00402a20 f i sdk_util.obj
 0001:00001a20       ?_Getcomp@?$_Tree@V?$_Tset_traits@PAVIPreMeetingServiceEvent@ZOOMSDK@@U?$less@PAVIPreMeetingServiceEvent@ZOOMSDK@@@std@@V?$allocator@PAVIPreMeetingServiceEvent@ZOOMSDK@@@4@$0A@@std@@@std@@IBEABU?$less@PAVIPreMeetingServiceEvent@ZOOMSDK@@@2@XZ 00402a20 f i sdk_util.obj
 0001:00001a20       ?_Getal@?$_Tree@V?$_Tmap_traits@HW4bkItemType@@U?$less@H@std@@V?$allocator@U?$pair@$$CBHW4bkItemType@@@std@@@3@$0A@@std@@@std@@IAEAAV?$allocator@U?$_Tree_node@U?$pair@$$CBHW4bkItemType@@@std@@PAX@std@@@2@XZ 00402a20 f i settings_ui.obj
 0001:00001a20       ?_Getcomp@?$_Tree@V?$_Tset_traits@PAVIClosedCaptionControllerEvent@ZOOMSDK@@U?$less@PAVIClosedCaptionControllerEvent@ZOOMSDK@@@std@@V?$allocator@PAVIClosedCaptionControllerEvent@ZOOMSDK@@@4@$0A@@std@@@std@@IBEABU?$less@PAVIClosedCaptionControllerEvent@ZOOMSDK@@@2@XZ 00402a20 f i sdk_util.obj
 0001:00001a20       ?_Getal@?$_Tree@V?$_Tset_traits@PAVIClosedCaptionControllerEvent@ZOOMSDK@@U?$less@PAVIClosedCaptionControllerEvent@ZOOMSDK@@@std@@V?$allocator@PAVIClosedCaptionControllerEvent@ZOOMSDK@@@4@$0A@@std@@@std@@IBEABV?$allocator@U?$_Tree_node@PAVIClosedCaptionControllerEvent@ZOOMSDK@@PAX@std@@@2@XZ 00402a20 f i sdk_util.obj
 0001:00001a20       ?_Getal@?$_Tree@V?$_Tset_traits@PAVIPreMeetingServiceEvent@ZOOMSDK@@U?$less@PAVIPreMeetingServiceEvent@ZOOMSDK@@@std@@V?$allocator@PAVIPreMeetingServiceEvent@ZOOMSDK@@@4@$0A@@std@@@std@@IAEAAV?$allocator@U?$_Tree_node@PAVIPreMeetingServiceEvent@ZOOMSDK@@PAX@std@@@2@XZ 00402a20 f i sdk_util.obj
 0001:00001a20       ?_Getal@?$_Tree@V?$_Tset_traits@PAVIMeetingVideoCtrlEvent@ZOOMSDK@@U?$less@PAVIMeetingVideoCtrlEvent@ZOOMSDK@@@std@@V?$allocator@PAVIMeetingVideoCtrlEvent@ZOOMSDK@@@4@$0A@@std@@@std@@IAEAAV?$allocator@U?$_Tree_node@PAVIMeetingVideoCtrlEvent@ZOOMSDK@@PAX@std@@@2@XZ 00402a20 f i sdk_util.obj
 0001:00001a20       ?_Getal@?$_Tree@V?$_Tset_traits@PAVIAuthServiceEvent@ZOOMSDK@@U?$less@PAVIAuthServiceEvent@ZOOMSDK@@@std@@V?$allocator@PAVIAuthServiceEvent@ZOOMSDK@@@4@$0A@@std@@@std@@IAEAAV?$allocator@U?$_Tree_node@PAVIAuthServiceEvent@ZOOMSDK@@PAX@std@@@2@XZ 00402a20 f i sdk_util.obj
 0001:00001a20       ?_Getal@?$basic_string@_WU?$char_traits@_W@std@@V?$allocator@_W@2@@std@@ABEABV?$allocator@_W@2@XZ 00402a20 f i AnnotateBarWindow.obj
 0001:00001a40       ?_Large_string_engaged@?$_String_val@U?$_Simple_types@_W@std@@@std@@QBE_NXZ 00402a40 f i AnnotateBarWindow.obj
 0001:00001a70       ?_Myptr@?$_String_val@U?$_Simple_types@_W@std@@@std@@QBEPB_WXZ 00402a70 f i AnnotateBarWindow.obj
 0001:00001a70       ?_Myptr@?$_String_val@U?$_Simple_types@_W@std@@@std@@QAEPA_WXZ 00402a70 f i AnnotateBarWindow.obj
 0001:00001ab0       ?_Throw_bad_array_new_length@std@@YAXXZ 00402ab0 f i AnnotateBarWindow.obj
 0001:00001ad0       ?_Tidy_deallocate@?$basic_string@_WU?$char_traits@_W@std@@V?$allocator@_W@2@@std@@AAEXXZ 00402ad0 f i AnnotateBarWindow.obj
 0001:00001b90       ?_Tidy_init@?$basic_string@_WU?$char_traits@_W@std@@V?$allocator@_W@2@@std@@AAEXXZ 00402b90 f i AnnotateBarWindow.obj
 0001:00001bd0       ?_Xlen_string@std@@YAXXZ   00402bd0 f i AnnotateBarWindow.obj
 0001:00001be0       ?allocate@?$allocator@_W@std@@QAEPA_WI@Z 00402be0 f i AnnotateBarWindow.obj
 0001:00001c10       ?assign@?$_WChar_traits@_W@std@@SAXAA_WAB_W@Z 00402c10 f i AnnotateBarWindow.obj
 0001:00001c30       ?assign@?$basic_string@_WU?$char_traits@_W@std@@V?$allocator@_W@2@@std@@QAEAAV12@QB_W@Z 00402c30 f i AnnotateBarWindow.obj
 0001:00001c60       ?assign@?$basic_string@_WU?$char_traits@_W@std@@V?$allocator@_W@2@@std@@QAEAAV12@QB_WI@Z 00402c60 f i AnnotateBarWindow.obj
 0001:00001ce0       ?compare@?$_WChar_traits@_W@std@@SAHQB_W0I@Z 00402ce0 f i AnnotateBarWindow.obj
 0001:00001d00       ?copy@?$_Char_traits@_WG@std@@SAPA_WQA_WQB_WI@Z 00402d00 f i AnnotateBarWindow.obj
 0001:00001d20       ?deallocate@?$allocator@_W@std@@QAEXQA_WI@Z 00402d20 f i AnnotateBarWindow.obj
 0001:00001d40       ?length@?$_WChar_traits@_W@std@@SAIPB_W@Z 00402d40 f i AnnotateBarWindow.obj
 0001:00001d80       ?max@?$numeric_limits@H@std@@SAHXZ 00402d80 f i AnnotateBarWindow.obj
 0001:00001d80       ?max_size@?$_Default_allocator_traits@V?$allocator@_W@std@@@std@@SAIABV?$allocator@_W@2@@Z 00402d80 f i AnnotateBarWindow.obj
 0001:00001d90       ?max_size@?$basic_string@_WU?$char_traits@_W@std@@V?$allocator@_W@2@@std@@QBEIXZ 00402d90 f i AnnotateBarWindow.obj
 0001:00001df0       ?move@?$_Char_traits@_WG@std@@SAPA_WQA_WQB_WI@Z 00402df0 f i AnnotateBarWindow.obj
 0001:00001e10       ?onClickClear@AnnotateBarWindow@@AAEXPAVICustomizedAnnotationObj@ZOOMSDK@@@Z 00402e10 f   AnnotateBarWindow.obj
 0001:00001f70       ?onClickDraw@AnnotateBarWindow@@AAEXPAVICustomizedAnnotationObj@ZOOMSDK@@@Z 00402f70 f   AnnotateBarWindow.obj
 0001:000020a0       ?onClickFormat@AnnotateBarWindow@@AAEXPAVICustomizedAnnotationObj@ZOOMSDK@@@Z 004030a0 f   AnnotateBarWindow.obj
 0001:000021d0       ?onClickSpotlight@AnnotateBarWindow@@AAEXPAVICustomizedAnnotationObj@ZOOMSDK@@@Z 004031d0 f   AnnotateBarWindow.obj
 0001:00002300       ?onClickStamp@AnnotateBarWindow@@AAEXPAVICustomizedAnnotationObj@ZOOMSDK@@@Z 00403300 f   AnnotateBarWindow.obj
 0001:00002430       ?what@exception@std@@UBEPBDXZ 00403430 f i AnnotateBarWindow.obj
 0001:00002460       _HRESULT_FROM_WIN32        00403460 f i AnnotateBarWindow.obj
 0001:000024a0       _wmemcmp                   004034a0 f i AnnotateBarWindow.obj
 0001:00002510       ??0AnnotateClearWindow@@QAE@PAVICustomizedAnnotationObj@ZOOMSDK@@@Z 00403510 f   AnnotateClearWindow.obj
 0001:00002590       ??1AnnotateClearWindow@@QAE@XZ 00403590 f   AnnotateClearWindow.obj
 0001:000025e0       ?GetSkinRes@AnnotateClearWindow@@UAEIXZ 004035e0 f i AnnotateClearWindow.obj
 0001:000025f0       ?HandleMessage@AnnotateClearWindow@@UAEJIIJ@Z 004035f0 f   AnnotateClearWindow.obj
 0001:00002810       ?InitWindow@AnnotateClearWindow@@UAEXXZ 00403810 f   AnnotateClearWindow.obj
 0001:00002870       ?MoveWindowPosTo@AnnotateClearWindow@@QAEXPAUHWND__@@@Z 00403870 f   AnnotateClearWindow.obj
 0001:00002900       ?Notify@AnnotateClearWindow@@UAEXAAUtagTNotifyUI@DuiLib@@@Z 00403900 f   AnnotateClearWindow.obj
 0001:000029b0       ??0AnnotateDrawWindow@@QAE@PAVICustomizedAnnotationObj@ZOOMSDK@@@Z 004039b0 f   AnnotateDrawWindow.obj
 0001:00002aa0       ??1AnnotateDrawWindow@@QAE@XZ 00403aa0 f   AnnotateDrawWindow.obj
 0001:00002af0       ?GetSkinRes@AnnotateDrawWindow@@UAEIXZ 00403af0 f i AnnotateDrawWindow.obj
 0001:00002b00       ?HandleMessage@AnnotateDrawWindow@@UAEJIIJ@Z 00403b00 f   AnnotateDrawWindow.obj
 0001:00002d20       ?InitWindow@AnnotateDrawWindow@@UAEXXZ 00403d20 f   AnnotateDrawWindow.obj
 0001:00002e60       ?MoveWindowPosTo@AnnotateDrawWindow@@QAEXPAUHWND__@@@Z 00403e60 f   AnnotateDrawWindow.obj
 0001:00002ef0       ?Notify@AnnotateDrawWindow@@UAEXAAUtagTNotifyUI@DuiLib@@@Z 00403ef0 f   AnnotateDrawWindow.obj
 0001:00003180       ??0AnnotateFormatWindow@@QAE@PAVICustomizedAnnotationObj@ZOOMSDK@@@Z 00404180 f   AnnotateFormatWindow.obj
 0001:000032e0       ??1AnnotateFormatWindow@@QAE@XZ 004042e0 f   AnnotateFormatWindow.obj
 0001:00003330       ?GetSkinRes@AnnotateFormatWindow@@UAEIXZ 00404330 f i AnnotateFormatWindow.obj
 0001:00003340       ?HandleMessage@AnnotateFormatWindow@@UAEJIIJ@Z 00404340 f   AnnotateFormatWindow.obj
 0001:00003560       ?InitWindow@AnnotateFormatWindow@@UAEXXZ 00404560 f   AnnotateFormatWindow.obj
 0001:00003760       ?MoveWindowPosTo@AnnotateFormatWindow@@QAEXPAUHWND__@@@Z 00404760 f   AnnotateFormatWindow.obj
 0001:000037f0       ?Notify@AnnotateFormatWindow@@UAEXAAUtagTNotifyUI@DuiLib@@@Z 004047f0 f   AnnotateFormatWindow.obj
 0001:00003b40       ?onClickColor@AnnotateFormatWindow@@AAEXH@Z 00404b40 f   AnnotateFormatWindow.obj
 0001:00003c60       ??0AnnotateSpolightWindow@@QAE@PAVICustomizedAnnotationObj@ZOOMSDK@@@Z 00404c60 f   AnnotateSpolightWindow.obj
 0001:00003cd0       ??1AnnotateSpolightWindow@@QAE@XZ 00404cd0 f   AnnotateSpolightWindow.obj
 0001:00003d20       ?GetSkinRes@AnnotateSpolightWindow@@UAEIXZ 00404d20 f i AnnotateSpolightWindow.obj
 0001:00003d30       ?HandleMessage@AnnotateSpolightWindow@@UAEJIIJ@Z 00404d30 f   AnnotateSpolightWindow.obj
 0001:00003f50       ?InitWindow@AnnotateSpolightWindow@@UAEXXZ 00404f50 f   AnnotateSpolightWindow.obj
 0001:00003f90       ?MoveWindowPosTo@AnnotateSpolightWindow@@QAEXPAUHWND__@@@Z 00404f90 f   AnnotateSpolightWindow.obj
 0001:00004020       ?Notify@AnnotateSpolightWindow@@UAEXAAUtagTNotifyUI@DuiLib@@@Z 00405020 f   AnnotateSpolightWindow.obj
 0001:000040b0       ??0AnnotateStampWindow@@QAE@PAVICustomizedAnnotationObj@ZOOMSDK@@@Z 004050b0 f   AnnotateStampWindow.obj
 0001:00004150       ??1AnnotateStampWindow@@QAE@XZ 00405150 f   AnnotateStampWindow.obj
 0001:000041a0       ?GetSkinRes@AnnotateStampWindow@@UAEIXZ 004051a0 f i AnnotateStampWindow.obj
 0001:000041b0       ?HandleMessage@AnnotateStampWindow@@UAEJIIJ@Z 004051b0 f   AnnotateStampWindow.obj
 0001:000043d0       ?InitWindow@AnnotateStampWindow@@UAEXXZ 004053d0 f   AnnotateStampWindow.obj
 0001:00004480       ?MoveWindowPosTo@AnnotateStampWindow@@QAEXPAUHWND__@@@Z 00405480 f   AnnotateStampWindow.obj
 0001:00004510       ?Notify@AnnotateStampWindow@@UAEXAAUtagTNotifyUI@DuiLib@@@Z 00405510 f   AnnotateStampWindow.obj
 0001:00004620       ??0CArrowWindow@@QAE@PAVCCustomizeInMeetingUIMgr@@@Z 00405620 f   arrow_window.obj
 0001:000046a0       ??1CArrowWindow@@QAE@XZ    004056a0 f   arrow_window.obj
 0001:000046e0       ?DestroyWindow@CToolbarBottom@@QAE_NXZ 004056e0 f   toolbar_bottom_ui.obj
 0001:000046e0       ?DestroyWindow@CParticipantUIMgr@@QAE_NXZ 004056e0 f   participant_ui.obj
 0001:000046e0       ?DestroyWindow@CArrowWindow@@QAE_NXZ 004056e0 f   arrow_window.obj
 0001:00004720       ?DoButtonClick@CArrowWindow@@AAEXW4ArrowButtonType@@@Z 00405720 f   arrow_window.obj
 0001:00004750       ?EnableUsingButton@CArrowWindow@@QAEXW4ArrowButtonType@@_N@Z 00405750 f   arrow_window.obj
 0001:00004880       ?GetClassStyle@CToolbarBottom@@UBEIXZ 00405880 f i toolbar_bottom_ui.obj
 0001:00004880       ?GetClassStyle@CMoreMenuUIMgr@@UBEIXZ 00405880 f i more_menu_ui.obj
 0001:00004880       ?GetClassStyle@CArrowWindow@@UBEIXZ 00405880 f i arrow_window.obj
 0001:00004880       ?GetClassStyle@CUtilWnd@@UBEIXZ 00405880 f i util_window.obj
 0001:00004880       ?GetClassStyle@CParticipantUIMgr@@UBEIXZ 00405880 f i participant_ui.obj
 0001:00004880       ?GetClassStyle@CMoreFeaturesUIMgr@@UBEIXZ 00405880 f i more_features_ui.obj
 0001:00004880       ?GetClassStyle@CCustomizeUIShareSelectUI@@UBEIXZ 00405880 f i custom_ui_share_mgr.obj
 0001:00004890       ?GetSkinRes@CArrowWindow@@UAEIXZ 00405890 f i arrow_window.obj
 0001:000048a0       ?HandleMessage@CArrowWindow@@UAEJIIJ@Z 004058a0 f   arrow_window.obj
 0001:00004a50       ?HandleSizeChanged@CArrowWindow@@QAEXUtagRECT@@@Z 00405a50 f   arrow_window.obj
 0001:00004b70       ?InitWindow@CArrowWindow@@UAEXXZ 00405b70 f   arrow_window.obj
 0001:00004c80       ?IsWindow@CToolbarBottom@@QAE_NXZ 00405c80 f   toolbar_bottom_ui.obj
 0001:00004c80       ?IsWindow@CArrowWindow@@QAE_NXZ 00405c80 f   arrow_window.obj
 0001:00004c80       ?IsWindow@CParticipantUIMgr@@QAE_NXZ 00405c80 f   participant_ui.obj
 0001:00004cb0       ?Notify@CArrowWindow@@UAEXAAUtagTNotifyUI@DuiLib@@@Z 00405cb0 f   arrow_window.obj
 0001:00004d20       ??0CameraControlWindow@@QAE@PAVCCustomizeInMeetingUIMgr@@@Z 00405d20 f   CameraControlWindow.obj
 0001:00004dc0       ?GetSkinRes@CameraControlWindow@@UAEIXZ 00405dc0 f i CameraControlWindow.obj
 0001:00004dd0       ?HandleMessage@CameraControlWindow@@UAEJIIJ@Z 00405dd0 f   CameraControlWindow.obj
 0001:00004fe0       ?InitWindow@CameraControlWindow@@UAEXXZ 00405fe0 f   CameraControlWindow.obj
 0001:00005100       ?Notify@CameraControlWindow@@UAEXAAUtagTNotifyUI@DuiLib@@@Z 00406100 f   CameraControlWindow.obj
 0001:000053a0       ??$?0V?$allocator@_W@std@@$$V@?$_Compressed_pair@V?$allocator@_W@std@@V?$_String_val@U?$_Simple_types@_W@std@@@2@$00@std@@QAE@U_One_then_variadic_args_t@1@$$QAV?$allocator@_W@1@@Z 004063a0 f i chat_controller_ui.obj
 0001:000053a0       ??$?0AAV?$allocator@_W@std@@$$V@?$_Compressed_pair@V?$allocator@_W@std@@V?$_String_val@U?$_Simple_types@_W@std@@@2@$00@std@@QAE@U_One_then_variadic_args_t@1@AAV?$allocator@_W@1@@Z 004063a0 f i chat_controller_ui.obj
 0001:000053d0       ??$?H_WU?$char_traits@_W@std@@V?$allocator@_W@1@@std@@YA?AV?$basic_string@_WU?$char_traits@_W@std@@V?$allocator@_W@2@@0@$$QAV10@0@Z 004063d0 f i chat_controller_ui.obj
 0001:00005410       ??$?H_WU?$char_traits@_W@std@@V?$allocator@_W@1@@std@@YA?AV?$basic_string@_WU?$char_traits@_W@std@@V?$allocator@_W@2@@0@$$QAV10@ABV10@@Z 00406410 f i chat_controller_ui.obj
 0001:00005450       ??$?H_WU?$char_traits@_W@std@@V?$allocator@_W@1@@std@@YA?AV?$basic_string@_WU?$char_traits@_W@std@@V?$allocator@_W@2@@0@$$QAV10@QB_W@Z 00406450 f i chat_controller_ui.obj
 0001:00005490       ??$_Allocators_equal@V?$allocator@_W@std@@@std@@YA_NABV?$allocator@_W@0@0@Z 00406490 f i chat_controller_ui.obj
 0001:000054a0       ??$_Pocma@V?$allocator@_W@std@@@std@@YAXAAV?$allocator@_W@0@0@Z 004064a0 f i chat_controller_ui.obj
 0001:000054c0       ??$_Reallocate_grow_by@V<lambda_2fb699096920f2dc628cb0826b07831d>@@PB_WI@?$basic_string@_WU?$char_traits@_W@std@@V?$allocator@_W@2@@std@@AAEAAV01@IV<lambda_2fb699096920f2dc628cb0826b07831d>@@PB_WI@Z 004064c0 f i chat_controller_ui.obj
 0001:000055e0       ??0?$basic_string@_WU?$char_traits@_W@std@@V?$allocator@_W@2@@std@@QAE@$$QAV01@@Z 004065e0 f i chat_controller_ui.obj
 0001:00005640       ??0?$basic_string@_WU?$char_traits@_W@std@@V?$allocator@_W@2@@std@@QAE@U_String_constructor_concat_tag@1@AAV01@1@Z 00406640 f i chat_controller_ui.obj
 0001:00005910       ??0?$basic_string@_WU?$char_traits@_W@std@@V?$allocator@_W@2@@std@@QAE@XZ 00406910 f i chat_controller_ui.obj
 0001:00005950       ??0CSDKMeetingChatUIMgr@@QAE@PAVCCustomizeInMeetingUIMgr@@@Z 00406950 f   chat_controller_ui.obj
 0001:00005a30       ??0IMeetingChatCtrlEventWrap@@QAE@XZ 00406a30 f i chat_controller_ui.obj
 0001:00005a50       ??1CSDKMeetingChatUIMgr@@UAE@XZ 00406a50 f   chat_controller_ui.obj
 0001:00005ae0       ??4?$basic_string@_WU?$char_traits@_W@std@@V?$allocator@_W@2@@std@@QAEAAV01@$$QAV01@@Z 00406ae0 f i chat_controller_ui.obj
 0001:00005b20       ??R<lambda_2fb699096920f2dc628cb0826b07831d>@@QBEXQA_WQB_WI1I@Z 00406b20 f i chat_controller_ui.obj
 0001:00005b80       ??_ECSDKMeetingChatUIMgr@@UAEPAXI@Z 00406b80 f i chat_controller_ui.obj
 0001:00005b80       ??_GCSDKMeetingChatUIMgr@@UAEPAXI@Z 00406b80 f i chat_controller_ui.obj
 0001:00005bc0       ?DestroyWindow@CCustomizeUIShareSelectUI@@QAE_NXZ 00406bc0 f   custom_ui_share_mgr.obj
 0001:00005bc0       ?DestroyWindow@CSDKMeetingChatUIMgr@@QAE_NXZ 00406bc0 f   chat_controller_ui.obj
 0001:00005c00       ?DoPressEnterKey@CSDKMeetingChatUIMgr@@AAEXXZ 00406c00 f   chat_controller_ui.obj
 0001:00006120       ?GetSkinRes@CSDKMeetingChatUIMgr@@UAEIXZ 00407120 f i chat_controller_ui.obj
 0001:00006130       ?GetUserList@CSDKMeetingChatUIMgr@@AAEXXZ 00407130 f   chat_controller_ui.obj
 0001:00006170       ?HandleMessage@CSDKMeetingChatUIMgr@@UAEJIIJ@Z 00407170 f   chat_controller_ui.obj
 0001:00006380       ?HandleUserChanged@CSDKMeetingChatUIMgr@@QAEXXZ 00407380 f   chat_controller_ui.obj
 0001:000063a0       ?InitWindow@CSDKMeetingChatUIMgr@@UAEXXZ 004073a0 f   chat_controller_ui.obj
 0001:00006540       ?Notify@CSDKMeetingChatUIMgr@@UAEXAAUtagTNotifyUI@DuiLib@@@Z 00407540 f   chat_controller_ui.obj
 0001:00006680       ?OnClose@CSDKMeetingChatUIMgr@@QAEJIIJAAH@Z 00407680 f   chat_controller_ui.obj
 0001:000066b0       ?OnDestroy@CSDKMeetingChatUIMgr@@QAEJIIJAAH@Z 004076b0 f   chat_controller_ui.obj
 0001:000066d0       ?SendChatMsg@CSDKMeetingChatUIMgr@@AAE_NIPA_W@Z 004076d0 f   chat_controller_ui.obj
 0001:00006710       ?UpdateUserListCombox@CSDKMeetingChatUIMgr@@AAEXXZ 00407710 f   chat_controller_ui.obj
 0001:00006950       ?_Memcpy_val_from@?$basic_string@_WU?$char_traits@_W@std@@V?$allocator@_W@2@@std@@AAEXABV12@@Z 00407950 f i chat_controller_ui.obj
 0001:000069b0       ?_Move_assign@?$basic_string@_WU?$char_traits@_W@std@@V?$allocator@_W@2@@std@@AAEXAAV12@U_Equal_allocators@2@@Z 004079b0 f i chat_controller_ui.obj
 0001:00006a00       ?_Take_contents@?$basic_string@_WU?$char_traits@_W@std@@V?$allocator@_W@2@@std@@AAEXAAV12@U?$integral_constant@_N$00@2@@Z 00407a00 f i chat_controller_ui.obj
 0001:00006a30       ?append@?$basic_string@_WU?$char_traits@_W@std@@V?$allocator@_W@2@@std@@QAEAAV12@ABV12@@Z 00407a30 f i chat_controller_ui.obj
 0001:00006a60       ?append@?$basic_string@_WU?$char_traits@_W@std@@V?$allocator@_W@2@@std@@QAEAAV12@QB_W@Z 00407a60 f i chat_controller_ui.obj
 0001:00006a90       ?append@?$basic_string@_WU?$char_traits@_W@std@@V?$allocator@_W@2@@std@@QAEAAV12@QB_WI@Z 00407a90 f i chat_controller_ui.obj
 0001:00006b30       ?c_str@?$basic_string@_WU?$char_traits@_W@std@@V?$allocator@_W@2@@std@@QBEPB_WXZ 00407b30 f i chat_controller_ui.obj
 0001:00006b50       ?onChatMsgNotifcation@CSDKMeetingChatUIMgr@@UAEXPAVIChatMsgInfo@ZOOMSDK@@PB_W@Z 00407b50 f   chat_controller_ui.obj
 0001:00007330       ?length@?$basic_string@_WU?$char_traits@_W@std@@V?$allocator@_W@2@@std@@QBEIXZ 00408330 f i custom_ui_share_mgr.obj
 0001:00007330       ?GetTextCallback@CListUI@DuiLib@@UBEPAVIListCallbackUI@2@XZ 00408330 f i DuiLib:UIList.obj
 0001:00007330       ?size@?$basic_string@_WU?$char_traits@_W@std@@V?$allocator@_W@2@@std@@QBEIXZ 00408330 f i chat_controller_ui.obj
 0001:00007350       ??0CSDKChatControllerWorkFlow@@QAE@XZ 00408350 f   chat_controller_workflow.obj
 0001:000073a0       ??0IMeetingChatCtrlEvent@ZOOMSDK@@QAE@XZ 004083a0 f i chat_controller_workflow.obj
 0001:000073c0       ??1CSDKChatControllerWorkFlow@@UAE@XZ 004083c0 f   chat_controller_workflow.obj
 0001:00007430       ??_GCSDKChatControllerWorkFlow@@UAEPAXI@Z 00408430 f i chat_controller_workflow.obj
 0001:00007430       ??_ECSDKChatControllerWorkFlow@@UAEPAXI@Z 00408430 f i chat_controller_workflow.obj
 0001:00007460       ?InitController@CSDKChatControllerWorkFlow@@QAE_NXZ 00408460 f   chat_controller_workflow.obj
 0001:000074e0       ?SendChatMsg@CSDKChatControllerWorkFlow@@QAE?AW4SDKError@ZOOMSDK@@IPA_W@Z 004084e0 f   chat_controller_workflow.obj
 0001:00007520       ?SetEvent@CSDKChatControllerWorkFlow@@QAEXPAVIMeetingChatCtrlEventWrap@@@Z 00408520 f   chat_controller_workflow.obj
 0001:00007540       ?UnInit@CSDKChatControllerWorkFlow@@QAEXXZ 00408540 f   chat_controller_workflow.obj
 0001:00007590       ?onMeetingStatusChanged@CSDKWithoutLoginStartJoinMeetingFlow@@UAEXW4MeetingStatus@ZOOMSDK@@H@Z 00408590 f   LOGIN_join_meeting_only_workflow.obj
 0001:00007590       ?onMeetingStatusChanged@CSDKJoinMeetingForLoginUserFlow@@UAEXW4MeetingStatus@ZOOMSDK@@H@Z 00408590 f   Join_meeting_for_login_user_workflow.obj
 0001:00007590       ?onChatMsgNotifcation@CSDKChatControllerWorkFlow@@UAEXPAVIChatMsgInfo@ZOOMSDK@@PB_W@Z 00408590 f   chat_controller_workflow.obj
 0001:00007590       ?onMeetingStatusChanged@CSDKRestAPIUserWorkFlow@@UAEXW4MeetingStatus@ZOOMSDK@@H@Z 00408590 f   LOGIN_restapi_without_login_workflow.obj
 0001:000075c0       ?onMeetingStatisticsWarningNotification@CSDKRestAPIUserWorkFlow@@UAEXW4StatisticsWarningType@ZOOMSDK@@@Z 004085c0 f   LOGIN_restapi_without_login_workflow.obj
 0001:000075c0       ?onChatStautsChangedNotification@CSDKChatControllerWorkFlow@@UAEXPAUtagChatStatus@ZOOMSDK@@@Z 004085c0 f   chat_controller_workflow.obj
 0001:000075f0       ??$?8_WU?$char_traits@_W@std@@V?$allocator@_W@1@@std@@YA_NQB_WABV?$basic_string@_WU?$char_traits@_W@std@@V?$allocator@_W@2@@0@@Z 004085f0 f i close_caption_ui.obj
 0001:00007610       ??0CCloseCaptionUIMgr@@QAE@PAVCCustomizeInMeetingUIMgr@@@Z 00408610 f   close_caption_ui.obj
 0001:000076f0       ??0IClosedCaptionWorkflowEvent@@QAE@XZ 004086f0 f i close_caption_ui.obj
 0001:00007710       ??1CCloseCaptionUIMgr@@UAE@XZ 00408710 f   close_caption_ui.obj
 0001:000077e0       ??_ECCloseCaptionUIMgr@@UAEPAXI@Z 004087e0 f i close_caption_ui.obj
 0001:000077e0       ??_GCCloseCaptionUIMgr@@UAEPAXI@Z 004087e0 f i close_caption_ui.obj
 0001:00007820       ?DoClickAssignedBtn@CCloseCaptionUIMgr@@AAEXXZ 00408820 f   close_caption_ui.obj
 0001:00007cd0       ?DoClickCopyBtn@CCloseCaptionUIMgr@@AAEXXZ 00408cd0 f   close_caption_ui.obj
 0001:00007d30       ?DoClickEnterBtn@CCloseCaptionUIMgr@@AAEXXZ 00408d30 f   close_caption_ui.obj
 0001:00007f20       ?DoClickSaveBtn@CCloseCaptionUIMgr@@AAEXXZ 00408f20 f   close_caption_ui.obj
 0001:00007f90       ?GetAssignedStatus@CCloseCaptionUIMgr@@QAE_NXZ 00408f90 f   close_caption_ui.obj
 0001:00007fb0       ?GetSkinRes@CCloseCaptionUIMgr@@UAEIXZ 00408fb0 f i close_caption_ui.obj
 0001:00007fc0       ?HandleMessage@CCloseCaptionUIMgr@@UAEJIIJ@Z 00408fc0 f   close_caption_ui.obj
 0001:000081d0       ?HideAssignLayout@CCloseCaptionUIMgr@@QAEXXZ 004091d0 f   close_caption_ui.obj
 0001:00008210       ?Init@CCloseCaptionUIMgr@@AAEXXZ 00409210 f   close_caption_ui.obj
 0001:000082e0       ?InitWindow@CCloseCaptionUIMgr@@UAEXXZ 004092e0 f   close_caption_ui.obj
 0001:000085d0       ?IsHost@CCloseCaptionUIMgr@@QAE_NXZ 004095d0 f   close_caption_ui.obj
 0001:000085f0       ?Notify@CCloseCaptionUIMgr@@UAEXAAUtagTNotifyUI@DuiLib@@@Z 004095f0 f   close_caption_ui.obj
 0001:000086b0       ?ShowErrorsMsg@CCloseCaptionUIMgr@@AAEXPB_W@Z 004096b0 f   close_caption_ui.obj
 0001:000086d0       ?UpdateListCombox@CCloseCaptionUIMgr@@QAEXXZ 004096d0 f   close_caption_ui.obj
 0001:00008910       ?onAssignedToSendCC@CCloseCaptionUIMgr@@UAEX_N@Z 00409910 f   close_caption_ui.obj
 0001:00008970       ?onClosedCaptionMsgReceived@CCloseCaptionUIMgr@@UAEXPB_W_J@Z 00409970 f   close_caption_ui.obj
 0001:00008bf0       ??0CCloseCaptionWorkflow@@QAE@XZ 00409bf0 f   close_caption_workflow.obj
 0001:00008c30       ??0IClosedCaptionControllerEvent@ZOOMSDK@@QAE@XZ 00409c30 f i close_caption_workflow.obj
 0001:00008c50       ??1CCloseCaptionWorkflow@@UAE@XZ 00409c50 f   close_caption_workflow.obj
 0001:00008cc0       ??_ECCloseCaptionWorkflow@@UAEPAXI@Z 00409cc0 f i close_caption_workflow.obj
 0001:00008cc0       ??_GCCloseCaptionWorkflow@@UAEPAXI@Z 00409cc0 f i close_caption_workflow.obj
 0001:00008cf0       ?AssignCCPriviledge@CCloseCaptionWorkflow@@QAE?AW4SDKError@ZOOMSDK@@I_N@Z 00409cf0 f   close_caption_workflow.obj
 0001:00008d40       ?CanBeAssignedToSendCC@CCloseCaptionWorkflow@@QAE_NI@Z 00409d40 f   close_caption_workflow.obj
 0001:00008d80       ?CanIAssignOthersToSendCC@CCloseCaptionWorkflow@@QAE_NXZ 00409d80 f   close_caption_workflow.obj
 0001:00008dc0       ?CanSendClosedCaption@CCloseCaptionWorkflow@@QAE_NXZ 00409dc0 f   close_caption_workflow.obj
 0001:00008e00       ?GetClosedCaptionSavePath@CCloseCaptionWorkflow@@QAEPB_WXZ 00409e00 f   close_caption_workflow.obj
 0001:00008e40       ?GetClosedCaptionUrlFor3rdParty@CCloseCaptionWorkflow@@QAEPB_WXZ 00409e40 f   close_caption_workflow.obj
 0001:00008e80       ?Init@CCloseCaptionWorkflow@@QAEXXZ 00409e80 f   close_caption_workflow.obj
 0001:00008ee0       ?SaveCCHistory@CCloseCaptionWorkflow@@QAE?AW4SDKError@ZOOMSDK@@XZ 00409ee0 f   close_caption_workflow.obj
 0001:00008f40       ?SendClosedCaption@CCloseCaptionWorkflow@@QAE?AW4SDKError@ZOOMSDK@@PB_W@Z 00409f40 f   close_caption_workflow.obj
 0001:00008f80       ?SetEvent@CCloseCaptionWorkflow@@QAEXPAVIClosedCaptionWorkflowEvent@@@Z 00409f80 f   close_caption_workflow.obj
 0001:00008f80       ?SetDrawIndex@CListContainerElementUI@DuiLib@@UAEXH@Z 00409f80 f   DuiLib:UIList.obj
 0001:00008f80       ?SetUIEvent@CSDKAudioSettingsWorkFlow@@QAEXPAVCSDKAudioSettingsUIEvent@@@Z 00409f80 f   SETTINGS_audio_workflow.obj
 0001:00008f80       ?SetUIEvent@CSDKWithoutLoginStartJoinMeetingFlow@@QAEXPAVCSDKJoinMeetingOnlyFlowUIEvent@@@Z 00409f80 f   LOGIN_join_meeting_only_workflow.obj
 0001:00008f80       ?SetDrawIndex@CListElementUI@DuiLib@@UAEXH@Z 00409f80 f   DuiLib:UIList.obj
 0001:00008f80       ?SetUIEvent@CSDKLoggedInUIWorkFlow@@QAEXPAVCSDKLoggedInFlowUIEvent@@@Z 00409f80 f   LoggedIn_sdk_controller_workflow.obj
 0001:00008f80       ?SetUIEvent@CSDKVideoSettingsWorkFlow@@QAEXPAVCSDKVideoSettingsUIEvent@@@Z 00409f80 f   SETTINGS_video_workflow.obj
 0001:00008fa0       ?onAssignedToSendCC@CCloseCaptionWorkflow@@UAEX_N@Z 00409fa0 f   close_caption_workflow.obj
 0001:00008fd0       ?onClosedCaptionMsgReceived@CCloseCaptionWorkflow@@UAEXPB_W_J@Z 00409fd0 f   close_caption_workflow.obj
 0001:00009010       ??0CustomizedUIRecordMgr@@AAE@XZ 0040a010 f   CustomizedUIRecordMgr.obj
 0001:00009040       ??0IMeetingRecordingCtrlEvent@ZOOMSDK@@QAE@XZ 0040a040 f i CustomizedUIRecordMgr.obj
 0001:00009060       ??4?$basic_string@_WU?$char_traits@_W@std@@V?$allocator@_W@2@@std@@QAEAAV01@QB_W@Z 0040a060 f i CustomizedUIRecordMgr.obj
 0001:00009080       ?AllowLocalRecording@CustomizedUIRecordMgr@@QAE_NI@Z 0040a080 f   CustomizedUIRecordMgr.obj
 0001:000090d0       ?CanIChangeOthersRecordingPermission@CustomizedUIRecordMgr@@QAE_NXZ 0040a0d0 f   CustomizedUIRecordMgr.obj
 0001:00009120       ?CanIStartCloudRecording@CustomizedUIRecordMgr@@QAE_NXZ 0040a120 f   CustomizedUIRecordMgr.obj
 0001:00009140       ?CanIStartLocalRecording@CustomizedUIRecordMgr@@QAE_NXZ 0040a140 f   CustomizedUIRecordMgr.obj
 0001:00009160       ?CanTheUserStartCloudRecording@CustomizedUIRecordMgr@@QAE_NI@Z 0040a160 f   CustomizedUIRecordMgr.obj
 0001:000091b0       ?CanTheUserStartLocalRecording@CustomizedUIRecordMgr@@QAE_NI@Z 0040a1b0 f   CustomizedUIRecordMgr.obj
 0001:00009200       ?DisAllowLocalRecording@CustomizedUIRecordMgr@@QAE_NI@Z 0040a200 f   CustomizedUIRecordMgr.obj
 0001:00009250       ?GetInstance@CustomizedUIRecordMgr@@SAPAV1@XZ 0040a250 f   CustomizedUIRecordMgr.obj
 0001:000092e0       ?GetRecordController@CustomizedUIRecordMgr@@AAEXXZ 0040a2e0 f   CustomizedUIRecordMgr.obj
 0001:00009350       ?StartCloudRecording@CustomizedUIRecordMgr@@QAE_NXZ 0040a350 f   CustomizedUIRecordMgr.obj
 0001:000093a0       ?StartRecording@CustomizedUIRecordMgr@@QAE_NAA_J@Z 0040a3a0 f   CustomizedUIRecordMgr.obj
 0001:00009440       ?StopCloudRecording@CustomizedUIRecordMgr@@QAE_NXZ 0040a440 f   CustomizedUIRecordMgr.obj
 0001:00009490       ?StopRecording@CustomizedUIRecordMgr@@QAE_NAA_J@Z 0040a490 f   CustomizedUIRecordMgr.obj
 0001:000094e0       ?onCloudRecordingStatus@CustomizedUIRecordMgr@@UAEXW4RecordingStatus@ZOOMSDK@@@Z 0040a4e0 f   CustomizedUIRecordMgr.obj
 0001:000095d0       ?onCustomizedLocalRecordingSourceNotification@CustomizedUIRecordMgr@@UAEXPAVICustomizedLocalRecordingLayoutHelper@ZOOMSDK@@@Z 0040a5d0 f   CustomizedUIRecordMgr.obj
 0001:00009900       ?onRecordPriviligeChanged@CustomizedUIRecordMgr@@UAEX_N@Z 0040a900 f   CustomizedUIRecordMgr.obj
 0001:00009940       ?onRecording2MP4Done@CustomizedUIRecordMgr@@UAEX_NHPB_W@Z 0040a940 f   CustomizedUIRecordMgr.obj
 0001:00009a00       ?onRecording2MP4Processing@CustomizedUIRecordMgr@@UAEXH@Z 0040aa00 f   CustomizedUIRecordMgr.obj
 0001:00009a60       ?onRecordingStatus@CustomizedUIRecordMgr@@UAEXW4RecordingStatus@ZOOMSDK@@@Z 0040aa60 f   CustomizedUIRecordMgr.obj
 0001:00009b00       ??0CCustomizeInMeetingUIMgr@@QAE@XZ 0040ab00 f   custom_ui_mgr.obj
 0001:00009c10       ??0ICustomizedShareRenderEvent@ZOOMSDK@@QAE@XZ 0040ac10 f i custom_ui_mgr.obj
 0001:00009c30       ??0ICustomizedUIMgrEvent@ZOOMSDK@@QAE@XZ 0040ac30 f i custom_ui_mgr.obj
 0001:00009c50       ??0ICustomizedVideoContainerEvent@ZOOMSDK@@QAE@XZ 0040ac50 f i custom_ui_mgr.obj
 0001:00009c70       ??0ICutomizedUIOwnWndInterface@@IAE@XZ 0040ac70 f i custom_ui_mgr.obj
 0001:00009ca0       ??0ISDKInMeetingServiceCustomUIEvent@@QAE@XZ 0040aca0 f i custom_ui_mgr.obj
 0001:00009cc0       ??_GCArrowWindow@@QAEPAXI@Z 0040acc0 f i custom_ui_mgr.obj
 0001:00009d00       ??_GCMoreMenuUIMgr@@QAEPAXI@Z 0040ad00 f i custom_ui_mgr.obj
 0001:00009d40       ??_GCParticipantUIMgr@@QAEPAXI@Z 0040ad40 f i custom_ui_mgr.obj
 0001:00009d80       ?ActivateUI@CCustomizeInMeetingUIMgr@@QAEXXZ 0040ad80 f   custom_ui_mgr.obj
 0001:00009de0       ?CreateArrowWindow@CCustomizeInMeetingUIMgr@@AAEXXZ 0040ade0 f   custom_ui_mgr.obj
 0001:00009fb0       ?CreateCameraControlWindow@CCustomizeInMeetingUIMgr@@AAEXXZ 0040afb0 f   custom_ui_mgr.obj
 0001:0000a0a0       ?CreateChatWindow@CCustomizeInMeetingUIMgr@@AAEXXZ 0040b0a0 f   custom_ui_mgr.obj
 0001:0000a1b0       ?CreateDisplayCCWnd@CCustomizeInMeetingUIMgr@@QAEPAVClosedCaptionDisplayUI@@XZ 0040b1b0 f   custom_ui_mgr.obj
 0001:0000a2e0       ?CreateParticipantWindow@CCustomizeInMeetingUIMgr@@AAEXXZ 0040b2e0 f   custom_ui_mgr.obj
 0001:0000a3e0       ?DestroyAllSubWindow@CCustomizeInMeetingUIMgr@@AAEXXZ 0040b3e0 f   custom_ui_mgr.obj
 0001:0000a430       ?DestroyArrowWindow@CCustomizeInMeetingUIMgr@@AAEXXZ 0040b430 f   custom_ui_mgr.obj
 0001:0000a510       ?DestroyChatWindow@CCustomizeInMeetingUIMgr@@AAEXXZ 0040b510 f   custom_ui_mgr.obj
 0001:0000a590       ?DestroyDisplayCCWnd@CCustomizeInMeetingUIMgr@@QAEXXZ 0040b590 f   custom_ui_mgr.obj
 0001:0000a5f0       ?DestroyMoreMenuWindow@CCustomizeInMeetingUIMgr@@AAEXXZ 0040b5f0 f   custom_ui_mgr.obj
 0001:0000a660       ?DestroyParticipantWindow@CCustomizeInMeetingUIMgr@@AAEXXZ 0040b660 f   custom_ui_mgr.obj
 0001:0000a6e0       ?DoLayout@CCustomizeInMeetingUIMgr@@AAEXXZ 0040b6e0 f   custom_ui_mgr.obj
 0001:0000a720       ?DoLayoutActiveVideo@CCustomizeInMeetingUIMgr@@AAEXXZ 0040b720 f   custom_ui_mgr.obj
 0001:0000a750       ?DoLayoutArrowWindow@CCustomizeInMeetingUIMgr@@AAEXXZ 0040b750 f   custom_ui_mgr.obj
 0001:0000a980       ?DoLayoutNormalVideo@CCustomizeInMeetingUIMgr@@AAEXXZ 0040b980 f   custom_ui_mgr.obj
 0001:0000a9d0       ?DoLayoutParticipantsWindow@CCustomizeInMeetingUIMgr@@AAEXXZ 0040b9d0 f   custom_ui_mgr.obj
 0001:0000aaf0       ?GetCustomizedMgr@CCustomizeInMeetingUIMgr@@QAEPAVICustomizedUIMgr@ZOOMSDK@@XZ 0040baf0 f   custom_ui_mgr.obj
 0001:0000ab10       ?GetWindowHandle@CCustomizeUIShareRenderUI@@QAEPAUHWND__@@XZ 0040bb10 f   custom_ui_share_mgr.obj
 0001:0000ab10       ?GetObjectW@CDelegateBase@DuiLib@@IAEPAXXZ 0040bb10 f   DuiLib:UIDelegate.obj
 0001:0000ab10       ?GetSize@CDuiPtrArray@DuiLib@@QBEHXZ 0040bb10 f   DuiLib:Utils.obj
 0001:0000ab10       ?GetIndex@CListContainerElementUI@DuiLib@@UBEHXZ 0040bb10 f   DuiLib:UIList.obj
 0001:0000ab10       ?GetHWND@CWindowWnd@DuiLib@@QBEPAUHWND__@@XZ 0040bb10 f   DuiLib:UIBase.obj
 0001:0000ab10       ?GetHWND@CCustomizeInMeetingUIMgr@@QAEPAUHWND__@@XZ 0040bb10 f   custom_ui_mgr.obj
 0001:0000ab10       ?GetIndex@CListElementUI@DuiLib@@UBEHXZ 0040bb10 f   DuiLib:UIList.obj
 0001:0000ab10       ??BCWindowWnd@DuiLib@@QBEPAUHWND__@@XZ 0040bb10 f   DuiLib:UIBase.obj
 0001:0000ab30       ?GetUserList@CCustomizeInMeetingUIMgr@@QAEPAVCSDKUserList@@XZ 0040bb30 f   custom_ui_mgr.obj
 0001:0000ab30       ?GetRoot@CPaintManagerUI@DuiLib@@QBEPAVCControlUI@2@XZ 0040bb30 f   DuiLib:UIManager.obj
 0001:0000ab50       ?HandleChatWindowBeClosed@CCustomizeInMeetingUIMgr@@QAEXXZ 0040bb50 f   custom_ui_mgr.obj
 0001:0000ab70       ?HandleInMeeting@CCustomizeInMeetingUIMgr@@AAEXXZ 0040bb70 f   custom_ui_mgr.obj
 0001:0000ac10       ?HandleMoveToWaitingRoom@CCustomizeInMeetingUIMgr@@AAEXXZ 0040bc10 f   custom_ui_mgr.obj
 0001:0000ac80       ?HideMenuWhenMenuVisible@CCustomizeInMeetingUIMgr@@QAE_NXZ 0040bc80 f   custom_ui_mgr.obj
 0001:0000acd0       ?Init@CCustomizeInMeetingUIMgr@@QAEXXZ 0040bcd0 f   custom_ui_mgr.obj
 0001:0000ad20       ?InitCustomShareRender@CCustomizeInMeetingUIMgr@@AAE_NXZ 0040bd20 f   custom_ui_mgr.obj
 0001:0000ae30       ?InitCustomizeUIVideoMgr@CCustomizeInMeetingUIMgr@@AAE_NXZ 0040be30 f   custom_ui_mgr.obj
 0001:0000af70       ?InitUserList@CCustomizeInMeetingUIMgr@@AAEXXZ 0040bf70 f   custom_ui_mgr.obj
 0001:0000b010       ?PageButtonClick@CCustomizeInMeetingUIMgr@@QAEXW4ArrowButtonType@@@Z 0040c010 f   custom_ui_mgr.obj
 0001:0000b050       ?Reset@CCustomizeInMeetingUIMgr@@AAEXXZ 0040c050 f   custom_ui_mgr.obj
 0001:0000b140       ?SetEvent@CCustomizeInMeetingUIMgr@@QAEXPAVCSDKDemoAppEvent@@@Z 0040c140 f   custom_ui_mgr.obj
 0001:0000b160       ?SetIndex@CListContainerElementUI@DuiLib@@UAEXH@Z 0040c160 f   DuiLib:UIList.obj
 0001:0000b160       ?SetEvent@CToolbarMgr@@QAEXPAVCSDKDemoAppEvent@@@Z 0040c160 f   toolbar_manager.obj
 0001:0000b160       ?SetUICustomCurrentPage@CSDKUICustomSettingsUIGroup@@QAEXPAVCVerticalLayoutUI@DuiLib@@@Z 0040c160 f   settings_ui.obj
 0001:0000b160       ?SetUIEvent@CAuthSDKWorkFlow@@QAEXPAVCAuthSDKWorkFlowUIEvent@@@Z 0040c160 f   init_auth_sdk_workflow.obj
 0001:0000b160       ?SetFeatureCustomCurrentPage@CSDKFeatureCustomSettingsUIGroup@@QAEXPAVCVerticalLayoutUI@DuiLib@@@Z 0040c160 f   settings_ui.obj
 0001:0000b160       ?SetUIEvent@CToolbarBottomWorkFlow@@QAEXPAVCToolbarBottomWorkFlowUIEvent@@@Z 0040c160 f   toolbar_bottom_workflow.obj
 0001:0000b160       ?SetUIEvent@CInitSDKWorkFlow@@QAEXPAVCInitSDKWorkFlowUIEvent@@@Z 0040c160 f   init_auth_sdk_workflow.obj
 0001:0000b160       ?SetUIEvent@CSDKRestAPIUserWorkFlow@@QAEXPAVCSDKRestAPIUserUIEvent@@@Z 0040c160 f   LOGIN_restapi_without_login_workflow.obj
 0001:0000b160       ?SetSDKMeetingService@CCustomizeInMeetingUIMgr@@UAEXPAVIMeetingService@ZOOMSDK@@@Z 0040c160 f   custom_ui_mgr.obj
 0001:0000b160       ?SetIndex@CListElementUI@DuiLib@@UAEXH@Z 0040c160 f   DuiLib:UIList.obj
 0001:0000b160       ?SetUIEvent@CSDKJoinMeetingForLoginUserFlow@@QAEXPAVCSDKJoinMeetingForLoginUserFlowUIEvent@@@Z 0040c160 f   Join_meeting_for_login_user_workflow.obj
 0001:0000b180       ?ShowHideCameraControlWindow@CCustomizeInMeetingUIMgr@@QAEXXZ 0040c180 f   custom_ui_mgr.obj
 0001:0000b230       ?ShowHideChatWindow@CCustomizeInMeetingUIMgr@@QAEXXZ 0040c230 f   custom_ui_mgr.obj
 0001:0000b300       ?ShowHideGalleryViewWindow@CCustomizeInMeetingUIMgr@@QAEXXZ 0040c300 f   custom_ui_mgr.obj
 0001:0000b450       ?ShowHideMoreMenuWindow@CCustomizeInMeetingUIMgr@@QAEXHH@Z 0040c450 f   custom_ui_mgr.obj
 0001:0000b570       ?ShowHideParticipantWindow@CCustomizeInMeetingUIMgr@@QAEXXZ 0040c570 f   custom_ui_mgr.obj
 0001:0000b610       ?ShowPreview@CCustomizeInMeetingUIMgr@@AAEXXZ 0040c610 f   custom_ui_mgr.obj
 0001:0000b680       ?ShowShareWindow@CCustomizeInMeetingUIMgr@@QAEXXZ 0040c680 f   custom_ui_mgr.obj
 0001:0000b6b0       ?ShowToolbar@CCustomizeInMeetingUIMgr@@AAEXXZ 0040c6b0 f   custom_ui_mgr.obj
 0001:0000b770       ?Start@CCustomizeInMeetingUIMgr@@AAEXXZ 0040c770 f   custom_ui_mgr.obj
 0001:0000b8d0       ?Stop@CCustomizeInMeetingUIMgr@@AAEXXZ 0040c8d0 f   custom_ui_mgr.obj
 0001:0000b9b0       ?UninitUserList@CCustomizeInMeetingUIMgr@@AAEXXZ 0040c9b0 f   custom_ui_mgr.obj
 0001:0000ba10       ?UpdateMeetingTitle@CCustomizeInMeetingUIMgr@@AAEX_N@Z 0040ca10 f   custom_ui_mgr.obj
 0001:0000bb40       ?UpdateParticipantsWindow@CCustomizeInMeetingUIMgr@@QAEXXZ 0040cb40 f   custom_ui_mgr.obj
 0001:0000bb70       ?UpdateShareButtonStatus@CCustomizeInMeetingUIMgr@@QAEXXZ 0040cb70 f   custom_ui_mgr.obj
 0001:0000bbd0       ?UpdateToolbarButtons@CCustomizeInMeetingUIMgr@@QAEXXZ 0040cbd0 f   custom_ui_mgr.obj
 0001:0000bca0       ?UpdateUserList@CCustomizeInMeetingUIMgr@@AAEXXZ 0040cca0 f   custom_ui_mgr.obj
 0001:0000bd70       ?adjust_wnd_pos@ICutomizedUIOwnWndInterface@@IAEXHHPAUHWND__@@@Z 0040cd70 f i custom_ui_mgr.obj
 0001:0000be40       ?create_owner_hwnd@ICutomizedUIOwnWndInterface@@IAEPAUHWND__@@PAV1@HH@Z 0040ce40 f i custom_ui_mgr.obj
 0001:0000bf40       ?destroy_owner_wnd@ICutomizedUIOwnWndInterface@@IAEXXZ 0040cf40 f i custom_ui_mgr.obj
 0001:0000bf80       ?my_wnd_proc@ICutomizedUIOwnWndInterface@@KGJPAUHWND__@@IIJ@Z 0040cf80 f i custom_ui_mgr.obj
 0001:0000c090       ?onDestroyed@CCustomizeInMeetingUIMgr@@UAEXXZ 0040d090 f   custom_ui_mgr.obj
 0001:0000c110       ?onLayoutNotification@CCustomizeInMeetingUIMgr@@UAEXUtagRECT@@@Z 0040d110 f   custom_ui_mgr.obj
 0001:0000c130       ?onMeetingStatusChanged@CCustomizeInMeetingUIMgr@@UAEXW4MeetingStatus@ZOOMSDK@@H@Z 0040d130 f   custom_ui_mgr.obj
 0001:0000c1f0       ?onMove@CCustomizeInMeetingUIMgr@@UAEXXZ 0040d1f0 f   custom_ui_mgr.obj
 0001:0000c240       ?onRemoteControlStatus@CCustomizeInMeetingUIMgr@@UAEXW4RemoteControlStatus@ZOOMSDK@@I@Z 0040d240 f   custom_ui_mgr.obj
 0001:0000c270       ?onDefaultSpeakerDeviceChanged@CSDKAudioSettingsUIGroup@@UAEXPB_W0@Z 0040d270 f   settings_ui.obj
 0001:0000c270       ?_Orphan_range@?$vector@PAVIVirtualBGImageInfo@ZOOMSDK@@V?$allocator@PAVIVirtualBGImageInfo@ZOOMSDK@@@std@@@std@@ABEXPAPAVIVirtualBGImageInfo@ZOOMSDK@@0@Z 0040d270 f   settings_ui.obj
 0001:0000c270       ?onDefaultMicDeviceChanged@CSDKAudioSettingsWorkFlow@@UAEXPB_W0@Z 0040d270 f   SETTINGS_audio_workflow.obj
 0001:0000c270       ?onUserLeft@CMoreFeaturesUIMgr@@UAEXPAV?$IList@I@ZOOMSDK@@PB_W@Z 0040d270 f   more_features_ui.obj
 0001:0000c270       ?onLowOrRaiseHandStatusChanged@CSDKCustomUIWorkFlow@@UAEX_NI@Z 0040d270 f   custom_ui_mgr_flow.obj
 0001:0000c270       ?onCoHostChangeNotification@CSDKCustomUIWorkFlow@@UAEXI_N@Z 0040d270 f   custom_ui_mgr_flow.obj
 0001:0000c270       ?onDefaultCamDeviceChanged@CSDKVideoSettingsUIGroup@@UAEXPB_W0@Z 0040d270 f   settings_ui.obj
 0001:0000c270       ?onRenderDataTypeChanged@CCustomizeInMeetingUIMgr@@UAEXPAVIVideoRenderElement@ZOOMSDK@@W4VideoRenderDataType@3@@Z 0040d270 f   custom_ui_mgr.obj
 0001:0000c270       ?OnMicSpkVolumnChanged@CSDKCustomUIWorkFlow@@UAEXII@Z 0040d270 f   custom_ui_mgr_flow.obj
 0001:0000c270       ?onSpotlightVideoChangeNotification@CUtilWnd@@UAEX_NI@Z 0040d270 f   util_window.obj
 0001:0000c270       ?OnTestMicStatusChanged@CSDKCustomUIWorkFlow@@UAEXW4SDK_TESTMIC_STATUS@ZOOMSDK@@AA_N@Z 0040d270 f   custom_ui_mgr_flow.obj
 0001:0000c270       ?onUserJoin@CMoreFeaturesUIMgr@@UAEXPAV?$IList@I@ZOOMSDK@@PB_W@Z 0040d270 f   more_features_ui.obj
 0001:0000c270       ?_Orphan_range@?$vector@PAVIUserInfo@ZOOMSDK@@V?$allocator@PAVIUserInfo@ZOOMSDK@@@std@@@std@@ABEXPAPAVIUserInfo@ZOOMSDK@@0@Z 0040d270 f   user_manager.obj
 0001:0000c270       ?onSpotlightVideoChangeNotification@CSDKCustomUIWorkFlow@@UAEX_NI@Z 0040d270 f   custom_ui_mgr_flow.obj
 0001:0000c270       ?OnDirectShareStatusUpdate@CSDKLoggedInUIMgr@@UAEXW4DirectShareStatusStatus_Enum@ZOOMSDK@@PAVIDirectShareViaMeetingIDOrPairingCodeHandler@3@@Z 0040d270 f   LoggedIn_sdk_controller_ui.obj
 0001:0000c270       ?_Orphan_range@?$vector@PAVIInterpreterInfo@ZOOMSDK@@V?$allocator@PAVIInterpreterInfo@ZOOMSDK@@@std@@@std@@ABEXPAPAVIInterpreterInfo@ZOOMSDK@@0@Z 0040d270 f   schedule_meeting_ui.obj
 0001:0000c270       ?onAudioBtnClicked@CSDKCustomUIWorkFlow@@UAEXUtagAudioBtnClickedCallbackInfo@ZOOMSDK@@@Z 0040d270 f   custom_ui_mgr_flow.obj
 0001:0000c270       ?_Orphan_range@?$vector@PAVIAlternativeHostInfo@ZOOMSDK@@V?$allocator@PAVIAlternativeHostInfo@ZOOMSDK@@@std@@@std@@ABEXPAPAVIAlternativeHostInfo@ZOOMSDK@@0@Z 0040d270 f   schedule_meeting_ui.obj
 0001:0000c270       ?_Orphan_range@?$vector@V?$basic_string@_WU?$char_traits@_W@std@@V?$allocator@_W@2@@std@@V?$allocator@V?$basic_string@_WU?$char_traits@_W@std@@V?$allocator@_W@2@@std@@@2@@std@@ABEXPAV?$basic_string@_WU?$char_traits@_W@std@@V?$allocator@_W@2@@2@0@Z 0040d270 f   custom_ui_share_flow.obj
 0001:0000c270       ?DrawItemText@CListContainerElementUI@DuiLib@@UAEXPAUHDC__@@ABUtagRECT@@@Z 0040d270 f   DuiLib:UIList.obj
 0001:0000c270       ?onDefaultMicDeviceChanged@CSDKAudioSettingsUIGroup@@UAEXPB_W0@Z 0040d270 f   settings_ui.obj
 0001:0000c270       ?onDefaultCamDeviceChanged@CSDKVideoSettingsWorkFlow@@UAEXPB_W0@Z 0040d270 f   SETTINGS_video_workflow.obj
 0001:0000c270       ?onChatMsgNotifcation@CSDKCustomUIWorkFlow@@UAEXPAVIChatMsgInfo@ZOOMSDK@@PB_W@Z 0040d270 f   custom_ui_mgr_flow.obj
 0001:0000c270       ?onLoginRet@CSDKWithoutLoginStartJoinMeetingFlow@@UAEXW4LOGINSTATUS@ZOOMSDK@@PAVIAccountInfo@3@@Z 0040d270 f   LOGIN_join_meeting_only_workflow.obj
 0001:0000c270       ?onSubscribeUserFail@CCustomizeInMeetingUIMgr@@UAEXHPAVIVideoRenderElement@ZOOMSDK@@@Z 0040d270 f   custom_ui_mgr.obj
 0001:0000c270       ?onDefaultSpeakerDeviceChanged@CSDKAudioSettingsWorkFlow@@UAEXPB_W0@Z 0040d270 f   SETTINGS_audio_workflow.obj
 0001:0000c270       ?onRenderUserChanged@CCustomizeInMeetingUIMgr@@UAEXPAVIVideoRenderElement@ZOOMSDK@@I@Z 0040d270 f   custom_ui_mgr.obj
 0001:0000c270       ?onLoginRet@CAuthSDKWorkFlow@@UAEXW4LOGINSTATUS@ZOOMSDK@@PAVIAccountInfo@3@@Z 0040d270 f   init_auth_sdk_workflow.obj
 0001:0000c280       ?onShareRenderDestroyed@CCustomizeInMeetingUIMgr@@UAEXPAVICustomizedShareRender@ZOOMSDK@@@Z 0040d280 f   custom_ui_mgr.obj
 0001:0000c2b0       ?onShareRenderWindowMsgNotification@CCustomizeInMeetingUIMgr@@UAEXIIJ@Z 0040d2b0 f   custom_ui_mgr.obj
 0001:0000c2b0       ?onVideoContainerWindowMsgNotification@CCustomizeInMeetingUIMgr@@UAEXIIJ@Z 0040d2b0 f   custom_ui_mgr.obj
 0001:0000c2f0       ?onSharingShareAnnotationStatusChanged@CCustomizeInMeetingUIMgr@@UAEXPAVICustomizedShareRender@ZOOMSDK@@W4CustomizedShareAnnotationStatus@3@@Z 0040d2f0 f   custom_ui_mgr.obj
 0001:0000c320       ?onSharingStatus@CCustomizeInMeetingUIMgr@@UAEXW4SharingStatus@ZOOMSDK@@I@Z 0040d320 f   custom_ui_mgr.obj
 0001:0000c350       ?onSize@CCustomizeInMeetingUIMgr@@UAEXAAUtagRECT@@@Z 0040d350 f   custom_ui_mgr.obj
 0001:0000c4f0       ?onUserAudioStatusChange@CCustomizeInMeetingUIMgr@@UAEXPAV?$IList@PAVIUserAudioStatus@ZOOMSDK@@@ZOOMSDK@@PB_W@Z 0040d4f0 f   custom_ui_mgr.obj
 0001:0000c580       ?onUserJoin@CCustomizeInMeetingUIMgr@@UAEXPAV?$IList@I@ZOOMSDK@@PB_W@Z 0040d580 f   custom_ui_mgr.obj
 0001:0000c6d0       ?onUserLeft@CCustomizeInMeetingUIMgr@@UAEXPAV?$IList@I@ZOOMSDK@@PB_W@Z 0040d6d0 f   custom_ui_mgr.obj
 0001:0000c7d0       ?onUserNameChanged@CCustomizeInMeetingUIMgr@@UAEXIPB_W@Z 0040d7d0 f   custom_ui_mgr.obj
 0001:0000c7f0       ?onUserVideoStatusChange@CCustomizeInMeetingUIMgr@@UAEXIW4VideoStatus@ZOOMSDK@@@Z 0040d7f0 f   custom_ui_mgr.obj
 0001:0000c880       ?onVideoContainerDestroyed@CCustomizeInMeetingUIMgr@@UAEXPAVICustomizedVideoContainer@ZOOMSDK@@@Z 0040d880 f   custom_ui_mgr.obj
 0001:0000c8b0       ?onVideoRenderElementDestroyed@CCustomizeInMeetingUIMgr@@UAEXPAVIVideoRenderElement@ZOOMSDK@@@Z 0040d8b0 f   custom_ui_mgr.obj
 0001:0000c8e0       ?onWindowMsgNotification@CCustomizeInMeetingUIMgr@@UAEXIIJ@Z 0040d8e0 f i custom_ui_mgr.obj
 0001:0000c90a       ?onWindowMsgNotification@CCustomizeInMeetingUIMgr@@W3AEXIIJ@Z 0040d90a f i custom_ui_mgr.obj
 0001:0000c920       ?register_window_class@ICutomizedUIOwnWndInterface@@IAEHPAUHINSTANCE__@@@Z 0040d920 f i custom_ui_mgr.obj
 0001:0000c9d0       ??0CSDKCustomUIWorkFlow@@QAE@XZ 0040d9d0 f   custom_ui_mgr_flow.obj
 0001:0000cae0       ??0ICustomizedAnnotationControllerEvent@ZOOMSDK@@QAE@XZ 0040dae0 f i custom_ui_mgr_flow.obj
 0001:0000cb00       ??0IMeetingAudioCtrlEvent@ZOOMSDK@@QAE@XZ 0040db00 f i custom_ui_mgr_flow.obj
 0001:0000cb20       ??0IMeetingParticipantsCtrlEvent@ZOOMSDK@@QAE@XZ 0040db20 f i custom_ui_mgr_flow.obj
 0001:0000cb40       ??0IMeetingRemoteCtrlEvent@ZOOMSDK@@QAE@XZ 0040db40 f i custom_ui_mgr_flow.obj
 0001:0000cb60       ??0IMeetingServiceEvent@ZOOMSDK@@QAE@XZ 0040db60 f i custom_ui_mgr_flow.obj
 0001:0000cb80       ??0IMeetingShareCtrlEvent@ZOOMSDK@@QAE@XZ 0040db80 f i custom_ui_mgr_flow.obj
 0001:0000cba0       ??0IMeetingUIControllerEvent@ZOOMSDK@@QAE@XZ 0040dba0 f i custom_ui_mgr_flow.obj
 0001:0000cbc0       ??0IMeetingVideoCtrlEvent@ZOOMSDK@@QAE@XZ 0040dbc0 f i custom_ui_mgr_flow.obj
 0001:0000cbe0       ??0ISDKInMeetingServiceMgrEvent@@QAE@XZ 0040dbe0 f i custom_ui_mgr_flow.obj
 0001:0000cd00       ??0ITestAudioDeviceHelperEvent@ZOOMSDK@@QAE@XZ 0040dd00 f i custom_ui_mgr_flow.obj
 0001:0000cd20       ??0ITestVideoDeviceHelperEvent@ZOOMSDK@@QAE@XZ 0040dd20 f i custom_ui_mgr_flow.obj
 0001:0000cd40       ??1CSDKCustomUIWorkFlow@@UAE@XZ 0040dd40 f   custom_ui_mgr_flow.obj
 0001:0000ce10       ??_ECSDKCustomUIWorkFlow@@UAEPAXI@Z 0040de10 f i custom_ui_mgr_flow.obj
 0001:0000ce10       ??_GCSDKCustomUIWorkFlow@@UAEPAXI@Z 0040de10 f i custom_ui_mgr_flow.obj
 0001:0000ce50       ?GetMeetingID@CSDKCustomUIWorkFlow@@QAE_KXZ 0040de50 f   custom_ui_mgr_flow.obj
 0001:0000cea0       ?GetServiceControls@CSDKCustomUIWorkFlow@@QAEXXZ 0040dea0 f   custom_ui_mgr_flow.obj
 0001:0000cfc0       ?Init@CSDKCustomUIWorkFlow@@QAEXPAVISDKInMeetingServiceCustomUIEvent@@@Z 0040dfc0 f   custom_ui_mgr_flow.obj
 0001:0000cff0       ?InitMeetingService@CSDKCustomUIWorkFlow@@QAEXXZ 0040dff0 f   custom_ui_mgr_flow.obj
 0001:0000d150       ?IsAudioOn@CSDKCustomUIWorkFlow@@QAE_NXZ 0040e150 f   custom_ui_mgr_flow.obj
 0001:0000d1c0       ?IsInMeeting@@YA_NW4MeetingStatus@ZOOMSDK@@@Z 0040e1c0 f i custom_ui_mgr_flow.obj
 0001:0000d1f0       ?IsMeetingServiceReady@CSDKCustomUIWorkFlow@@QAE_NXZ 0040e1f0 f   custom_ui_mgr_flow.obj
 0001:0000d230       ?IsVideoOn@CSDKCustomUIWorkFlow@@QAE_NXZ 0040e230 f   custom_ui_mgr_flow.obj
 0001:0000d290       ?Uninit@CSDKCustomUIWorkFlow@@QAEXXZ 0040e290 f   custom_ui_mgr_flow.obj
 0001:0000d340       ?onMeetingSecureKeyNotification@CSDKWithoutLoginStartJoinMeetingUIGroup@@UAEXPBDHPAVIMeetingExternalSecureKeyHandler@ZOOMSDK@@@Z 0040e340 f i LOGIN_sdk_login_UI.obj
 0001:0000d340       ?onClosedCaptionMsgReceived@CSDKCustomUIWorkFlow@@UAEXPB_W_J@Z 0040e340 f i custom_ui_mgr_flow.obj
 0001:0000d340       ?onMeetingSecureKeyNotification@CSDKJoinMeetingForLoginUserUIGroup@@UAEXPBDHPAVIMeetingExternalSecureKeyHandler@ZOOMSDK@@@Z 0040e340 f i Join_meeting_for_login_user_ui.obj
 0001:0000d340       ?onMeetingSecureKeyNotification@CSDKRestAPIUserUIGroup@@UAEXPBDHPAVIMeetingExternalSecureKeyHandler@ZOOMSDK@@@Z 0040e340 f i LOGIN_sdk_login_UI.obj
 0001:0000d340       ?onMeetingSecureKeyNotification@CSDKJoinMeetingForLoginUserFlow@@UAEXPBDHPAVIMeetingExternalSecureKeyHandler@ZOOMSDK@@@Z 0040e340 f i Join_meeting_for_login_user_workflow.obj
 0001:0000d340       ?onMeetingSecureKeyNotification@CSDKWithoutLoginStartJoinMeetingFlow@@UAEXPBDHPAVIMeetingExternalSecureKeyHandler@ZOOMSDK@@@Z 0040e340 f i LOGIN_join_meeting_only_workflow.obj
 0001:0000d340       ?onMeetingSecureKeyNotification@CSDKCustomUIWorkFlow@@UAEXPBDHPAVIMeetingExternalSecureKeyHandler@ZOOMSDK@@@Z 0040e340 f i custom_ui_mgr_flow.obj
 0001:0000d340       ?onMeetingSecureKeyNotification@CSDKLoggedInUIMgr@@UAEXPBDHPAVIMeetingExternalSecureKeyHandler@ZOOMSDK@@@Z 0040e340 f i LoggedIn_sdk_controller_ui.obj
 0001:0000d340       ?onRecording2MP4Done@CSDKCustomUIWorkFlow@@UAEX_NHPB_W@Z 0040e340 f i custom_ui_mgr_flow.obj
 0001:0000d350       ?onCustomizedAnnotationObjDestroyed@CSDKCustomUIWorkFlow@@UAEXPAVICustomizedAnnotationObj@ZOOMSDK@@@Z 0040e350 f   custom_ui_mgr_flow.obj
 0001:0000d380       ?onCustomizedLocalRecordingSourceNotification@CSDKCustomUIWorkFlow@@UAEXPAVICustomizedLocalRecordingLayoutHelper@ZOOMSDK@@@Z 0040e380 f   custom_ui_mgr_flow.obj
 0001:0000d3b0       ?onMeetingStatusChanged@CSDKCustomUIWorkFlow@@UAEXW4MeetingStatus@ZOOMSDK@@H@Z 0040e3b0 f   custom_ui_mgr_flow.obj
 0001:0000d3f0       ?onRemoteControlStatus@CSDKCustomUIWorkFlow@@UAEXW4RemoteControlStatus@ZOOMSDK@@I@Z 0040e3f0 f   custom_ui_mgr_flow.obj
 0001:0000d430       ?onSharingShareAnnotationStatusChanged@CSDKCustomUIWorkFlow@@UAEXPAVICustomizedShareRender@ZOOMSDK@@W4CustomizedShareAnnotationStatus@3@@Z 0040e430 f   custom_ui_mgr_flow.obj
 0001:0000d470       ?onSharingStatus@CSDKCustomUIWorkFlow@@UAEXW4SharingStatus@ZOOMSDK@@I@Z 0040e470 f   custom_ui_mgr_flow.obj
 0001:0000d4b0       ?onUserAudioStatusChange@CSDKCustomUIWorkFlow@@UAEXPAV?$IList@PAVIUserAudioStatus@ZOOMSDK@@@ZOOMSDK@@PB_W@Z 0040e4b0 f   custom_ui_mgr_flow.obj
 0001:0000d4f0       ?onUserJoin@CSDKCustomUIWorkFlow@@UAEXPAV?$IList@I@ZOOMSDK@@PB_W@Z 0040e4f0 f   custom_ui_mgr_flow.obj
 0001:0000d530       ?onUserLeft@CSDKCustomUIWorkFlow@@UAEXPAV?$IList@I@ZOOMSDK@@PB_W@Z 0040e530 f   custom_ui_mgr_flow.obj
 0001:0000d570       ?onUserNameChanged@CSDKCustomUIWorkFlow@@UAEXIPB_W@Z 0040e570 f   custom_ui_mgr_flow.obj
 0001:0000d5b0       ?onUserVideoStatusChange@CSDKCustomUIWorkFlow@@UAEXIW4VideoStatus@ZOOMSDK@@@Z 0040e5b0 f   custom_ui_mgr_flow.obj
 0001:0000d5f0       ??$?0$$V@?$_Compressed_pair@V?$allocator@PAVIVirtualBGImageInfo@ZOOMSDK@@@std@@V?$_Vector_val@U?$_Simple_types@PAVIVirtualBGImageInfo@ZOOMSDK@@@std@@@2@$00@std@@QAE@U_Zero_then_variadic_args_t@1@@Z 0040e5f0 f i settings_ui.obj
 0001:0000d5f0       ??$?0$$V@?$_Compressed_pair@V?$allocator@V?$basic_string@_WU?$char_traits@_W@std@@V?$allocator@_W@2@@std@@@std@@V?$_Vector_val@U?$_Simple_types@V?$basic_string@_WU?$char_traits@_W@std@@V?$allocator@_W@2@@std@@@std@@@2@$00@std@@QAE@U_Zero_then_variadic_args_t@1@@Z 0040e5f0 f i custom_ui_share_flow.obj
 0001:0000d5f0       ??$?0$$V@?$_Compressed_pair@V?$allocator@PAVIUserInfo@ZOOMSDK@@@std@@V?$_Vector_val@U?$_Simple_types@PAVIUserInfo@ZOOMSDK@@@std@@@2@$00@std@@QAE@U_Zero_then_variadic_args_t@1@@Z 0040e5f0 f i user_manager.obj
 0001:0000d5f0       ??$?0$$V@?$_Compressed_pair@V?$allocator@PAVIAlternativeHostInfo@ZOOMSDK@@@std@@V?$_Vector_val@U?$_Simple_types@PAVIAlternativeHostInfo@ZOOMSDK@@@std@@@2@$00@std@@QAE@U_Zero_then_variadic_args_t@1@@Z 0040e5f0 f i schedule_meeting_ui.obj
 0001:0000d5f0       ??$?0$$V@?$_Compressed_pair@V?$allocator@PAVIInterpreterInfo@ZOOMSDK@@@std@@V?$_Vector_val@U?$_Simple_types@PAVIInterpreterInfo@ZOOMSDK@@@std@@@2@$00@std@@QAE@U_Zero_then_variadic_args_t@1@@Z 0040e5f0 f i schedule_meeting_ui.obj
 0001:0000d610       ??$_Destroy_range@V?$allocator@V?$basic_string@_WU?$char_traits@_W@std@@V?$allocator@_W@2@@std@@@std@@@std@@YAXPAV?$basic_string@_WU?$char_traits@_W@std@@V?$allocator@_W@2@@0@QAV10@AAV?$allocator@V?$basic_string@_WU?$char_traits@_W@std@@V?$allocator@_W@2@@std@@@0@@Z 0040e610 f i custom_ui_share_flow.obj
 0001:0000d680       ??$_Emplace_back@V?$basic_string@_WU?$char_traits@_W@std@@V?$allocator@_W@2@@std@@@?$_Uninitialized_backout_al@V?$allocator@V?$basic_string@_WU?$char_traits@_W@std@@V?$allocator@_W@2@@std@@@std@@@std@@QAEX$$QAV?$basic_string@_WU?$char_traits@_W@std@@V?$allocator@_W@2@@1@@Z 0040e680 f i custom_ui_share_flow.obj
 0001:0000d6d0       ??$_Emplace_back_with_unused_capacity@V?$basic_string@_WU?$char_traits@_W@std@@V?$allocator@_W@2@@std@@@?$vector@V?$basic_string@_WU?$char_traits@_W@std@@V?$allocator@_W@2@@std@@V?$allocator@V?$basic_string@_WU?$char_traits@_W@std@@V?$allocator@_W@2@@std@@@2@@std@@AAEX$$QAV?$basic_string@_WU?$char_traits@_W@std@@V?$allocator@_W@2@@1@@Z 0040e6d0 f i custom_ui_share_flow.obj
 0001:0000d750       ??$_Emplace_reallocate@V?$basic_string@_WU?$char_traits@_W@std@@V?$allocator@_W@2@@std@@@?$vector@V?$basic_string@_WU?$char_traits@_W@std@@V?$allocator@_W@2@@std@@V?$allocator@V?$basic_string@_WU?$char_traits@_W@std@@V?$allocator@_W@2@@std@@@2@@std@@QAEPAV?$basic_string@_WU?$char_traits@_W@std@@V?$allocator@_W@2@@1@QAV21@$$QAV21@@Z 0040e750 f i custom_ui_share_flow.obj
 0001:0000d930       ??$_Get_size_of_n@$0BI@@std@@YAII@Z 0040e930 f i custom_ui_share_flow.obj
 0001:0000d960       ??$_Get_unwrapped@ABQAPAVIUserInfo@ZOOMSDK@@@std@@YAPAPAVIUserInfo@ZOOMSDK@@ABQAPAV12@@Z 0040e960 f i user_manager.obj
 0001:0000d960       ??$_Get_unwrapped@ABQAPAVIVirtualBGImageInfo@ZOOMSDK@@@std@@YAPAPAVIVirtualBGImageInfo@ZOOMSDK@@ABQAPAV12@@Z 0040e960 f i settings_ui.obj
 0001:0000d960       ??$_Get_unwrapped@ABQAV?$basic_string@_WU?$char_traits@_W@std@@V?$allocator@_W@2@@std@@@std@@YAPAV?$basic_string@_WU?$char_traits@_W@std@@V?$allocator@_W@2@@0@ABQAV10@@Z 0040e960 f i custom_ui_share_flow.obj
 0001:0000d960       ??$_Tuple_get@$0A@ABI@std@@YAABI$$QAV?$tuple@ABI@0@@Z 0040e960 f i user_manager.obj
 0001:0000d960       ??$_Get_unwrapped@ABQAPAVIAlternativeHostInfo@ZOOMSDK@@@std@@YAPAPAVIAlternativeHostInfo@ZOOMSDK@@ABQAPAV12@@Z 0040e960 f i schedule_meeting_ui.obj
 0001:0000d960       ??$_Get_unwrapped@ABQAPAVIInterpreterInfo@ZOOMSDK@@@std@@YAPAPAVIInterpreterInfo@ZOOMSDK@@ABQAPAV12@@Z 0040e960 f i schedule_meeting_ui.obj
 0001:0000d970       ??$_Uninitialized_move@PAV?$basic_string@_WU?$char_traits@_W@std@@V?$allocator@_W@2@@std@@V?$allocator@V?$basic_string@_WU?$char_traits@_W@std@@V?$allocator@_W@2@@std@@@2@@std@@YAPAV?$basic_string@_WU?$char_traits@_W@std@@V?$allocator@_W@2@@0@QAV10@0PAV10@AAV?$allocator@V?$basic_string@_WU?$char_traits@_W@std@@V?$allocator@_W@2@@std@@@0@@Z 0040e970 f i custom_ui_share_flow.obj
 0001:0000da20       ??$construct@V?$basic_string@_WU?$char_traits@_W@std@@V?$allocator@_W@2@@std@@V12@@?$_Default_allocator_traits@V?$allocator@V?$basic_string@_WU?$char_traits@_W@std@@V?$allocator@_W@2@@std@@@std@@@std@@SAXAAV?$allocator@V?$basic_string@_WU?$char_traits@_W@std@@V?$allocator@_W@2@@std@@@1@QAV?$basic_string@_WU?$char_traits@_W@std@@V?$allocator@_W@2@@1@$$QAV31@@Z 0040ea20 f i custom_ui_share_flow.obj
 0001:0000da50       ??$destroy@V?$basic_string@_WU?$char_traits@_W@std@@V?$allocator@_W@2@@std@@@?$_Default_allocator_traits@V?$allocator@V?$basic_string@_WU?$char_traits@_W@std@@V?$allocator@_W@2@@std@@@std@@@std@@SAXAAV?$allocator@V?$basic_string@_WU?$char_traits@_W@std@@V?$allocator@_W@2@@std@@@1@QAV?$basic_string@_WU?$char_traits@_W@std@@V?$allocator@_W@2@@1@@Z 0040ea50 f i custom_ui_share_flow.obj
 0001:0000da60       ??$emplace_back@V?$basic_string@_WU?$char_traits@_W@std@@V?$allocator@_W@2@@std@@@?$vector@V?$basic_string@_WU?$char_traits@_W@std@@V?$allocator@_W@2@@std@@V?$allocator@V?$basic_string@_WU?$char_traits@_W@std@@V?$allocator@_W@2@@std@@@2@@std@@QAEX$$QAV?$basic_string@_WU?$char_traits@_W@std@@V?$allocator@_W@2@@1@@Z 0040ea60 f i custom_ui_share_flow.obj
 0001:0000dac0       ??0?$_Uninitialized_backout_al@V?$allocator@V?$basic_string@_WU?$char_traits@_W@std@@V?$allocator@_W@2@@std@@@std@@@std@@QAE@PAV?$basic_string@_WU?$char_traits@_W@std@@V?$allocator@_W@2@@1@AAV?$allocator@V?$basic_string@_WU?$char_traits@_W@std@@V?$allocator@_W@2@@std@@@1@@Z 0040eac0 f i custom_ui_share_flow.obj
 0001:0000daf0       ??0?$_Vector_val@U?$_Simple_types@V?$basic_string@_WU?$char_traits@_W@std@@V?$allocator@_W@2@@std@@@std@@@std@@QAE@XZ 0040eaf0 f i custom_ui_share_flow.obj
 0001:0000daf0       ??0?$_Vector_val@U?$_Simple_types@PAVIAlternativeHostInfo@ZOOMSDK@@@std@@@std@@QAE@XZ 0040eaf0 f i schedule_meeting_ui.obj
 0001:0000daf0       ??0?$_Vector_val@U?$_Simple_types@PAVIUserInfo@ZOOMSDK@@@std@@@std@@QAE@XZ 0040eaf0 f i user_manager.obj
 0001:0000daf0       ??0?$_Vector_val@U?$_Simple_types@PAVIInterpreterInfo@ZOOMSDK@@@std@@@std@@QAE@XZ 0040eaf0 f i schedule_meeting_ui.obj
 0001:0000daf0       ??0tagCustomizedLanguageInfo@ZOOMSDK@@QAE@XZ 0040eaf0 f i sdk_init_auth_ui.obj
 0001:0000daf0       ??0?$_Vector_val@U?$_Simple_types@PAVIVirtualBGImageInfo@ZOOMSDK@@@std@@@std@@QAE@XZ 0040eaf0 f i settings_ui.obj
 0001:0000db20       ??0?$vector@PAVIVirtualBGImageInfo@ZOOMSDK@@V?$allocator@PAVIVirtualBGImageInfo@ZOOMSDK@@@std@@@std@@QAE@XZ 0040eb20 f i settings_ui.obj
 0001:0000db20       ??0?$vector@PAVIInterpreterInfo@ZOOMSDK@@V?$allocator@PAVIInterpreterInfo@ZOOMSDK@@@std@@@std@@QAE@XZ 0040eb20 f i schedule_meeting_ui.obj
 0001:0000db20       ??0?$vector@PAVIAlternativeHostInfo@ZOOMSDK@@V?$allocator@PAVIAlternativeHostInfo@ZOOMSDK@@@std@@@std@@QAE@XZ 0040eb20 f i schedule_meeting_ui.obj
 0001:0000db20       ??0?$vector@PAVIUserInfo@ZOOMSDK@@V?$allocator@PAVIUserInfo@ZOOMSDK@@@std@@@std@@QAE@XZ 0040eb20 f i user_manager.obj
 0001:0000db20       ??0?$vector@V?$basic_string@_WU?$char_traits@_W@std@@V?$allocator@_W@2@@std@@V?$allocator@V?$basic_string@_WU?$char_traits@_W@std@@V?$allocator@_W@2@@std@@@2@@std@@QAE@XZ 0040eb20 f i custom_ui_share_flow.obj
 0001:0000db50       ??0CCustomizeUIShareFlow@@QAE@XZ 0040eb50 f   custom_ui_share_flow.obj
 0001:0000db50       ??0?$_Tree_val@U?$_Tree_simple_types@PAVIPreMeetingServiceEvent@ZOOMSDK@@@std@@@std@@QAE@XZ 0040eb50 f   sdk_util.obj
 0001:0000db50       ??0?$_Tree_val@U?$_Tree_simple_types@PAVIMeetingParticipantsCtrlEvent@ZOOMSDK@@@std@@@std@@QAE@XZ 0040eb50 f   sdk_util.obj
 0001:0000db50       ??0?$_Tree_val@U?$_Tree_simple_types@PAVIClosedCaptionControllerEvent@ZOOMSDK@@@std@@@std@@QAE@XZ 0040eb50 f   sdk_util.obj
 0001:0000db50       ??0?$_Tree_val@U?$_Tree_simple_types@U?$pair@$$CBHW4bkItemType@@@std@@@std@@@std@@QAE@XZ 0040eb50 f   settings_ui.obj
 0001:0000db50       ??0?$_List_val@U?$_List_simple_types@H@std@@@std@@QAE@XZ 0040eb50 f   participant_ui.obj
 0001:0000db50       ??0?$_Tree_val@U?$_Tree_simple_types@PAVIMeetingVideoCtrlEvent@ZOOMSDK@@@std@@@std@@QAE@XZ 0040eb50 f   sdk_util.obj
 0001:0000db50       ??0?$_Tree_val@U?$_Tree_simple_types@PAVIMeetingChatCtrlEvent@ZOOMSDK@@@std@@@std@@QAE@XZ 0040eb50 f   sdk_util.obj
 0001:0000db50       ??0?$_Tree_val@U?$_Tree_simple_types@PAVIMeetingServiceEvent@ZOOMSDK@@@std@@@std@@QAE@XZ 0040eb50 f   sdk_util.obj
 0001:0000db50       ??0?$_Tree_val@U?$_Tree_simple_types@PAVIAuthServiceEvent@ZOOMSDK@@@std@@@std@@QAE@XZ 0040eb50 f   sdk_util.obj
 0001:0000db50       ??0?$_Tree_val@U?$_Tree_simple_types@U?$pair@$$CBIPAVIUserInfo@ZOOMSDK@@@std@@@std@@@std@@QAE@XZ 0040eb50 f   user_manager.obj
 0001:0000db50       ??0?$_Tree_val@U?$_Tree_simple_types@PAVISDKInMeetingServiceMgrEvent@@@std@@@std@@QAE@XZ 0040eb50 f   sdk_util.obj
 0001:0000db80       ??1?$_Uninitialized_backout_al@V?$allocator@V?$basic_string@_WU?$char_traits@_W@std@@V?$allocator@_W@2@@std@@@std@@@std@@QAE@XZ 0040eb80 f i custom_ui_share_flow.obj
 0001:0000dbb0       ??1?$vector@V?$basic_string@_WU?$char_traits@_W@std@@V?$allocator@_W@2@@std@@V?$allocator@V?$basic_string@_WU?$char_traits@_W@std@@V?$allocator@_W@2@@std@@@2@@std@@QAE@XZ 0040ebb0 f i custom_ui_share_flow.obj
 0001:0000dbd0       ??4?$basic_string@_WU?$char_traits@_W@std@@V?$allocator@_W@2@@std@@QAEAAV01@ABV01@@Z 0040ebd0 f i custom_ui_share_flow.obj
 0001:0000dc10       ??A?$vector@V?$basic_string@_WU?$char_traits@_W@std@@V?$allocator@_W@2@@std@@V?$allocator@V?$basic_string@_WU?$char_traits@_W@std@@V?$allocator@_W@2@@std@@@2@@std@@QAEAAV?$basic_string@_WU?$char_traits@_W@std@@V?$allocator@_W@2@@1@I@Z 0040ec10 f i custom_ui_share_flow.obj
 0001:0000dc30       ??_G?$basic_string@_WU?$char_traits@_W@std@@V?$allocator@_W@2@@std@@QAEPAXI@Z 0040ec30 f i custom_ui_share_flow.obj
 0001:0000dc60       ?GetMeetingShareController@CCustomizeUIShareFlow@@QAEPAVIMeetingShareController@ZOOMSDK@@XZ 0040ec60 f   custom_ui_share_flow.obj
 0001:0000dca0       ?HandleWindowsMoveMsg@CCustomizeUIShareFlow@@QAE?AW4SDKError@ZOOMSDK@@XZ 0040eca0 f   custom_ui_share_flow.obj
 0001:0000dcd0       ?Hide@CCustomizeUIShareFlow@@QAE?AW4SDKError@ZOOMSDK@@XZ 0040ecd0 f   custom_ui_share_flow.obj
 0001:0000dd00       ?IsMeetingServiceReady@CCustomizeUIShareFlow@@AAE_NXZ 0040ed00 f   custom_ui_share_flow.obj
 0001:0000dd40       ?MyInfoEnumProc@@YGHPAUHMONITOR__@@PAUHDC__@@PAUtagRECT@@J@Z 0040ed40 f   custom_ui_share_flow.obj
 0001:0000ddf0       ?Resize@CCustomizeUIShareFlow@@QAE?AW4SDKError@ZOOMSDK@@UtagRECT@@@Z 0040edf0 f   custom_ui_share_flow.obj
 0001:0000de40       ?SetEvent@CCustomizeUIShareFlow@@QAE?AW4SDKError@ZOOMSDK@@PAVICustomizedShareRenderEvent@3@@Z 0040ee40 f   custom_ui_share_flow.obj
 0001:0000de70       ?SetShareRender@CCustomizeUIShareFlow@@QAEXPAVICustomizedShareRender@ZOOMSDK@@@Z 0040ee70 f   custom_ui_share_flow.obj
 0001:0000de70       ?SetVideoContainer@CCustomizeUIVideoFlow@@QAEXPAVICustomizedVideoContainer@ZOOMSDK@@@Z 0040ee70 f   custom_ui_video_flow.obj
 0001:0000de90       ?SetUserID@CCustomizeUIShareFlow@@QAE?AW4SDKError@ZOOMSDK@@I@Z 0040ee90 f   custom_ui_share_flow.obj
 0001:0000ded0       ?Show@CCustomizeUIShareFlow@@QAE?AW4SDKError@ZOOMSDK@@XZ 0040eed0 f   custom_ui_share_flow.obj
 0001:0000df00       ?StartShare@CCustomizeUIShareFlow@@QAE?AW4SDKError@ZOOMSDK@@W4SDKShareType@@PAUHWND__@@@Z 0040ef00 f   custom_ui_share_flow.obj
 0001:0000e120       ?StopShare@CCustomizeUIShareFlow@@QAE?AW4SDKError@ZOOMSDK@@XZ 0040f120 f   custom_ui_share_flow.obj
 0001:0000e1c0       ?_Calculate_growth@?$vector@V?$basic_string@_WU?$char_traits@_W@std@@V?$allocator@_W@2@@std@@V?$allocator@V?$basic_string@_WU?$char_traits@_W@std@@V?$allocator@_W@2@@std@@@2@@std@@ABEII@Z 0040f1c0 f i custom_ui_share_flow.obj
 0001:0000e220       ?_Change_array@?$vector@V?$basic_string@_WU?$char_traits@_W@std@@V?$allocator@_W@2@@std@@V?$allocator@V?$basic_string@_WU?$char_traits@_W@std@@V?$allocator@_W@2@@std@@@2@@std@@AAEXQAV?$basic_string@_WU?$char_traits@_W@std@@V?$allocator@_W@2@@2@II@Z 0040f220 f i custom_ui_share_flow.obj
 0001:0000e2c0       ?_Copy_assign@?$basic_string@_WU?$char_traits@_W@std@@V?$allocator@_W@2@@std@@AAEXABV12@U?$integral_constant@_N$0A@@2@@Z 0040f2c0 f i custom_ui_share_flow.obj
 0001:0000e300       ?_Destroy@?$vector@V?$basic_string@_WU?$char_traits@_W@std@@V?$allocator@_W@2@@std@@V?$allocator@V?$basic_string@_WU?$char_traits@_W@std@@V?$allocator@_W@2@@std@@@2@@std@@AAEXPAV?$basic_string@_WU?$char_traits@_W@std@@V?$allocator@_W@2@@2@0@Z 0040f300 f i custom_ui_share_flow.obj
 0001:0000e330       ?_Release@?$_Uninitialized_backout_al@V?$allocator@V?$basic_string@_WU?$char_traits@_W@std@@V?$allocator@_W@2@@std@@@std@@@std@@QAEPAV?$basic_string@_WU?$char_traits@_W@std@@V?$allocator@_W@2@@2@XZ 0040f330 f i custom_ui_share_flow.obj
 0001:0000e350       ?_Tidy@?$vector@V?$basic_string@_WU?$char_traits@_W@std@@V?$allocator@_W@2@@std@@V?$allocator@V?$basic_string@_WU?$char_traits@_W@std@@V?$allocator@_W@2@@std@@@2@@std@@AAEXXZ 0040f350 f i custom_ui_share_flow.obj
 0001:0000e420       ?_Umove@?$vector@V?$basic_string@_WU?$char_traits@_W@std@@V?$allocator@_W@2@@std@@V?$allocator@V?$basic_string@_WU?$char_traits@_W@std@@V?$allocator@_W@2@@std@@@2@@std@@AAEPAV?$basic_string@_WU?$char_traits@_W@std@@V?$allocator@_W@2@@2@PAV32@00@Z 0040f420 f i custom_ui_share_flow.obj
 0001:0000e450       ?_Umove_if_noexcept1@?$vector@V?$basic_string@_WU?$char_traits@_W@std@@V?$allocator@_W@2@@std@@V?$allocator@V?$basic_string@_WU?$char_traits@_W@std@@V?$allocator@_W@2@@std@@@2@@std@@AAEXPAV?$basic_string@_WU?$char_traits@_W@std@@V?$allocator@_W@2@@2@00U?$integral_constant@_N$00@2@@Z 0040f450 f i custom_ui_share_flow.obj
 0001:0000e480       ?_Umove_if_noexcept@?$vector@V?$basic_string@_WU?$char_traits@_W@std@@V?$allocator@_W@2@@std@@V?$allocator@V?$basic_string@_WU?$char_traits@_W@std@@V?$allocator@_W@2@@std@@@2@@std@@AAEXPAV?$basic_string@_WU?$char_traits@_W@std@@V?$allocator@_W@2@@2@00@Z 0040f480 f i custom_ui_share_flow.obj
 0001:0000e4b0       ?_Xlength@?$vector@V?$basic_string@_WU?$char_traits@_W@std@@V?$allocator@_W@2@@std@@V?$allocator@V?$basic_string@_WU?$char_traits@_W@std@@V?$allocator@_W@2@@std@@@2@@std@@CAXXZ 0040f4b0 f i custom_ui_share_flow.obj
 0001:0000e4b0       ?_Xlength@?$vector@PAVIInterpreterInfo@ZOOMSDK@@V?$allocator@PAVIInterpreterInfo@ZOOMSDK@@@std@@@std@@CAXXZ 0040f4b0 f i schedule_meeting_ui.obj
 0001:0000e4b0       ?_Xlength@?$vector@PAVIAlternativeHostInfo@ZOOMSDK@@V?$allocator@PAVIAlternativeHostInfo@ZOOMSDK@@@std@@@std@@CAXXZ 0040f4b0 f i schedule_meeting_ui.obj
 0001:0000e4b0       ?_Xlength@?$vector@PAVIVirtualBGImageInfo@ZOOMSDK@@V?$allocator@PAVIVirtualBGImageInfo@ZOOMSDK@@@std@@@std@@CAXXZ 0040f4b0 f i settings_ui.obj
 0001:0000e4b0       ?_Xlength@?$vector@PAVIUserInfo@ZOOMSDK@@V?$allocator@PAVIUserInfo@ZOOMSDK@@@std@@@std@@CAXXZ 0040f4b0 f i user_manager.obj
 0001:0000e4c0       ?allocate@?$allocator@U?$_Tree_node@U?$pair@$$CBHW4bkItemType@@@std@@PAX@std@@@std@@QAEPAU?$_Tree_node@U?$pair@$$CBHW4bkItemType@@@std@@PAX@2@I@Z 0040f4c0 f i settings_ui.obj
 0001:0000e4c0       ?allocate@?$allocator@U?$_Tree_node@U?$pair@$$CBIPAVIUserInfo@ZOOMSDK@@@std@@PAX@std@@@std@@QAEPAU?$_Tree_node@U?$pair@$$CBIPAVIUserInfo@ZOOMSDK@@@std@@PAX@2@I@Z 0040f4c0 f i user_manager.obj
 0001:0000e4c0       ?allocate@?$allocator@V?$basic_string@_WU?$char_traits@_W@std@@V?$allocator@_W@2@@std@@@std@@QAEPAV?$basic_string@_WU?$char_traits@_W@std@@V?$allocator@_W@2@@2@I@Z 0040f4c0 f i custom_ui_share_flow.obj
 0001:0000e4f0       ?capacity@?$vector@V?$basic_string@_WU?$char_traits@_W@std@@V?$allocator@_W@2@@std@@V?$allocator@V?$basic_string@_WU?$char_traits@_W@std@@V?$allocator@_W@2@@std@@@2@@std@@QBEIXZ 0040f4f0 f i custom_ui_share_flow.obj
 0001:0000e520       ?deallocate@?$allocator@U?$_Tree_node@U?$pair@$$CBHW4bkItemType@@@std@@PAX@std@@@std@@QAEXQAU?$_Tree_node@U?$pair@$$CBHW4bkItemType@@@std@@PAX@2@I@Z 0040f520 f i settings_ui.obj
 0001:0000e520       ?deallocate@?$allocator@V?$basic_string@_WU?$char_traits@_W@std@@V?$allocator@_W@2@@std@@@std@@QAEXQAV?$basic_string@_WU?$char_traits@_W@std@@V?$allocator@_W@2@@2@I@Z 0040f520 f i custom_ui_share_flow.obj
 0001:0000e520       ?deallocate@?$allocator@U?$_Tree_node@U?$pair@$$CBIPAVIUserInfo@ZOOMSDK@@@std@@PAX@std@@@std@@QAEXQAU?$_Tree_node@U?$pair@$$CBIPAVIUserInfo@ZOOMSDK@@@std@@PAX@2@I@Z 0040f520 f i user_manager.obj
 0001:0000e540       ?max_size@?$_Default_allocator_traits@V?$allocator@U?$_Tree_node@U?$pair@$$CBHW4bkItemType@@@std@@PAX@std@@@std@@@std@@SAIABV?$allocator@U?$_Tree_node@U?$pair@$$CBHW4bkItemType@@@std@@PAX@std@@@2@@Z 0040f540 f i settings_ui.obj
 0001:0000e540       ?max_size@?$_Default_allocator_traits@V?$allocator@V?$basic_string@_WU?$char_traits@_W@std@@V?$allocator@_W@2@@std@@@std@@@std@@SAIABV?$allocator@V?$basic_string@_WU?$char_traits@_W@std@@V?$allocator@_W@2@@std@@@2@@Z 0040f540 f i custom_ui_share_flow.obj
 0001:0000e540       ?max_size@?$_Default_allocator_traits@V?$allocator@U?$_Tree_node@U?$pair@$$CBIPAVIUserInfo@ZOOMSDK@@@std@@PAX@std@@@std@@@std@@SAIABV?$allocator@U?$_Tree_node@U?$pair@$$CBIPAVIUserInfo@ZOOMSDK@@@std@@PAX@std@@@2@@Z 0040f540 f i user_manager.obj
 0001:0000e550       ?max_size@?$vector@V?$basic_string@_WU?$char_traits@_W@std@@V?$allocator@_W@2@@std@@V?$allocator@V?$basic_string@_WU?$char_traits@_W@std@@V?$allocator@_W@2@@std@@@2@@std@@QBEIXZ 0040f550 f i custom_ui_share_flow.obj
 0001:0000e550       ?max_size@?$_Tree@V?$_Tmap_traits@IPAVIUserInfo@ZOOMSDK@@U?$less@I@std@@V?$allocator@U?$pair@$$CBIPAVIUserInfo@ZOOMSDK@@@std@@@4@$0A@@std@@@std@@QBEIXZ 0040f550 f i user_manager.obj
 0001:0000e550       ?max_size@?$_Tree@V?$_Tmap_traits@HW4bkItemType@@U?$less@H@std@@V?$allocator@U?$pair@$$CBHW4bkItemType@@@std@@@3@$0A@@std@@@std@@QBEIXZ 0040f550 f i settings_ui.obj
 0001:0000e590       ?push_back@?$vector@V?$basic_string@_WU?$char_traits@_W@std@@V?$allocator@_W@2@@std@@V?$allocator@V?$basic_string@_WU?$char_traits@_W@std@@V?$allocator@_W@2@@std@@@2@@std@@QAEX$$QAV?$basic_string@_WU?$char_traits@_W@std@@V?$allocator@_W@2@@2@@Z 0040f590 f i custom_ui_share_flow.obj
 0001:0000e5c0       ?size@?$vector@V?$basic_string@_WU?$char_traits@_W@std@@V?$allocator@_W@2@@std@@V?$allocator@V?$basic_string@_WU?$char_traits@_W@std@@V?$allocator@_W@2@@std@@@2@@std@@QBEIXZ 0040f5c0 f i custom_ui_share_flow.obj
 0001:0000e5f0       ??0CCustomizeUIShareMgr@@QAE@PAVCCustomizeInMeetingUIMgr@@@Z 0040f5f0 f   custom_ui_share_mgr.obj
 0001:0000e640       ??0CCustomizeUIShareRenderUI@@QAE@PAVCCustomizeUIShareMgr@@@Z 0040f640 f   custom_ui_share_mgr.obj
 0001:0000e670       ??0CCustomizeUIShareSelectUI@@QAE@PAVCCustomizeUIShareMgr@@@Z 0040f670 f   custom_ui_share_mgr.obj
 0001:0000e710       ??0CRect@@QAE@HHHH@Z       0040f710 f i custom_ui_share_mgr.obj
 0001:0000e710       ??0CDuiRect@DuiLib@@QAE@JJJJ@Z 0040f710 f i DuiLib:Utils.obj
 0001:0000e750       ??1CCustomizeUIShareRenderUI@@QAE@XZ 0040f750 f   custom_ui_share_mgr.obj
 0001:0000e770       ??1CCustomizeUIShareSelectUI@@QAE@XZ 0040f770 f   custom_ui_share_mgr.obj
 0001:0000e7b0       ??_GCCustomizeUIShareRenderUI@@QAEPAXI@Z 0040f7b0 f i custom_ui_share_mgr.obj
 0001:0000e7e0       ??_GCCustomizeUIShareSelectUI@@QAEPAXI@Z 0040f7e0 f i custom_ui_share_mgr.obj
 0001:0000e820       ??_GShareToolbarWindow@@QAEPAXI@Z 0040f820 f i custom_ui_share_mgr.obj
 0001:0000e860       ??_GViewOptionsWindow@@QAEPAXI@Z 0040f860 f i custom_ui_share_mgr.obj
 0001:0000e8a0       ?AddToAppList@CCustomizeUIShareSelectUI@@QAEXPAUHWND__@@@Z 0040f8a0 f   custom_ui_share_mgr.obj
 0001:0000eae0       ?AdjustListUIPos@CCustomizeUIShareSelectUI@@AAEXXZ 0040fae0 f   custom_ui_share_mgr.obj
 0001:0000ec10       ?CreateCustomShareRender@CCustomizeUIShareMgr@@QAEXPAVICustomizedUIMgr@ZOOMSDK@@@Z 0040fc10 f   custom_ui_share_mgr.obj
 0001:0000ed20       ?CreateSelectShareUI@CCustomizeUIShareMgr@@AAEXXZ 0040fd20 f   custom_ui_share_mgr.obj
 0001:0000ee20       ?CreateShareRenderUI@CCustomizeUIShareMgr@@AAEXXZ 0040fe20 f   custom_ui_share_mgr.obj
 0001:0000eed0       ?DestroyAllShareWindows@CCustomizeUIShareMgr@@QAEXXZ 0040fed0 f   custom_ui_share_mgr.obj
 0001:0000ef00       ?DestroyCustomShareRender@CCustomizeUIShareMgr@@QAEXXZ 0040ff00 f   custom_ui_share_mgr.obj
 0001:0000ef60       ?DestroySelectShareUI@CCustomizeUIShareMgr@@AAEXXZ 0040ff60 f   custom_ui_share_mgr.obj
 0001:0000efd0       ?DestroyShareRenderUI@CCustomizeUIShareMgr@@AAEXXZ 0040ffd0 f   custom_ui_share_mgr.obj
 0001:0000f040       ?DestroyShareToolbarWindow@CCustomizeUIShareMgr@@QAEXXZ 00410040 f   custom_ui_share_mgr.obj
 0001:0000f090       ?DestroyViewOptionsWindow@CCustomizeUIShareMgr@@QAEXXZ 00410090 f   custom_ui_share_mgr.obj
 0001:0000f0e0       ?DoShareButtonClick@CCustomizeUIShareSelectUI@@AAEXW4SDKShareType@@@Z 004100e0 f   custom_ui_share_mgr.obj
 0001:0000f120       ?EnumAllWindows@CCustomizeUIShareSelectUI@@QAEXXZ 00410120 f   custom_ui_share_mgr.obj
 0001:0000f140       ?EnumWindowsProc@@YGHPAUHWND__@@J@Z 00410140 f   custom_ui_share_mgr.obj
 0001:0000f1a0       ?GetShareContentSender@CCustomizeUIShareMgr@@AAEIXZ 004101a0 f   custom_ui_share_mgr.obj
 0001:0000f220       ?GetSkinRes@CCustomizeUIShareSelectUI@@UAEIXZ 00410220 f i custom_ui_share_mgr.obj
 0001:0000f230       ?HandleDestroyWindow@CCustomizeUIShareRenderUI@@QAEXXZ 00410230 f   custom_ui_share_mgr.obj
 0001:0000f250       ?HandleMessage@CCustomizeUIShareSelectUI@@UAEJIIJ@Z 00410250 f   custom_ui_share_mgr.obj
 0001:0000f420       ?HandleRenderUIDestroyed@CCustomizeUIShareMgr@@QAEXXZ 00410420 f   custom_ui_share_mgr.obj
 0001:0000f440       ?HandleShareRenderDestroyed@CCustomizeUIShareMgr@@QAEXPAVICustomizedShareRender@ZOOMSDK@@@Z 00410440 f   custom_ui_share_mgr.obj
 0001:0000f470       ?HandleShareRenderWindowMsgNotification@CCustomizeUIShareMgr@@QAEXIIJ@Z 00410470 f   custom_ui_share_mgr.obj
 0001:0000f4f0       ?HandleSharingShareAnnotationStatusChanged@CCustomizeUIShareMgr@@QAEXPAVICustomizedShareRender@ZOOMSDK@@W4CustomizedShareAnnotationStatus@3@@Z 004104f0 f   custom_ui_share_mgr.obj
 0001:0000f510       ?HandleSharingStatus@CCustomizeUIShareMgr@@QAEXW4SharingStatus@ZOOMSDK@@I@Z 00410510 f   custom_ui_share_mgr.obj
 0001:0000f650       ?HandleSizeChanged@CCustomizeUIShareMgr@@QAEXAAUtagRECT@@@Z 00410650 f   custom_ui_share_mgr.obj
 0001:0000f690       ?HandleUserChanged@CCustomizeUIShareMgr@@QAEXXZ 00410690 f   custom_ui_share_mgr.obj
 0001:0000f6b0       ?HandleWindowMoveMsg@CCustomizeUIShareMgr@@QAEXXZ 004106b0 f   custom_ui_share_mgr.obj
 0001:0000f6d0       ?Height@CRect@@QBEHXZ      004106d0 f i custom_ui_share_mgr.obj
 0001:0000f6d0       ?GetHeight@CDuiRect@DuiLib@@QBEHXZ 004106d0 f i DuiLib:Utils.obj
 0001:0000f6f0       ?HideMe@CCustomizeUIShareRenderUI@@QAEXXZ 004106f0 f   custom_ui_share_mgr.obj
 0001:0000f730       ?Init@CCustomizeUIShareMgr@@QAEXXZ 00410730 f   custom_ui_share_mgr.obj
 0001:0000f790       ?InitAppList@CCustomizeUIShareSelectUI@@QAEXXZ 00410790 f   custom_ui_share_mgr.obj
 0001:0000f7f0       ?InitWindow@CCustomizeUIShareRenderUI@@QAEXXZ 004107f0 f   custom_ui_share_mgr.obj
 0001:0000f840       ?InitWindow@CCustomizeUIShareSelectUI@@UAEXXZ 00410840 f   custom_ui_share_mgr.obj
 0001:0000f9e0       ?IsInSendShareMode@CCustomizeUIShareMgr@@QAE_NXZ 004109e0 f   custom_ui_share_mgr.obj
 0001:0000fa00       ?Notify@CCustomizeUIShareSelectUI@@UAEXAAUtagTNotifyUI@DuiLib@@@Z 00410a00 f   custom_ui_share_mgr.obj
 0001:0000fb90       ?SetDefaultRenderPos@CCustomizeUIShareRenderUI@@QAEXXZ 00410b90 f   custom_ui_share_mgr.obj
 0001:0000fc00       ?SetEvent@CCustomizeUIShareMgr@@QAEXPAVICustomizedShareRenderEvent@ZOOMSDK@@@Z 00410c00 f   custom_ui_share_mgr.obj
 0001:0000fc20       ?ShouldWindowBeDisplayed@@YAHPAUHWND__@@J@Z 00410c20 f   custom_ui_share_mgr.obj
 0001:0000fd80       ?ShowMe@CCustomizeUIShareRenderUI@@QAEXXZ 00410d80 f   custom_ui_share_mgr.obj
 0001:0000fdc0       ?ShowNextShareContent@CCustomizeUIShareMgr@@AAEXI@Z 00410dc0 f   custom_ui_share_mgr.obj
 0001:0000fec0       ?ShowSelectShareUI@CCustomizeUIShareMgr@@QAEXXZ 00410ec0 f   custom_ui_share_mgr.obj
 0001:0000ff30       ?ShowShareToolbarWindow@CCustomizeUIShareMgr@@QAEX_N@Z 00410f30 f   custom_ui_share_mgr.obj
 0001:00010020       ?ShowSharedContent@CCustomizeUIShareMgr@@QAEXXZ 00411020 f   custom_ui_share_mgr.obj
 0001:00010050       ?ShowViewOptionsWindow@CCustomizeUIShareMgr@@QAEX_N@Z 00411050 f   custom_ui_share_mgr.obj
 0001:00010140       ?StartShare@CCustomizeUIShareMgr@@QAEXW4SDKShareType@@PAUHWND__@@@Z 00411140 f   custom_ui_share_mgr.obj
 0001:00010180       ?StopShare@CCustomizeUIShareMgr@@QAEXXZ 00411180 f   custom_ui_share_mgr.obj
 0001:000101b0       ?Width@CRect@@QBEHXZ       004111b0 f i custom_ui_share_mgr.obj
 0001:000101d0       ?onDestroyed@CCustomizeUIShareRenderUI@@UAEXXZ 004111d0 f   custom_ui_share_mgr.obj
 0001:000101f0       ?onMove@CCustomizeUIShareRenderUI@@UAEXXZ 004111f0 f   custom_ui_share_mgr.obj
 0001:00010210       ?onRemoteControlStatus@CCustomizeUIShareMgr@@QAEXW4RemoteControlStatus@ZOOMSDK@@I@Z 00411210 f   custom_ui_share_mgr.obj
 0001:00010440       ?onSelectShareUIClosed@CCustomizeUIShareMgr@@QAEXXZ 00411440 f   custom_ui_share_mgr.obj
 0001:00010460       ?onSize@CCustomizeUIShareRenderUI@@UAEXAAUtagRECT@@@Z 00411460 f   custom_ui_share_mgr.obj
 0001:00010490       ?uninit@CCustomizeUIShareMgr@@QAEXXZ 00411490 f   custom_ui_share_mgr.obj
 0001:000104c0       ___local_stdio_scanf_options 004114c0 f i custom_ui_share_mgr.obj
 0001:000104d0       __vswscanf_s_l             004114d0 f i custom_ui_share_mgr.obj
 0001:00010500       _swscanf_s                 00411500 f i custom_ui_share_mgr.obj
 0001:00010540       ??0CCustomizeUIVideoFlow@@QAE@XZ 00411540 f   custom_ui_video_flow.obj
 0001:00010560       ?CreateVideoElementFlow@CCustomizeUIVideoFlow@@QAE?AW4SDKError@ZOOMSDK@@PAPAVIVideoRenderElement@3@W4VideoRenderElementType@3@@Z 00411560 f   custom_ui_video_flow.obj
 0001:000105b0       ?DestroryVideoElementFlow@CCustomizeUIVideoFlow@@QAE?AW4SDKError@ZOOMSDK@@PAVIVideoRenderElement@3@@Z 004115b0 f   custom_ui_video_flow.obj
 0001:00010600       ?HandleSizeChanged@CCustomizeUIVideoFlow@@QAE?AW4SDKError@ZOOMSDK@@UtagRECT@@@Z 00411600 f   custom_ui_video_flow.obj
 0001:00010650       ?HideActiveViewVideo@CCustomizeUIVideoFlow@@QAE?AW4SDKError@ZOOMSDK@@PAVIActiveVideoRenderElement@3@@Z 00411650 f   custom_ui_video_flow.obj
 0001:00010650       ?HidePreviewVideo@CCustomizeUIVideoFlow@@QAE?AW4SDKError@ZOOMSDK@@PAVIPreviewVideoRenderElement@3@@Z 00411650 f   custom_ui_video_flow.obj
 0001:00010690       ?HideGalleryViewVideo@CCustomizeUIVideoFlow@@QAE?AW4SDKError@ZOOMSDK@@PAVINormalVideoRenderElement@3@@Z 00411690 f   custom_ui_video_flow.obj
 0001:000106d0       ?Reset@CCustomizeUIVideoFlow@@QAEXXZ 004116d0 f   custom_ui_video_flow.obj
 0001:000106f0       ?Show@CCustomizeUIVideoFlow@@QAEXXZ 004116f0 f   custom_ui_video_flow.obj
 0001:00010720       ?ShowPreviewVideo@CCustomizeUIVideoFlow@@QAE?AW4SDKError@ZOOMSDK@@PAVIPreviewVideoRenderElement@3@UtagRECT@@@Z 00411720 f   custom_ui_video_flow.obj
 0001:00010720       ?ShowActiveViewVideo@CCustomizeUIVideoFlow@@QAE?AW4SDKError@ZOOMSDK@@PAVIActiveVideoRenderElement@3@UtagRECT@@@Z 00411720 f   custom_ui_video_flow.obj
 0001:00010790       ?ShowGalleryViewVideo@CCustomizeUIVideoFlow@@QAE?AW4SDKError@ZOOMSDK@@PAVINormalVideoRenderElement@3@UtagRECT@@@Z 00411790 f   custom_ui_video_flow.obj
 0001:00010820       ??0CCustomizeUIVideoMgr@@QAE@PAVCCustomizeInMeetingUIMgr@@@Z 00411820 f   custom_ui_video_mgr.obj
 0001:00010850       ?CalculateCountInOnePages@CCustomizeUIVideoMgr@@AAEXXZ 00411850 f   custom_ui_video_mgr.obj
 0001:000108c0       ?CalculateCurrentActiveViewRect@CCustomizeUIVideoMgr@@AAEXXZ 004118c0 f   custom_ui_video_mgr.obj
 0001:00010990       ?CalculateCurrentGalleryViewRect@CCustomizeUIVideoMgr@@AAEXXZ 00411990 f   custom_ui_video_mgr.obj
 0001:00010a60       ?CalculateTotalPages@CCustomizeUIVideoMgr@@AAEXXZ 00411a60 f   custom_ui_video_mgr.obj
 0001:00010af0       ?CalulateViewRect@CCustomizeUIVideoMgr@@QAEXXZ 00411af0 f   custom_ui_video_mgr.obj
 0001:00010b10       ?CreateCustomVideoContainer@CCustomizeUIVideoMgr@@QAEXPAVICustomizedUIMgr@ZOOMSDK@@PAUHWND__@@UtagRECT@@@Z 00411b10 f   custom_ui_video_mgr.obj
 0001:00010c10       ?CreateGalleryViewVideo@CCustomizeUIVideoMgr@@QAEXXZ 00411c10 f   custom_ui_video_mgr.obj
 0001:00010c90       ?DestroyActiveViewVideo@CCustomizeUIVideoMgr@@QAEXXZ 00411c90 f   custom_ui_video_mgr.obj
 0001:00010ce0       ?DestroyCustomVideoContainer@CCustomizeUIVideoMgr@@AAEXXZ 00411ce0 f   custom_ui_video_mgr.obj
 0001:00010d30       ?DestroyGalleryViewVideo@CCustomizeUIVideoMgr@@QAEXXZ 00411d30 f   custom_ui_video_mgr.obj
 0001:00010db0       ?DestroyPreviewVideo@CCustomizeUIVideoMgr@@QAEXXZ 00411db0 f   custom_ui_video_mgr.obj
 0001:00010e00       ?GetCurrentAcviteViewRect@CCustomizeUIVideoMgr@@QAE?AUtagRECT@@XZ 00411e00 f   custom_ui_video_mgr.obj
 0001:00010e30       ?GetCurrentGalleryViewRect@CCustomizeUIVideoMgr@@QAE?AUtagRECT@@XZ 00411e30 f   custom_ui_video_mgr.obj
 0001:00010e60       ?HandleSizeChanged@CCustomizeUIVideoMgr@@QAEXUtagRECT@@@Z 00411e60 f   custom_ui_video_mgr.obj
 0001:00010ea0       ?HandleSwitchGalleryPage@CCustomizeUIVideoMgr@@QAEXW4ArrowButtonType@@@Z 00411ea0 f   custom_ui_video_mgr.obj
 0001:00010ef0       ?HandleUserChanged@CCustomizeUIVideoMgr@@QAEXXZ 00411ef0 f   custom_ui_video_mgr.obj
 0001:00010f20       ?HandleVideoRenderElementDestroyed@CCustomizeUIVideoMgr@@QAEXPAVIVideoRenderElement@ZOOMSDK@@@Z 00411f20 f   custom_ui_video_mgr.obj
 0001:00010fd0       ?HideGalleryViewVideo@CCustomizeUIVideoMgr@@QAEXXZ 00411fd0 f   custom_ui_video_mgr.obj
 0001:00011030       ?HidePreviewVideo@CCustomizeUIVideoMgr@@QAEXXZ 00412030 f   custom_ui_video_mgr.obj
 0001:00011060       ?ReSubscribeNormalUser@CCustomizeUIVideoMgr@@AAEXW4GalleryViewSubscribeType@@@Z 00412060 f   custom_ui_video_mgr.obj
 0001:000112c0       ?SetGalleryViewStatus@CCustomizeUIVideoMgr@@QAEX_N@Z 004122c0 f   custom_ui_video_mgr.obj
 0001:000112e0       ?SetParentHWND@CCustomizeUIVideoMgr@@AAEXPAUHWND__@@@Z 004122e0 f i custom_ui_video_mgr.obj
 0001:00011300       ?Show@CCustomizeUIVideoMgr@@QAEXXZ 00412300 f   custom_ui_video_mgr.obj
 0001:00011320       ?ShowActiveViewVideo@CCustomizeUIVideoMgr@@QAEXXZ 00412320 f   custom_ui_video_mgr.obj
 0001:000113b0       ?ShowGalleryViewVideo@CCustomizeUIVideoMgr@@QAEXW4GalleryViewSubscribeType@@@Z 004123b0 f   custom_ui_video_mgr.obj
 0001:00011500       ?ShowPreviewVideo@CCustomizeUIVideoMgr@@QAEXUtagRECT@@@Z 00412500 f   custom_ui_video_mgr.obj
 0001:000115b0       ?getVideoGalleryCurrPage@CCustomizeUIVideoMgr@@QAEHXZ 004125b0 f   custom_ui_video_mgr.obj
 0001:000115d0       ?getVideoGalleryPage@CCustomizeUIVideoMgr@@QAEHXZ 004125d0 f   custom_ui_video_mgr.obj
 0001:000115f0       ?init@CCustomizeUIVideoMgr@@QAEXXZ 004125f0 f   custom_ui_video_mgr.obj
 0001:00011670       ?uninit@CCustomizeUIVideoMgr@@QAEXXZ 00412670 f   custom_ui_video_mgr.obj
 0001:000116a0       ??0CCheckBoxUI@DuiLib@@QAE@XZ 004126a0 f i dial_in_country_ui.obj
 0001:000116c0       ??0CDialInCountryUIMgr@@QAE@PAVCSDKSheduleMeetingUIGroup@@PAVIScheduleMeetingItem@ZOOMSDK@@@Z 004126c0 f   dial_in_country_ui.obj
 0001:000117d0       ??1CCheckBoxUI@DuiLib@@UAE@XZ 004127d0 f i dial_in_country_ui.obj
 0001:000117f0       ??1CDialInCountryUIMgr@@QAE@XZ 004127f0 f   dial_in_country_ui.obj
 0001:00011880       ??_ECCheckBoxUI@DuiLib@@UAEPAXI@Z 00412880 f i dial_in_country_ui.obj
 0001:00011880       ??_GCCheckBoxUI@DuiLib@@UAEPAXI@Z 00412880 f i dial_in_country_ui.obj
 0001:000118c0       ?AddElement@CDialInCountryUIMgr@@AAEXPB_W@Z 004128c0 f   dial_in_country_ui.obj
 0001:00011a50       ?DoClickSaveChangeBtn@CDialInCountryUIMgr@@AAEXXZ 00412a50 f   dial_in_country_ui.obj
 0001:00011d70       ?FindElement@CDialInCountryUIMgr@@AAEPAVCControlUI@DuiLib@@PB_W@Z 00412d70 f   dial_in_country_ui.obj
 0001:00011da0       ?GetSelectedDialinCountryCode@CDialInCountryUIMgr@@QAEPAV?$IList@PB_W@ZOOMSDK@@XZ 00412da0 f   dial_in_country_ui.obj
 0001:00011de0       ?GetSkinRes@CDialInCountryUIMgr@@UAEIXZ 00412de0 f i dial_in_country_ui.obj
 0001:00011df0       ?HandleMessage@CDialInCountryUIMgr@@UAEJIIJ@Z 00412df0 f   dial_in_country_ui.obj
 0001:00011fd0       ?InitCountryListUI@CDialInCountryUIMgr@@AAEXXZ 00412fd0 f   dial_in_country_ui.obj
 0001:00012160       ?InitWindow@CDialInCountryUIMgr@@UAEXXZ 00413160 f   dial_in_country_ui.obj
 0001:00012350       ?Notify@CDialInCountryUIMgr@@UAEXAAUtagTNotifyUI@DuiLib@@@Z 00413350 f   dial_in_country_ui.obj
 0001:000123b0       ?UpdateShowList@CDialInCountryUIMgr@@AAEXXZ 004133b0 f   dial_in_country_ui.obj
 0001:000125f0       ??0ClosedCaptionDisplayUI@@QAE@HH@Z 004135f0 f   display_cc_ui.obj
 0001:00012660       ??1ClosedCaptionDisplayUI@@UAE@XZ 00413660 f   display_cc_ui.obj
 0001:000126a0       ??_GClosedCaptionDisplayUI@@UAEPAXI@Z 004136a0 f i display_cc_ui.obj
 0001:000126a0       ??_EClosedCaptionDisplayUI@@UAEPAXI@Z 004136a0 f i display_cc_ui.obj
 0001:000126e0       ?GetWindowClassName@ClosedCaptionDisplayUI@@UBEPB_WXZ 004136e0 f i display_cc_ui.obj
 0001:000126e0       ?GetWindowClassName@CInvitationUIMgr@@UBEPB_WXZ 004136e0 f i invitation_ui.obj
 0001:000126f0       ?HandleMessage@ClosedCaptionDisplayUI@@UAEJIIJ@Z 004136f0 f   display_cc_ui.obj
 0001:00012830       ?HandleSizeChanged@ClosedCaptionDisplayUI@@QAEXPAUHWND__@@@Z 00413830 f   display_cc_ui.obj
 0001:000128c0       ?HideWnd@@YGXPAUHWND__@@IIK@Z 004138c0 f   display_cc_ui.obj
 0001:000128e0       ?Init@ClosedCaptionDisplayUI@@AAEXXZ 004138e0 f   display_cc_ui.obj
 0001:00012a40       ?SetDisplayContent@ClosedCaptionDisplayUI@@QAEXPB_W@Z 00413a40 f   display_cc_ui.obj
 0001:00012ad0       ??0CAuthSDKWorkFlow@@QAE@XZ 00413ad0 f   init_auth_sdk_workflow.obj
 0001:00012b10       ??0CInitSDKWorkFlow@@QAE@XZ 00413b10 f   init_auth_sdk_workflow.obj
 0001:00012b40       ??0IAuthServiceEvent@ZOOMSDK@@QAE@XZ 00413b40 f i init_auth_sdk_workflow.obj
 0001:00012b60       ??0INetworkConnectionHandler@ZOOMSDK@@QAE@XZ 00413b60 f i init_auth_sdk_workflow.obj
 0001:00012b80       ??1CAuthSDKWorkFlow@@UAE@XZ 00413b80 f   init_auth_sdk_workflow.obj
 0001:00012bf0       ??1CInitSDKWorkFlow@@UAE@XZ 00413bf0 f   init_auth_sdk_workflow.obj
 0001:00012c10       ??_ECAuthSDKWorkFlow@@UAEPAXI@Z 00413c10 f i init_auth_sdk_workflow.obj
 0001:00012c10       ??_GCAuthSDKWorkFlow@@UAEPAXI@Z 00413c10 f i init_auth_sdk_workflow.obj
 0001:00012c40       ??_ECInitSDKWorkFlow@@UAEPAXI@Z 00413c40 f i init_auth_sdk_workflow.obj
 0001:00012c40       ??_GCInitSDKWorkFlow@@UAEPAXI@Z 00413c40 f i init_auth_sdk_workflow.obj
 0001:00012c70       ?Auth@CAuthSDKWorkFlow@@QAE?AW4SDKError@ZOOMSDK@@AAUtagAuthContext@3@@Z 00413c70 f   init_auth_sdk_workflow.obj
 0001:00012ce0       ?CleanupSDK@CInitSDKWorkFlow@@QAE?AW4SDKError@ZOOMSDK@@XZ 00413ce0 f   init_auth_sdk_workflow.obj
 0001:00012d30       ?InitSDK@CInitSDKWorkFlow@@QAE?AW4SDKError@ZOOMSDK@@AAUtagInitParam@3@_N@Z 00413d30 f   init_auth_sdk_workflow.obj
 0001:00012de0       ?onAuthenticationReturn@CAuthSDKWorkFlow@@UAEXW4AuthResult@ZOOMSDK@@@Z 00413de0 f   init_auth_sdk_workflow.obj
 0001:00012e10       ?onProxyDetectComplete@CInitSDKWorkFlow@@UAEXXZ 00413e10 f   init_auth_sdk_workflow.obj
 0001:00012e50       ??0CInvitationUIMgr@@QAE@XZ 00413e50 f   invitation_ui.obj
 0001:00012f00       ??1CInvitationUIMgr@@QAE@XZ 00413f00 f   invitation_ui.obj
 0001:00012f60       ?DoClickCopyInviteInfoBtn@CInvitationUIMgr@@IAEXXZ 00413f60 f   invitation_ui.obj
 0001:00013090       ?DoClickCopyLinkBtn@CInvitationUIMgr@@IAEXXZ 00414090 f   invitation_ui.obj
 0001:00013100       ?GetSkinRes@CInvitationUIMgr@@UAEIXZ 00414100 f i invitation_ui.obj
 0001:00013110       ?HandleMessage@CInvitationUIMgr@@UAEJIIJ@Z 00414110 f   invitation_ui.obj
 0001:00013350       ?InitWindow@CInvitationUIMgr@@IAEXXZ 00414350 f   invitation_ui.obj
 0001:00013510       ?Notify@CInvitationUIMgr@@UAEXAAUtagTNotifyUI@DuiLib@@@Z 00414510 f   invitation_ui.obj
 0001:00013580       ??0CInvitationWorkflow@@QAE@XZ 00414580 f   invitation_workflow.obj
 0001:000135b0       ??1CInvitationWorkflow@@UAE@XZ 004145b0 f   invitation_workflow.obj
 0001:000135d0       ??_ECInvitationWorkflow@@UAEPAXI@Z 004145d0 f i invitation_workflow.obj
 0001:000135d0       ??_GCInvitationWorkflow@@UAEPAXI@Z 004145d0 f i invitation_workflow.obj
 0001:00013600       ?GetInviteEmailTeamplate@CInvitationWorkflow@@QAEPB_WXZ 00414600 f   invitation_workflow.obj
 0001:00013630       ?GetInviteEmailTitle@CInvitationWorkflow@@QAEPB_WXZ 00414630 f   invitation_workflow.obj
 0001:00013660       ?GetJoinMeetingUrl@CInvitationWorkflow@@QAEPB_WXZ 00414660 f   invitation_workflow.obj
 0001:00013690       ?Init@CInvitationWorkflow@@QAEXXZ 00414690 f   invitation_workflow.obj
 0001:000136d0       ??0CSDKJoinMeetingForLoginUserFlowUIEvent@@QAE@XZ 004146d0 f i Join_meeting_for_login_user_ui.obj
 0001:000136f0       ??0CSDKJoinMeetingForLoginUserUIGroup@@QAE@XZ 004146f0 f   Join_meeting_for_login_user_ui.obj
 0001:00013760       ??0CSDKJoinMeetingForLoginUserUIMgr@@QAE@XZ 00414760 f   Join_meeting_for_login_user_ui.obj
 0001:00013800       ??0tagJoinParam@ZOOMSDK@@QAE@XZ 00414800 f i Join_meeting_for_login_user_ui.obj
 0001:00013800       ??0tagStartParam@ZOOMSDK@@QAE@XZ 00414800 f i LoggedIn_sdk_controller_ui.obj
 0001:00013840       ??1CSDKJoinMeetingForLoginUserUIGroup@@UAE@XZ 00414840 f   Join_meeting_for_login_user_ui.obj
 0001:000138b0       ??1CSDKJoinMeetingForLoginUserUIMgr@@UAE@XZ 004148b0 f   Join_meeting_for_login_user_ui.obj
 0001:00013900       ??_ECSDKJoinMeetingForLoginUserUIGroup@@UAEPAXI@Z 00414900 f i Join_meeting_for_login_user_ui.obj
 0001:00013900       ??_GCSDKJoinMeetingForLoginUserUIGroup@@UAEPAXI@Z 00414900 f i Join_meeting_for_login_user_ui.obj
 0001:00013930       ??_GCSDKJoinMeetingForLoginUserUIMgr@@UAEPAXI@Z 00414930 f i Join_meeting_for_login_user_ui.obj
 0001:00013930       ??_ECSDKJoinMeetingForLoginUserUIMgr@@UAEPAXI@Z 00414930 f i Join_meeting_for_login_user_ui.obj
 0001:00013970       ?DoJoinMeetingBtnClick@CSDKJoinMeetingForLoginUserUIGroup@@QAEXXZ 00414970 f   Join_meeting_for_login_user_ui.obj
 0001:00013cd0       ?GetParent@CToolbarBottom@@QAEPAUHWND__@@XZ 00414cd0 f   toolbar_manager.obj
 0001:00013cd0       ?GetAppEvent@CSDKJoinMeetingForLoginUserUIMgr@@QAEPAVCSDKDemoAppEvent@@XZ 00414cd0 f   Join_meeting_for_login_user_ui.obj
 0001:00013cf0       ?GetSkinRes@CSDKJoinMeetingForLoginUserUIMgr@@UAEIXZ 00414cf0 f i Join_meeting_for_login_user_ui.obj
 0001:00013d00       ?HandleMessage@CSDKJoinMeetingForLoginUserUIMgr@@UAEJIIJ@Z 00414d00 f   Join_meeting_for_login_user_ui.obj
 0001:00013f00       ?InitWindow@CSDKJoinMeetingForLoginUserUIGroup@@QAEXAAVCPaintManagerUI@DuiLib@@PAVCSDKJoinMeetingForLoginUserUIMgr@@@Z 00414f00 f   Join_meeting_for_login_user_ui.obj
 0001:00013f90       ?InitWindow@CSDKJoinMeetingForLoginUserUIMgr@@UAEXXZ 00414f90 f   Join_meeting_for_login_user_ui.obj
 0001:000140d0       ?IsSelectCustomizedUIMode@SDKInterfaceWrap@@QAE_NXZ 004150d0 f i Join_meeting_for_login_user_ui.obj
 0001:000140f0       ?Notify@CSDKJoinMeetingForLoginUserUIGroup@@QAEXAAUtagTNotifyUI@DuiLib@@@Z 004150f0 f   Join_meeting_for_login_user_ui.obj
 0001:00014130       ?Notify@CSDKJoinMeetingForLoginUserUIMgr@@UAEXAAUtagTNotifyUI@DuiLib@@@Z 00415130 f   Join_meeting_for_login_user_ui.obj
 0001:00014150       ?OnDestroy@CSDKJoinMeetingForLoginUserUIMgr@@QAEJIIJAAH@Z 00415150 f   Join_meeting_for_login_user_ui.obj
 0001:00014170       ?SetParent@CToolbarBottom@@QAEXPAUHWND__@@@Z 00415170 f   toolbar_bottom_ui.obj
 0001:00014170       ?SetEvent@CSDKJoinMeetingForLoginUserUIMgr@@QAEXPAVCSDKDemoAppEvent@@@Z 00415170 f   Join_meeting_for_login_user_ui.obj
 0001:00014190       ?ShowErrorMessage@CSDKJoinMeetingForLoginUserUIMgr@@QAEXPB_W@Z 00415190 f   Join_meeting_for_login_user_ui.obj
 0001:000141c0       ?UninitWindow@CSDKJoinMeetingForLoginUserUIGroup@@QAEXXZ 004151c0 f   Join_meeting_for_login_user_ui.obj
 0001:000141c0       ?UninitWindow@CSDKRestAPIUserUIGroup@@QAEXXZ 004151c0 f   LOGIN_sdk_login_UI.obj
 0001:000141f0       ?onMeetingStatusChanged@CSDKJoinMeetingForLoginUserUIGroup@@UAEXW4MeetingStatus@ZOOMSDK@@H@Z 004151f0 f   Join_meeting_for_login_user_ui.obj
 0001:00014260       ??0CSDKJoinMeetingForLoginUserFlow@@QAE@XZ 00415260 f   Join_meeting_for_login_user_workflow.obj
 0001:000142a0       ??1CSDKJoinMeetingForLoginUserFlow@@UAE@XZ 004152a0 f   Join_meeting_for_login_user_workflow.obj
 0001:00014310       ??_ECSDKJoinMeetingForLoginUserFlow@@UAEPAXI@Z 00415310 f i Join_meeting_for_login_user_workflow.obj
 0001:00014310       ??_GCSDKJoinMeetingForLoginUserFlow@@UAEPAXI@Z 00415310 f i Join_meeting_for_login_user_workflow.obj
 0001:00014340       ?IsMeetingServiceReady@CSDKJoinMeetingForLoginUserFlow@@QAE_NXZ 00415340 f   Join_meeting_for_login_user_workflow.obj
 0001:00014340       ?IsMeetingServiceReady@CSDKRestAPIUserWorkFlow@@QAE_NXZ 00415340 f   LOGIN_restapi_without_login_workflow.obj
 0001:00014390       ?JoinMeeting@CSDKJoinMeetingForLoginUserFlow@@QAE?AW4SDKError@ZOOMSDK@@AAUtagJoinParam@3@@Z 00415390 f   Join_meeting_for_login_user_workflow.obj
 0001:00014430       ??0CSDKLoggedInFlowUIEvent@@QAE@XZ 00415430 f i LoggedIn_sdk_controller_ui.obj
 0001:00014450       ??0CSDKLoggedInUIMgr@@QAE@XZ 00415450 f   LoggedIn_sdk_controller_ui.obj
 0001:00014520       ??1CSDKLoggedInUIMgr@@UAE@XZ 00415520 f   LoggedIn_sdk_controller_ui.obj
 0001:00014570       ??_GCSDKLoggedInUIMgr@@UAEPAXI@Z 00415570 f i LoggedIn_sdk_controller_ui.obj
 0001:00014570       ??_ECSDKLoggedInUIMgr@@UAEPAXI@Z 00415570 f i LoggedIn_sdk_controller_ui.obj
 0001:000145b0       ?DisableMeetingButton@CSDKLoggedInUIMgr@@IAEXXZ 004155b0 f   LoggedIn_sdk_controller_ui.obj
 0001:000147b0       ?DoBackToMeetingBtnClick@CSDKLoggedInUIMgr@@IAEXXZ 004157b0 f   LoggedIn_sdk_controller_ui.obj
 0001:000147f0       ?DoConfigureBtnClick@CSDKLoggedInUIMgr@@IAEXXZ 004157f0 f   LoggedIn_sdk_controller_ui.obj
 0001:00014830       ?DoJoinMeetingBtnClick@CSDKLoggedInUIMgr@@IAEXXZ 00415830 f   LoggedIn_sdk_controller_ui.obj
 0001:00014860       ?DoLogoutBtnClick@CSDKLoggedInUIMgr@@IAEXXZ 00415860 f   LoggedIn_sdk_controller_ui.obj
 0001:00014880       ?DoScheduleBtnClick@CSDKLoggedInUIMgr@@IAEXXZ 00415880 f   LoggedIn_sdk_controller_ui.obj
 0001:000148b0       ?DoStartDirectShareBtnClick@CSDKLoggedInUIMgr@@IAEXXZ 004158b0 f   LoggedIn_sdk_controller_ui.obj
 0001:000148d0       ?DoStartMeetingBtnClick@CSDKLoggedInUIMgr@@IAEX_N@Z 004158d0 f   LoggedIn_sdk_controller_ui.obj
 0001:00014a00       ?GetSkinRes@CSDKLoggedInUIMgr@@UAEIXZ 00415a00 f i LoggedIn_sdk_controller_ui.obj
 0001:00014a10       ?HandleMessage@CSDKLoggedInUIMgr@@UAEJIIJ@Z 00415a10 f   LoggedIn_sdk_controller_ui.obj
 0001:00014c10       ?InitWindow@CSDKLoggedInUIMgr@@UAEXXZ 00415c10 f   LoggedIn_sdk_controller_ui.obj
 0001:00014ff0       ?Notify@CSDKLoggedInUIMgr@@UAEXAAUtagTNotifyUI@DuiLib@@@Z 00415ff0 f   LoggedIn_sdk_controller_ui.obj
 0001:000151b0       ?OnClose@CSDKLoggedInUIMgr@@QAEJIIJAAH@Z 004161b0 f   LoggedIn_sdk_controller_ui.obj
 0001:00015250       ?OnDestroy@CSDKLoggedInUIMgr@@QAEJIIJAAH@Z 00416250 f   LoggedIn_sdk_controller_ui.obj
 0001:00015270       ?SetEvent@CSDKLoggedInUIMgr@@QAEXPAVCSDKDemoAppEvent@@@Z 00416270 f   LoggedIn_sdk_controller_ui.obj
 0001:00015290       ?ShowBackToMeetingButton@CSDKLoggedInUIMgr@@IAEXXZ 00416290 f   LoggedIn_sdk_controller_ui.obj
 0001:000156a0       ?ShowErrorMessage@CSDKLoggedInUIMgr@@QAEXPB_W@Z 004166a0 f   LoggedIn_sdk_controller_ui.obj
 0001:000156d0       ?ShowUI@CSDKLoggedInUIMgr@@QAEXW4LoggedIn_MeetingUI_type@@@Z 004166d0 f   LoggedIn_sdk_controller_ui.obj
 0001:00015830       ?onMeetingStatusChanged@CSDKLoggedInUIMgr@@UAEXW4MeetingStatus@ZOOMSDK@@H@Z 00416830 f   LoggedIn_sdk_controller_ui.obj
 0001:00015930       ?updateUI@CSDKLoggedInUIMgr@@IAEXXZ 00416930 f   LoggedIn_sdk_controller_ui.obj
 0001:00015950       ??0CSDKLoggedInUIWorkFlow@@QAE@XZ 00416950 f   LoggedIn_sdk_controller_workflow.obj
 0001:000159b0       ??0IDirectShareServiceHelperEvent@ZOOMSDK@@QAE@XZ 004169b0 f i LoggedIn_sdk_controller_workflow.obj
 0001:000159d0       ??1CSDKLoggedInUIWorkFlow@@UAE@XZ 004169d0 f   LoggedIn_sdk_controller_workflow.obj
 0001:00015a50       ??_ECSDKLoggedInUIWorkFlow@@UAEPAXI@Z 00416a50 f i LoggedIn_sdk_controller_workflow.obj
 0001:00015a50       ??_GCSDKLoggedInUIWorkFlow@@UAEPAXI@Z 00416a50 f i LoggedIn_sdk_controller_workflow.obj
 0001:00015a80       ?BringMeetingToFront@CSDKLoggedInUIWorkFlow@@QAE?AW4SDKError@ZOOMSDK@@XZ 00416a80 f   LoggedIn_sdk_controller_workflow.obj
 0001:00015ae0       ?DirectShare@CSDKLoggedInUIWorkFlow@@QAE?AW4SDKError@ZOOMSDK@@XZ 00416ae0 f   LoggedIn_sdk_controller_workflow.obj
 0001:00015b90       ?EndMeeting@CSDKLoggedInUIWorkFlow@@QAE?AW4SDKError@ZOOMSDK@@XZ 00416b90 f   LoggedIn_sdk_controller_workflow.obj
 0001:00015bf0       ?IsMeetingServiceReady@CSDKLoggedInUIWorkFlow@@QAE_NXZ 00416bf0 f   LoggedIn_sdk_controller_workflow.obj
 0001:00015c40       ?LeaveMeeting@CSDKLoggedInUIWorkFlow@@QAE?AW4SDKError@ZOOMSDK@@XZ 00416c40 f   LoggedIn_sdk_controller_workflow.obj
 0001:00015ca0       ?OnDirectShareStatusUpdate@CSDKLoggedInUIWorkFlow@@UAEXW4DirectShareStatusStatus_Enum@ZOOMSDK@@PAVIDirectShareViaMeetingIDOrPairingCodeHandler@3@@Z 00416ca0 f   LoggedIn_sdk_controller_workflow.obj
 0001:00015ce0       ?StartMeeting@CSDKLoggedInUIWorkFlow@@QAE?AW4SDKError@ZOOMSDK@@AAUtagStartParam@3@@Z 00416ce0 f   LoggedIn_sdk_controller_workflow.obj
 0001:00015d60       ?onMeetingParameterNotification@CSDKLoggedInUIWorkFlow@@UAEXPBUtagMeetingParameter@ZOOMSDK@@@Z 00416d60 f   LoggedIn_sdk_controller_workflow.obj
 0001:00015d90       ?onMeetingSecureKeyNotification@CSDKLoggedInUIWorkFlow@@UAEXPBDHPAVIMeetingExternalSecureKeyHandler@ZOOMSDK@@@Z 00416d90 f   LoggedIn_sdk_controller_workflow.obj
 0001:00015dd0       ?onMeetingStatisticsWarningNotification@CSDKLoggedInUIWorkFlow@@UAEXW4StatisticsWarningType@ZOOMSDK@@@Z 00416dd0 f   LoggedIn_sdk_controller_workflow.obj
 0001:00015e00       ?onMeetingStatusChanged@CSDKLoggedInUIWorkFlow@@UAEXW4MeetingStatus@ZOOMSDK@@H@Z 00416e00 f   LoggedIn_sdk_controller_workflow.obj
 0001:00015e00       ?OnMicSpkVolumnChanged@CSDKAudioSettingsWorkFlow@@UAEXII@Z 00416e00 f   SETTINGS_audio_workflow.obj
 0001:00015e30       ??0CSDKWithoutLoginStartJoinMeetingFlow@@QAE@XZ 00416e30 f   LOGIN_join_meeting_only_workflow.obj
 0001:00015e90       ??1CSDKWithoutLoginStartJoinMeetingFlow@@UAE@XZ 00416e90 f   LOGIN_join_meeting_only_workflow.obj
 0001:00015f20       ??_ECSDKWithoutLoginStartJoinMeetingFlow@@UAEPAXI@Z 00416f20 f i LOGIN_join_meeting_only_workflow.obj
 0001:00015f20       ??_GCSDKWithoutLoginStartJoinMeetingFlow@@UAEPAXI@Z 00416f20 f i LOGIN_join_meeting_only_workflow.obj
 0001:00015f50       ?IsMeetingServiceReady@CSDKWithoutLoginStartJoinMeetingFlow@@QAE_NXZ 00416f50 f   LOGIN_join_meeting_only_workflow.obj
 0001:00015fb0       ?JoinMeeting@CSDKWithoutLoginStartJoinMeetingFlow@@QAE?AW4SDKError@ZOOMSDK@@AAUtagJoinParam@3@@Z 00416fb0 f   LOGIN_join_meeting_only_workflow.obj
 0001:000160a0       ??0CSDKLoginWithEmailFlow@@QAE@XZ 004170a0 f   LOGIN_login_with_email_workflow.obj
 0001:000160d0       ??1CSDKLoginWithEmailFlow@@UAE@XZ 004170d0 f   LOGIN_login_with_email_workflow.obj
 0001:000160f0       ??_GCSDKLoginWithEmailFlow@@UAEPAXI@Z 004170f0 f i LOGIN_login_with_email_workflow.obj
 0001:000160f0       ??_ECSDKLoginWithEmailFlow@@UAEPAXI@Z 004170f0 f i LOGIN_login_with_email_workflow.obj
 0001:00016120       ?LogOut@CSDKLoginWithEmailFlow@@QAE?AW4SDKError@ZOOMSDK@@XZ 00417120 f   LOGIN_login_with_email_workflow.obj
 0001:00016180       ?Login@CSDKLoginWithEmailFlow@@QAE?AW4SDKError@ZOOMSDK@@AAUtagLoginParam@3@@Z 00417180 f   LOGIN_login_with_email_workflow.obj
 0001:00016180       ?Login@CSDKLoginWithSSOFlow@@QAE?AW4SDKError@ZOOMSDK@@AAUtagLoginParam@3@@Z 00417180 f   LOGIN_login_with_sso_workflow.obj
 0001:000161e0       ??0CSDKLoginWithSSOFlow@@QAE@XZ 004171e0 f   LOGIN_login_with_sso_workflow.obj
 0001:00016210       ??1CSDKLoginWithSSOFlow@@UAE@XZ 00417210 f   LOGIN_login_with_sso_workflow.obj
 0001:00016230       ??_GCSDKLoginWithSSOFlow@@UAEPAXI@Z 00417230 f i LOGIN_login_with_sso_workflow.obj
 0001:00016230       ??_ECSDKLoginWithSSOFlow@@UAEPAXI@Z 00417230 f i LOGIN_login_with_sso_workflow.obj
 0001:00016260       ??0CSDKRestAPIUserWorkFlow@@QAE@XZ 00417260 f   LOGIN_restapi_without_login_workflow.obj
 0001:000162a0       ??1CSDKRestAPIUserWorkFlow@@UAE@XZ 004172a0 f   LOGIN_restapi_without_login_workflow.obj
 0001:00016310       ??_GCSDKRestAPIUserWorkFlow@@UAEPAXI@Z 00417310 f i LOGIN_restapi_without_login_workflow.obj
 0001:00016310       ??_ECSDKRestAPIUserWorkFlow@@UAEPAXI@Z 00417310 f i LOGIN_restapi_without_login_workflow.obj
 0001:00016340       ?RestAPIStartMeeting@CSDKRestAPIUserWorkFlow@@QAE?AW4SDKError@ZOOMSDK@@AAUtagStartParam@3@@Z 00417340 f   LOGIN_restapi_without_login_workflow.obj
 0001:000163f0       ?onMeetingParameterNotification@CSDKRestAPIUserWorkFlow@@UAEXPBUtagMeetingParameter@ZOOMSDK@@@Z 004173f0 f   LOGIN_restapi_without_login_workflow.obj
 0001:000163f0       ?onComputerCamDeviceChanged@CSDKVideoSettingsWorkFlow@@UAEXPAV?$IList@PAVICameraInfo@ZOOMSDK@@@ZOOMSDK@@@Z 004173f0 f   SETTINGS_video_workflow.obj
 0001:00016420       ?onMeetingSecureKeyNotification@CSDKRestAPIUserWorkFlow@@UAEXPBDHPAVIMeetingExternalSecureKeyHandler@ZOOMSDK@@@Z 00417420 f   LOGIN_restapi_without_login_workflow.obj
 0001:00016460       ??0CSDKJoinMeetingOnlyFlowUIEvent@@QAE@XZ 00417460 f i LOGIN_sdk_login_UI.obj
 0001:00016480       ??0CSDKLoginCBHandler@@QAE@XZ 00417480 f   LOGIN_sdk_login_UI.obj
 0001:000164b0       ??0CSDKLoginUIMgr@@QAE@XZ  004174b0 f   LOGIN_sdk_login_UI.obj
 0001:00016640       ??0CSDKLoginWithEmailUIGroup@@QAE@XZ 00417640 f   LOGIN_sdk_login_UI.obj
 0001:000166b0       ??0CSDKLoginWithSSOUIGroup@@QAE@XZ 004176b0 f   LOGIN_sdk_login_UI.obj
 0001:00016710       ??0CSDKRestAPIUserUIEvent@@QAE@XZ 00417710 f i LOGIN_sdk_login_UI.obj
 0001:00016730       ??0CSDKRestAPIUserUIGroup@@QAE@XZ 00417730 f   LOGIN_sdk_login_UI.obj
 0001:000167a0       ??0CSDKWithoutLoginStartJoinMeetingUIGroup@@QAE@XZ 004177a0 f   LOGIN_sdk_login_UI.obj
 0001:00016820       ??0tagLoginParam@ZOOMSDK@@QAE@XZ 00417820 f i LOGIN_sdk_login_UI.obj
 0001:00016850       ??1CSDKLoginCBHandler@@UAE@XZ 00417850 f   LOGIN_sdk_login_UI.obj
 0001:000168b0       ??1CSDKLoginUIMgr@@UAE@XZ  004178b0 f   LOGIN_sdk_login_UI.obj
 0001:00016a20       ??1CSDKLoginWithEmailUIGroup@@UAE@XZ 00417a20 f   LOGIN_sdk_login_UI.obj
 0001:00016a90       ??1CSDKLoginWithSSOUIGroup@@UAE@XZ 00417a90 f   LOGIN_sdk_login_UI.obj
 0001:00016af0       ??1CSDKRestAPIUserUIGroup@@UAE@XZ 00417af0 f   LOGIN_sdk_login_UI.obj
 0001:00016b60       ??1CSDKWithoutLoginStartJoinMeetingUIGroup@@UAE@XZ 00417b60 f   LOGIN_sdk_login_UI.obj
 0001:00016bd0       ??_GCSDKLoginCBHandler@@UAEPAXI@Z 00417bd0 f i LOGIN_sdk_login_UI.obj
 0001:00016bd0       ??_ECSDKLoginCBHandler@@UAEPAXI@Z 00417bd0 f i LOGIN_sdk_login_UI.obj
 0001:00016c00       ??_ECSDKLoginUIMgr@@UAEPAXI@Z 00417c00 f i LOGIN_sdk_login_UI.obj
 0001:00016c00       ??_GCSDKLoginUIMgr@@UAEPAXI@Z 00417c00 f i LOGIN_sdk_login_UI.obj
 0001:00016c40       ??_GCSDKLoginWithEmailUIGroup@@UAEPAXI@Z 00417c40 f i LOGIN_sdk_login_UI.obj
 0001:00016c40       ??_ECSDKLoginWithEmailUIGroup@@UAEPAXI@Z 00417c40 f i LOGIN_sdk_login_UI.obj
 0001:00016c70       ??_GCSDKLoginWithSSOUIGroup@@UAEPAXI@Z 00417c70 f i LOGIN_sdk_login_UI.obj
 0001:00016c70       ??_ECSDKLoginWithSSOUIGroup@@UAEPAXI@Z 00417c70 f i LOGIN_sdk_login_UI.obj
 0001:00016ca0       ??_ECSDKRestAPIUserUIGroup@@UAEPAXI@Z 00417ca0 f i LOGIN_sdk_login_UI.obj
 0001:00016ca0       ??_GCSDKRestAPIUserUIGroup@@UAEPAXI@Z 00417ca0 f i LOGIN_sdk_login_UI.obj
 0001:00016cd0       ??_GCSDKWithoutLoginStartJoinMeetingUIGroup@@UAEPAXI@Z 00417cd0 f i LOGIN_sdk_login_UI.obj
 0001:00016cd0       ??_ECSDKWithoutLoginStartJoinMeetingUIGroup@@UAEPAXI@Z 00417cd0 f i LOGIN_sdk_login_UI.obj
 0001:00016d00       ?ChangeUIforJoinFailed@CSDKLoginUIMgr@@QAEXXZ 00417d00 f   LOGIN_sdk_login_UI.obj
 0001:00016d50       ?ChangeUIforLoginFailed@CSDKLoginUIMgr@@QAEXXZ 00417d50 f   LOGIN_sdk_login_UI.obj
 0001:00016db0       ?DoLoginWithEmailBtnClick@CSDKLoginWithEmailUIGroup@@QAEXXZ 00417db0 f   LOGIN_sdk_login_UI.obj
 0001:00017030       ?DoLoginWithSSOBtnClick@CSDKLoginWithSSOUIGroup@@QAEXXZ 00418030 f   LOGIN_sdk_login_UI.obj
 0001:000171c0       ?DoWithoutLoginStartJoinMeetingBtnClick@CSDKWithoutLoginStartJoinMeetingUIGroup@@QAEXXZ 004181c0 f   LOGIN_sdk_login_UI.obj
 0001:000175b0       ?DoWithoutLoginStartMeetingBtnClick@CSDKRestAPIUserUIGroup@@QAEXXZ 004185b0 f   LOGIN_sdk_login_UI.obj
 0001:00017890       ?EnableEmailLoginUI@CSDKLoginUIMgr@@QAEX_NW4SwitchToLoginUIType@@@Z 00418890 f   LOGIN_sdk_login_UI.obj
 0001:000178f0       ?GetAppEvent@CSDKLoginUIMgr@@QAEPAVCSDKDemoAppEvent@@XZ 004188f0 f   LOGIN_sdk_login_UI.obj
 0001:00017910       ?GetSkinRes@CSDKLoginUIMgr@@UAEIXZ 00418910 f i LOGIN_sdk_login_UI.obj
 0001:00017920       ?HandleMessage@CSDKLoginUIMgr@@UAEJIIJ@Z 00418920 f   LOGIN_sdk_login_UI.obj
 0001:00017b20       ?Hide@CInitSDKUIGroup@@QAEXXZ 00418b20 f   sdk_init_auth_ui.obj
 0001:00017b20       ?Hide@CSDKLoginWithEmailUIGroup@@QAEXXZ 00418b20 f   LOGIN_sdk_login_UI.obj
 0001:00017b20       ?Hide@CSDKLoginWithSSOUIGroup@@QAEXXZ 00418b20 f   LOGIN_sdk_login_UI.obj
 0001:00017b20       ?Hide@CAuthSDKUIGroup@@QAEXXZ 00418b20 f   sdk_init_auth_ui.obj
 0001:00017b20       ?Hide@CSDKWithoutLoginStartJoinMeetingUIGroup@@QAEXXZ 00418b20 f   LOGIN_sdk_login_UI.obj
 0001:00017b20       ?Hide@CSDKRecordingSettingsUIGroup@@QAEXXZ 00418b20 f   settings_ui.obj
 0001:00017b20       ?Hide@CSDKGeneralSettingsUIGroup@@QAEXXZ 00418b20 f   settings_ui.obj
 0001:00017b20       ?Hide@CSDKShareSettingsUIGroup@@QAEXXZ 00418b20 f   settings_ui.obj
 0001:00017b20       ?Hide@CSDKRestAPIUserUIGroup@@QAEXXZ 00418b20 f   LOGIN_sdk_login_UI.obj
 0001:00017b50       ?InitWindow@CSDKLoginUIMgr@@UAEXXZ 00418b50 f   LOGIN_sdk_login_UI.obj
 0001:00017e40       ?InitWindow@CSDKLoginWithEmailUIGroup@@QAEXAAVCPaintManagerUI@DuiLib@@PAVCSDKLoginUIMgr@@@Z 00418e40 f   LOGIN_sdk_login_UI.obj
 0001:00017ee0       ?InitWindow@CSDKLoginWithSSOUIGroup@@QAEXAAVCPaintManagerUI@DuiLib@@PAVCSDKLoginUIMgr@@@Z 00418ee0 f   LOGIN_sdk_login_UI.obj
 0001:00017f60       ?InitWindow@CSDKRestAPIUserUIGroup@@QAEXAAVCPaintManagerUI@DuiLib@@PAVCSDKLoginUIMgr@@@Z 00418f60 f   LOGIN_sdk_login_UI.obj
 0001:00018000       ?InitWindow@CSDKWithoutLoginStartJoinMeetingUIGroup@@QAEXAAVCPaintManagerUI@DuiLib@@PAVCSDKLoginUIMgr@@@Z 00419000 f   LOGIN_sdk_login_UI.obj
 0001:000180a0       ?LogOut@CSDKLoginUIMgr@@QAE_NXZ 004190a0 f   LOGIN_sdk_login_UI.obj
 0001:000180c0       ?LogOut@CSDKLoginWithEmailUIGroup@@QAE_NXZ 004190c0 f   LOGIN_sdk_login_UI.obj
 0001:000180f0       ?Notify@CSDKLoginUIMgr@@UAEXAAUtagTNotifyUI@DuiLib@@@Z 004190f0 f   LOGIN_sdk_login_UI.obj
 0001:000182a0       ?Notify@CSDKLoginWithEmailUIGroup@@QAEXAAUtagTNotifyUI@DuiLib@@@Z 004192a0 f   LOGIN_sdk_login_UI.obj
 0001:00018300       ?Notify@CSDKLoginWithSSOUIGroup@@QAEXAAUtagTNotifyUI@DuiLib@@@Z 00419300 f   LOGIN_sdk_login_UI.obj
 0001:00018360       ?Notify@CSDKRestAPIUserUIGroup@@QAEXAAUtagTNotifyUI@DuiLib@@@Z 00419360 f   LOGIN_sdk_login_UI.obj
 0001:000183c0       ?Notify@CSDKWithoutLoginStartJoinMeetingUIGroup@@QAEXAAUtagTNotifyUI@DuiLib@@@Z 004193c0 f   LOGIN_sdk_login_UI.obj
 0001:00018420       ?NotifyAuthDone@CSDKLoginUIMgr@@QAEXXZ 00419420 f   LOGIN_sdk_login_UI.obj
 0001:00018470       ?OnClose@CSDKLoginUIMgr@@QAEJIIJAAH@Z 00419470 f   LOGIN_sdk_login_UI.obj
 0001:000184b0       ?OnDestroy@CSDKLoginUIMgr@@QAEJIIJAAH@Z 004194b0 f   LOGIN_sdk_login_UI.obj
 0001:00018500       ?SetCurrentPage@CSDKLoginUIMgr@@QAEXPAVCVerticalLayoutUI@DuiLib@@@Z 00419500 f i LOGIN_sdk_login_UI.obj
 0001:00018520       ?SetEvent@CSDKLoginUIMgr@@QAEXPAVCSDKDemoAppEvent@@@Z 00419520 f   LOGIN_sdk_login_UI.obj
 0001:00018540       ?SetUIEvent@CSDKLoginCBHandler@@QAEXPAVCSDKLoginUIMgr@@@Z 00419540 f   LOGIN_sdk_login_UI.obj
 0001:00018590       ?Show@CSDKLoginWithEmailUIGroup@@QAEXXZ 00419590 f   LOGIN_sdk_login_UI.obj
 0001:00018620       ?Show@CSDKLoginWithSSOUIGroup@@QAEXXZ 00419620 f   LOGIN_sdk_login_UI.obj
 0001:000186b0       ?Show@CSDKRestAPIUserUIGroup@@QAEXXZ 004196b0 f   LOGIN_sdk_login_UI.obj
 0001:00018740       ?Show@CSDKWithoutLoginStartJoinMeetingUIGroup@@QAEXXZ 00419740 f   LOGIN_sdk_login_UI.obj
 0001:000187d0       ?ShowErrorMessage@CSDKLoginUIMgr@@QAEXPB_W@Z 004197d0 f   LOGIN_sdk_login_UI.obj
 0001:00018800       ?SwitchToPage@CSDKLoginUIMgr@@QAEXW4loginTabPage@@@Z 00419800 f   LOGIN_sdk_login_UI.obj
 0001:000188b0       ?SwitchToWaitingPage@CSDKLoginUIMgr@@QAEXPB_W_N@Z 004198b0 f   LOGIN_sdk_login_UI.obj
 0001:000189e0       ?UninitWindow@CSDKLoginWithSSOUIGroup@@QAEXXZ 004199e0 f   LOGIN_sdk_login_UI.obj
 0001:00018a00       ?UninitWindow@CSDKWithoutLoginStartJoinMeetingUIGroup@@QAEXXZ 00419a00 f   LOGIN_sdk_login_UI.obj
 0001:00018a30       ?onLoginRet@CSDKLoginCBHandler@@UAEXW4LOGINSTATUS@ZOOMSDK@@PAVIAccountInfo@3@@Z 00419a30 f   LOGIN_sdk_login_UI.obj
 0001:00018b50       ?onMeetingStatusChanged@CSDKRestAPIUserUIGroup@@UAEXW4MeetingStatus@ZOOMSDK@@H@Z 00419b50 f   LOGIN_sdk_login_UI.obj
 0001:00018c50       ?onMeetingStatusChanged@CSDKWithoutLoginStartJoinMeetingUIGroup@@UAEXW4MeetingStatus@ZOOMSDK@@H@Z 00419c50 f   LOGIN_sdk_login_UI.obj
 0001:00018d60       ??0CSDKMessInfo@@AAE@XZ    00419d60 f   mess_info.obj
 0001:00018de0       ??1CSDKMessInfo@@AAE@XZ    00419de0 f   mess_info.obj
 0001:00018e50       ?Cleanup@CSDKMessInfo@@QAEXXZ 00419e50 f   mess_info.obj
 0001:00018e90       ?GetErrorCode@CSDKMessInfo@@QAEHXZ 00419e90 f   mess_info.obj
 0001:00018ed0       ?GetErrorDescription@CSDKMessInfo@@QAEPB_WXZ 00419ed0 f   mess_info.obj
 0001:00018f20       ?GetErrorMessInfo@CSDKMessInfo@@QAEPA_WXZ 00419f20 f   mess_info.obj
 0001:00018f90       ?GetErrorType@CSDKMessInfo@@QAEPB_WXZ 00419f90 f   mess_info.obj
 0001:00019050       ?GetInst@CSDKMessInfo@@SAAAV1@XZ 0041a050 f   mess_info.obj
 0001:000190f0       ?Init@CSDKMessInfo@@QAE_NXZ 0041a0f0 f   mess_info.obj
 0001:00019160       ??0CMoreFeaturesUIMgr@@QAE@HHPAVCCustomizeInMeetingUIMgr@@@Z 0041a160 f   more_features_ui.obj
 0001:00019270       ??1CMoreFeaturesUIMgr@@QAE@XZ 0041a270 f   more_features_ui.obj
 0001:00019340       ?AddElement@CMoreFeaturesUIMgr@@QAE_NPB_W@Z 0041a340 f   more_features_ui.obj
 0001:00019490       ?DestroyUtilWindow@CMoreFeaturesUIMgr@@AAEXXZ 0041a490 f   more_features_ui.obj
 0001:000194f0       ?DoClickLowerAllHandsBtn@CMoreFeaturesUIMgr@@AAEXXZ 0041a4f0 f   more_features_ui.obj
 0001:00019530       ?DoClickMuteAllBtn@CMoreFeaturesUIMgr@@AAEXXZ 0041a530 f   more_features_ui.obj
 0001:00019590       ?DoClickMuteOnEntry@CMoreFeaturesUIMgr@@AAEX_N@Z 0041a590 f   more_features_ui.obj
 0001:000195d0       ?DoClickRaiseHandBtn@CMoreFeaturesUIMgr@@AAEXXZ 0041a5d0 f   more_features_ui.obj
 0001:00019610       ?DoClickUnmuteAllBtn@CMoreFeaturesUIMgr@@AAEXXZ 0041a610 f   more_features_ui.obj
 0001:00019670       ?DoUtilWindowShow@CMoreFeaturesUIMgr@@AAEXPB_WW4FEATURE_TYPE@@@Z 0041a670 f   more_features_ui.obj
 0001:000197b0       ?GetSkinRes@CMoreMenuUIMgr@@UAEIXZ 0041a7b0 f i more_menu_ui.obj
 0001:000197b0       ?GetSkinRes@CMoreFeaturesUIMgr@@UAEIXZ 0041a7b0 f i more_features_ui.obj
 0001:000197c0       ?HandleMessage@CMoreFeaturesUIMgr@@UAEJIIJ@Z 0041a7c0 f   more_features_ui.obj
 0001:000199b0       ?InitWindow@CMoreFeaturesUIMgr@@UAEXXZ 0041a9b0 f   more_features_ui.obj
 0001:00019a00       ?Notify@CMoreFeaturesUIMgr@@UAEXAAUtagTNotifyUI@DuiLib@@@Z 0041aa00 f   more_features_ui.obj
 0001:00019d20       ?RepaintClient@CMoreFeaturesUIMgr@@QAE_NHH@Z 0041ad20 f   more_features_ui.obj
 0001:00019e00       ?ShowErrorMsg@CMoreFeaturesUIMgr@@AAEXPB_W@Z 0041ae00 f   more_features_ui.obj
 0001:00019e20       ?UpdateUI@CMoreFeaturesUIMgr@@AAEXXZ 0041ae20 f   more_features_ui.obj
 0001:00019f60       ?onCoHostChangeNotification@CMoreFeaturesUIMgr@@UAEXI_N@Z 0041af60 f   more_features_ui.obj
 0001:0001a040       ?onHostChangeNotification@CMoreFeaturesUIMgr@@UAEXI@Z 0041b040 f   more_features_ui.obj
 0001:0001a120       ?onUserNameChanged@CMoreFeaturesUIMgr@@UAEXIPB_W@Z 0041b120 f   more_features_ui.obj
 0001:0001a120       ?onLowOrRaiseHandStatusChanged@CMoreFeaturesUIMgr@@UAEX_NI@Z 0041b120 f   more_features_ui.obj
 0001:0001a150       ?AssignCoHost@CMoreFeaturesWorkflow@@QAE?AW4SDKError@ZOOMSDK@@I@Z 0041b150 f   more_features_workflow.obj
 0001:0001a1b0       ?ChangeUserName@CMoreFeaturesWorkflow@@QAE?AW4SDKError@ZOOMSDK@@IPB_W_N@Z 0041b1b0 f   more_features_workflow.obj
 0001:0001a1f0       ?EnableMuteOnEntry@CMoreFeaturesWorkflow@@QAE?AW4SDKError@ZOOMSDK@@_N@Z 0041b1f0 f   more_features_workflow.obj
 0001:0001a230       ?ExpelUser@CMoreFeaturesWorkflow@@QAE?AW4SDKError@ZOOMSDK@@I@Z 0041b230 f   more_features_workflow.obj
 0001:0001a260       ?LowerAllHands@CMoreFeaturesWorkflow@@QAE?AW4SDKError@ZOOMSDK@@XZ 0041b260 f   more_features_workflow.obj
 0001:0001a290       ?LowerHand@CMoreFeaturesWorkflow@@QAE?AW4SDKError@ZOOMSDK@@I@Z 0041b290 f   more_features_workflow.obj
 0001:0001a2c0       ?MakeHost@CMoreFeaturesWorkflow@@QAE?AW4SDKError@ZOOMSDK@@I@Z 0041b2c0 f   more_features_workflow.obj
 0001:0001a2f0       ?MuteAll@CMoreFeaturesWorkflow@@QAE_NPAVCSDKUserList@@@Z 0041b2f0 f   more_features_workflow.obj
 0001:0001a340       ?MuteAudio@CMoreFeaturesWorkflow@@QAE?AW4SDKError@ZOOMSDK@@I_N@Z 0041b340 f   more_features_workflow.obj
 0001:0001a390       ?RaiseHand@CMoreFeaturesWorkflow@@QAE?AW4SDKError@ZOOMSDK@@XZ 0041b390 f   more_features_workflow.obj
 0001:0001a3c0       ?ReclaimHost@CMoreFeaturesWorkflow@@QAE?AW4SDKError@ZOOMSDK@@XZ 0041b3c0 f   more_features_workflow.obj
 0001:0001a430       ?RevokeCoHost@CMoreFeaturesWorkflow@@QAE?AW4SDKError@ZOOMSDK@@I@Z 0041b430 f   more_features_workflow.obj
 0001:0001a460       ?StartAttendeeVideo@CMoreFeaturesWorkflow@@QAE?AW4SDKError@ZOOMSDK@@I@Z 0041b460 f   more_features_workflow.obj
 0001:0001a4c0       ?StopAttendeeVideo@CMoreFeaturesWorkflow@@QAE?AW4SDKError@ZOOMSDK@@I@Z 0041b4c0 f   more_features_workflow.obj
 0001:0001a520       ?UnMuteAll@CMoreFeaturesWorkflow@@QAE_NPAVCSDKUserList@@@Z 0041b520 f   more_features_workflow.obj
 0001:0001a570       ?UnMuteAudio@CMoreFeaturesWorkflow@@QAE?AW4SDKError@ZOOMSDK@@I@Z 0041b570 f   more_features_workflow.obj
 0001:0001a5b0       ??0CMoreMenuUIMgr@@QAE@HHPAVCCustomizeInMeetingUIMgr@@@Z 0041b5b0 f   more_menu_ui.obj
 0001:0001a680       ??1CMoreMenuUIMgr@@QAE@XZ  0041b680 f   more_menu_ui.obj
 0001:0001a730       ??_GCInvitationUIMgr@@QAEPAXI@Z 0041b730 f i more_menu_ui.obj
 0001:0001a770       ??_GCMoreFeaturesUIMgr@@QAEPAXI@Z 0041b770 f i more_menu_ui.obj
 0001:0001a7b0       ?AddElement@CMoreMenuUIMgr@@QAE_NPB_W@Z 0041b7b0 f   more_menu_ui.obj
 0001:0001a900       ?DestroyClosedCaptionWnd@CMoreMenuUIMgr@@AAEXXZ 0041b900 f   more_menu_ui.obj
 0001:0001a990       ?DestroyInvitationWnd@CMoreMenuUIMgr@@AAEXXZ 0041b990 f   more_menu_ui.obj
 0001:0001aa10       ?DestroyMoreFeaturesWnd@CMoreMenuUIMgr@@AAEXXZ 0041ba10 f   more_menu_ui.obj
 0001:0001aa90       ?DoClickClosedCaptionBtn@CMoreMenuUIMgr@@AAEXXZ 0041ba90 f   more_menu_ui.obj
 0001:0001ac70       ?DoClickInviteBtn@CMoreMenuUIMgr@@AAEXXZ 0041bc70 f   more_menu_ui.obj
 0001:0001ad70       ?DoClickMoreFeaturesBtn@CMoreMenuUIMgr@@AAEXXZ 0041bd70 f   more_menu_ui.obj
 0001:0001af30       ?HandleMessage@CMoreMenuUIMgr@@UAEJIIJ@Z 0041bf30 f   more_menu_ui.obj
 0001:0001b150       ?HandleMoveAndResize@CMoreMenuUIMgr@@QAEXXZ 0041c150 f   more_menu_ui.obj
 0001:0001b180       ?HandleUserChange@CMoreMenuUIMgr@@QAEXXZ 0041c180 f   more_menu_ui.obj
 0001:0001b1b0       ?InitWindow@CMoreMenuUIMgr@@UAEXXZ 0041c1b0 f   more_menu_ui.obj
 0001:0001b370       ?Notify@CMoreMenuUIMgr@@UAEXAAUtagTNotifyUI@DuiLib@@@Z 0041c370 f   more_menu_ui.obj
 0001:0001b710       ?RepaintClient@CMoreMenuUIMgr@@QAE_NHH@Z 0041c710 f   more_menu_ui.obj
 0001:0001b830       ??0ParticipantPopMenu@@QAE@XZ 0041c830 f   ParticipantPopMenu.obj
 0001:0001b870       ??1ParticipantPopMenu@@QAE@XZ 0041c870 f   ParticipantPopMenu.obj
 0001:0001b8a0       ?OnClickMenuItem@ParticipantPopMenu@@QAEXH@Z 0041c8a0 f   ParticipantPopMenu.obj
 0001:0001b930       ?PopMenu@ParticipantPopMenu@@QAEXPAUHWND__@@ABUtagPOINT@@@Z 0041c930 f   ParticipantPopMenu.obj
 0001:0001b960       ?PopMenu@ParticipantPopMenu@@QAEXPAUHWND__@@HH@Z 0041c960 f   ParticipantPopMenu.obj
 0001:0001b9a0       ?SetUserID@ParticipantPopMenu@@QAEXI@Z 0041c9a0 f   ParticipantPopMenu.obj
 0001:0001ba10       ??$?0$$V@?$_Compressed_pair@V?$allocator@U?$_List_node@HPAX@std@@@std@@V?$_List_val@U?$_List_simple_types@H@std@@@2@$00@std@@QAE@U_Zero_then_variadic_args_t@1@@Z 0041ca10 f i participant_ui.obj
 0001:0001ba10       ??$?0$$V@?$_Compressed_pair@V?$allocator@U?$_Tree_node@U?$pair@$$CBIPAVIUserInfo@ZOOMSDK@@@std@@PAX@std@@@std@@V?$_Tree_val@U?$_Tree_simple_types@U?$pair@$$CBIPAVIUserInfo@ZOOMSDK@@@std@@@std@@@2@$00@std@@QAE@U_Zero_then_variadic_args_t@1@@Z 0041ca10 f i user_manager.obj
 0001:0001ba10       ??$?0$$V@?$_Compressed_pair@V?$allocator@U?$_Tree_node@PAVIMeetingVideoCtrlEvent@ZOOMSDK@@PAX@std@@@std@@V?$_Tree_val@U?$_Tree_simple_types@PAVIMeetingVideoCtrlEvent@ZOOMSDK@@@std@@@2@$00@std@@QAE@U_Zero_then_variadic_args_t@1@@Z 0041ca10 f i sdk_util.obj
 0001:0001ba10       ??$?0$$V@?$_Compressed_pair@V?$allocator@U?$_Tree_node@PAVIMeetingParticipantsCtrlEvent@ZOOMSDK@@PAX@std@@@std@@V?$_Tree_val@U?$_Tree_simple_types@PAVIMeetingParticipantsCtrlEvent@ZOOMSDK@@@std@@@2@$00@std@@QAE@U_Zero_then_variadic_args_t@1@@Z 0041ca10 f i sdk_util.obj
 0001:0001ba10       ??$?0$$V@?$_Compressed_pair@V?$allocator@U?$_Tree_node@PAVIMeetingChatCtrlEvent@ZOOMSDK@@PAX@std@@@std@@V?$_Tree_val@U?$_Tree_simple_types@PAVIMeetingChatCtrlEvent@ZOOMSDK@@@std@@@2@$00@std@@QAE@U_Zero_then_variadic_args_t@1@@Z 0041ca10 f i sdk_util.obj
 0001:0001ba10       ??$?0$$V@?$_Compressed_pair@V?$allocator@U?$_Tree_node@PAVIAuthServiceEvent@ZOOMSDK@@PAX@std@@@std@@V?$_Tree_val@U?$_Tree_simple_types@PAVIAuthServiceEvent@ZOOMSDK@@@std@@@2@$00@std@@QAE@U_Zero_then_variadic_args_t@1@@Z 0041ca10 f i sdk_util.obj
 0001:0001ba10       ??$?0$$V@?$_Compressed_pair@V?$allocator@U?$_Tree_node@PAVIPreMeetingServiceEvent@ZOOMSDK@@PAX@std@@@std@@V?$_Tree_val@U?$_Tree_simple_types@PAVIPreMeetingServiceEvent@ZOOMSDK@@@std@@@2@$00@std@@QAE@U_Zero_then_variadic_args_t@1@@Z 0041ca10 f i sdk_util.obj
 0001:0001ba10       ??$?0$$V@?$_Compressed_pair@V?$allocator@U?$_Tree_node@PAVIClosedCaptionControllerEvent@ZOOMSDK@@PAX@std@@@std@@V?$_Tree_val@U?$_Tree_simple_types@PAVIClosedCaptionControllerEvent@ZOOMSDK@@@std@@@2@$00@std@@QAE@U_Zero_then_variadic_args_t@1@@Z 0041ca10 f i sdk_util.obj
 0001:0001ba10       ??$?0$$V@?$_Compressed_pair@V?$allocator@U?$_Tree_node@U?$pair@$$CBHW4bkItemType@@@std@@PAX@std@@@std@@V?$_Tree_val@U?$_Tree_simple_types@U?$pair@$$CBHW4bkItemType@@@std@@@std@@@2@$00@std@@QAE@U_Zero_then_variadic_args_t@1@@Z 0041ca10 f i settings_ui.obj
 0001:0001ba10       ??$?0$$V@?$_Compressed_pair@V?$allocator@U?$_Tree_node@PAVIMeetingServiceEvent@ZOOMSDK@@PAX@std@@@std@@V?$_Tree_val@U?$_Tree_simple_types@PAVIMeetingServiceEvent@ZOOMSDK@@@std@@@2@$00@std@@QAE@U_Zero_then_variadic_args_t@1@@Z 0041ca10 f i sdk_util.obj
 0001:0001ba10       ??$?0$$V@?$_Compressed_pair@V?$allocator@U?$_Tree_node@PAVISDKInMeetingServiceMgrEvent@@PAX@std@@@std@@V?$_Tree_val@U?$_Tree_simple_types@PAVISDKInMeetingServiceMgrEvent@@@std@@@2@$00@std@@QAE@U_Zero_then_variadic_args_t@1@@Z 0041ca10 f i sdk_util.obj
 0001:0001ba30       ??$?0ABH@?$_List_node_emplace_op2@V?$allocator@U?$_List_node@HPAX@std@@@std@@@std@@QAE@AAV?$allocator@U?$_List_node@HPAX@std@@@1@ABH@Z 0041ca30 f i participant_ui.obj
 0001:0001bac0       ??$MakeDelegate@VCPUserItemEx@@V1@@DuiLib@@YA?AV?$CDelegate@VCPUserItemEx@@V1@@0@PAVCPUserItemEx@@P82@AE_NPAX@Z@Z 0041cac0 f i participant_ui.obj
 0001:0001baf0       ??$_Emplace@ABH@?$list@HV?$allocator@H@std@@@std@@QAEPAU?$_List_node@HPAX@1@QAU21@ABH@Z 0041caf0 f i participant_ui.obj
 0001:0001bb80       ??$_Free_non_head@V?$allocator@U?$_List_node@HPAX@std@@@std@@@?$_List_node@HPAX@std@@SAXAAV?$allocator@U?$_List_node@HPAX@std@@@1@PAU01@@Z 0041cb80 f i participant_ui.obj
 0001:0001bbd0       ??$_Freenode0@V?$allocator@U?$_List_node@HPAX@std@@@std@@@?$_List_node@HPAX@std@@SAXAAV?$allocator@U?$_List_node@HPAX@std@@@1@PAU01@@Z 0041cbd0 f i participant_ui.obj
 0001:0001bc40       ??$_Freenode@V?$allocator@U?$_List_node@HPAX@std@@@std@@@?$_List_node@HPAX@std@@SAXAAV?$allocator@U?$_List_node@HPAX@std@@@1@PAU01@@Z 0041cc40 f i participant_ui.obj
 0001:0001bcb0       ??$_Get_size_of_n@$0M@@std@@YAII@Z 0041ccb0 f i participant_ui.obj
 0001:0001bce0       ??$construct@PAVIMeetingParticipantsCtrlEvent@ZOOMSDK@@ABQAV12@@?$_Default_allocator_traits@V?$allocator@U?$_Tree_node@PAVIMeetingParticipantsCtrlEvent@ZOOMSDK@@PAX@std@@@std@@@std@@SAXAAV?$allocator@U?$_Tree_node@PAVIMeetingParticipantsCtrlEvent@ZOOMSDK@@PAX@std@@@1@QAPAVIMeetingParticipantsCtrlEvent@ZOOMSDK@@ABQAV34@@Z 0041cce0 f i sdk_util.obj
 0001:0001bce0       ??$construct@PAVIInterpreterInfo@ZOOMSDK@@ABQAV12@@?$_Default_allocator_traits@V?$allocator@PAVIInterpreterInfo@ZOOMSDK@@@std@@@std@@SAXAAV?$allocator@PAVIInterpreterInfo@ZOOMSDK@@@1@QAPAVIInterpreterInfo@ZOOMSDK@@ABQAV34@@Z 0041cce0 f i schedule_meeting_ui.obj
 0001:0001bce0       ??$construct@HABH@?$_Default_allocator_traits@V?$allocator@U?$_List_node@HPAX@std@@@std@@@std@@SAXAAV?$allocator@U?$_List_node@HPAX@std@@@1@QAHABH@Z 0041cce0 f i participant_ui.obj
 0001:0001bce0       ??$construct@PAVISDKInMeetingServiceMgrEvent@@ABQAV1@@?$_Default_allocator_traits@V?$allocator@U?$_Tree_node@PAVISDKInMeetingServiceMgrEvent@@PAX@std@@@std@@@std@@SAXAAV?$allocator@U?$_Tree_node@PAVISDKInMeetingServiceMgrEvent@@PAX@std@@@1@QAPAVISDKInMeetingServiceMgrEvent@@ABQAV3@@Z 0041cce0 f i sdk_util.obj
 0001:0001bce0       ??$construct@PAVIMeetingChatCtrlEvent@ZOOMSDK@@ABQAV12@@?$_Default_allocator_traits@V?$allocator@U?$_Tree_node@PAVIMeetingChatCtrlEvent@ZOOMSDK@@PAX@std@@@std@@@std@@SAXAAV?$allocator@U?$_Tree_node@PAVIMeetingChatCtrlEvent@ZOOMSDK@@PAX@std@@@1@QAPAVIMeetingChatCtrlEvent@ZOOMSDK@@ABQAV34@@Z 0041cce0 f i sdk_util.obj
 0001:0001bce0       ??$construct@PAVIMeetingServiceEvent@ZOOMSDK@@ABQAV12@@?$_Default_allocator_traits@V?$allocator@U?$_Tree_node@PAVIMeetingServiceEvent@ZOOMSDK@@PAX@std@@@std@@@std@@SAXAAV?$allocator@U?$_Tree_node@PAVIMeetingServiceEvent@ZOOMSDK@@PAX@std@@@1@QAPAVIMeetingServiceEvent@ZOOMSDK@@ABQAV34@@Z 0041cce0 f i sdk_util.obj
 0001:0001bce0       ??$construct@PAVIAlternativeHostInfo@ZOOMSDK@@ABQAV12@@?$_Default_allocator_traits@V?$allocator@PAVIAlternativeHostInfo@ZOOMSDK@@@std@@@std@@SAXAAV?$allocator@PAVIAlternativeHostInfo@ZOOMSDK@@@1@QAPAVIAlternativeHostInfo@ZOOMSDK@@ABQAV34@@Z 0041cce0 f i schedule_meeting_ui.obj
 0001:0001bce0       ??$construct@PAVIPreMeetingServiceEvent@ZOOMSDK@@ABQAV12@@?$_Default_allocator_traits@V?$allocator@U?$_Tree_node@PAVIPreMeetingServiceEvent@ZOOMSDK@@PAX@std@@@std@@@std@@SAXAAV?$allocator@U?$_Tree_node@PAVIPreMeetingServiceEvent@ZOOMSDK@@PAX@std@@@1@QAPAVIPreMeetingServiceEvent@ZOOMSDK@@ABQAV34@@Z 0041cce0 f i sdk_util.obj
 0001:0001bce0       ??$construct@PAVIClosedCaptionControllerEvent@ZOOMSDK@@ABQAV12@@?$_Default_allocator_traits@V?$allocator@U?$_Tree_node@PAVIClosedCaptionControllerEvent@ZOOMSDK@@PAX@std@@@std@@@std@@SAXAAV?$allocator@U?$_Tree_node@PAVIClosedCaptionControllerEvent@ZOOMSDK@@PAX@std@@@1@QAPAVIClosedCaptionControllerEvent@ZOOMSDK@@ABQAV34@@Z 0041cce0 f i sdk_util.obj
 0001:0001bce0       ??$construct@PAVIVirtualBGImageInfo@ZOOMSDK@@ABQAV12@@?$_Default_allocator_traits@V?$allocator@PAVIVirtualBGImageInfo@ZOOMSDK@@@std@@@std@@SAXAAV?$allocator@PAVIVirtualBGImageInfo@ZOOMSDK@@@1@QAPAVIVirtualBGImageInfo@ZOOMSDK@@ABQAV34@@Z 0041cce0 f i settings_ui.obj
 0001:0001bce0       ??$construct@PAVIMeetingVideoCtrlEvent@ZOOMSDK@@ABQAV12@@?$_Default_allocator_traits@V?$allocator@U?$_Tree_node@PAVIMeetingVideoCtrlEvent@ZOOMSDK@@PAX@std@@@std@@@std@@SAXAAV?$allocator@U?$_Tree_node@PAVIMeetingVideoCtrlEvent@ZOOMSDK@@PAX@std@@@1@QAPAVIMeetingVideoCtrlEvent@ZOOMSDK@@ABQAV34@@Z 0041cce0 f i sdk_util.obj
 0001:0001bce0       ??$construct@PAVIUserInfo@ZOOMSDK@@ABQAV12@@?$_Default_allocator_traits@V?$allocator@PAVIUserInfo@ZOOMSDK@@@std@@@std@@SAXAAV?$allocator@PAVIUserInfo@ZOOMSDK@@@1@QAPAVIUserInfo@ZOOMSDK@@ABQAV34@@Z 0041cce0 f i user_manager.obj
 0001:0001bce0       ??$construct@PAVIAuthServiceEvent@ZOOMSDK@@ABQAV12@@?$_Default_allocator_traits@V?$allocator@U?$_Tree_node@PAVIAuthServiceEvent@ZOOMSDK@@PAX@std@@@std@@@std@@SAXAAV?$allocator@U?$_Tree_node@PAVIAuthServiceEvent@ZOOMSDK@@PAX@std@@@1@QAPAVIAuthServiceEvent@ZOOMSDK@@ABQAV34@@Z 0041cce0 f i sdk_util.obj
 0001:0001bd10       ??0?$CDelegate@VCPUserItemEx@@V1@@DuiLib@@QAE@ABV01@@Z 0041cd10 f i participant_ui.obj
 0001:0001bd40       ??0?$CDelegate@VCPUserItemEx@@V1@@DuiLib@@QAE@PAVCPUserItemEx@@P82@AE_NPAX@Z@Z 0041cd40 f i participant_ui.obj
 0001:0001bd70       ??0?$_Alloc_construct_ptr@V?$allocator@U?$_Tree_node@U?$pair@$$CBHW4bkItemType@@@std@@PAX@std@@@std@@@std@@QAE@AAV?$allocator@U?$_Tree_node@U?$pair@$$CBHW4bkItemType@@@std@@PAX@std@@@1@@Z 0041cd70 f i settings_ui.obj
 0001:0001bd70       ??0?$_Alloc_construct_ptr@V?$allocator@U?$_Tree_node@U?$pair@$$CBIPAVIUserInfo@ZOOMSDK@@@std@@PAX@std@@@std@@@std@@QAE@AAV?$allocator@U?$_Tree_node@U?$pair@$$CBIPAVIUserInfo@ZOOMSDK@@@std@@PAX@std@@@1@@Z 0041cd70 f i user_manager.obj
 0001:0001bd70       ??0?$_Alloc_construct_ptr@V?$allocator@U?$_Tree_node@PAVIClosedCaptionControllerEvent@ZOOMSDK@@PAX@std@@@std@@@std@@QAE@AAV?$allocator@U?$_Tree_node@PAVIClosedCaptionControllerEvent@ZOOMSDK@@PAX@std@@@1@@Z 0041cd70 f i sdk_util.obj
 0001:0001bd70       ??0?$_Alloc_construct_ptr@V?$allocator@U?$_Tree_node@PAVIAuthServiceEvent@ZOOMSDK@@PAX@std@@@std@@@std@@QAE@AAV?$allocator@U?$_Tree_node@PAVIAuthServiceEvent@ZOOMSDK@@PAX@std@@@1@@Z 0041cd70 f i sdk_util.obj
 0001:0001bd70       ??0?$_Alloc_construct_ptr@V?$allocator@U?$_List_node@HPAX@std@@@std@@@std@@QAE@AAV?$allocator@U?$_List_node@HPAX@std@@@1@@Z 0041cd70 f i participant_ui.obj
 0001:0001bd70       ??0?$_Alloc_construct_ptr@V?$allocator@U?$_Tree_node@PAVISDKInMeetingServiceMgrEvent@@PAX@std@@@std@@@std@@QAE@AAV?$allocator@U?$_Tree_node@PAVISDKInMeetingServiceMgrEvent@@PAX@std@@@1@@Z 0041cd70 f i sdk_util.obj
 0001:0001bd70       ??0?$_Alloc_construct_ptr@V?$allocator@U?$_Tree_node@PAVIMeetingParticipantsCtrlEvent@ZOOMSDK@@PAX@std@@@std@@@std@@QAE@AAV?$allocator@U?$_Tree_node@PAVIMeetingParticipantsCtrlEvent@ZOOMSDK@@PAX@std@@@1@@Z 0041cd70 f i sdk_util.obj
 0001:0001bd70       ??0?$_Alloc_construct_ptr@V?$allocator@U?$_Tree_node@PAVIPreMeetingServiceEvent@ZOOMSDK@@PAX@std@@@std@@@std@@QAE@AAV?$allocator@U?$_Tree_node@PAVIPreMeetingServiceEvent@ZOOMSDK@@PAX@std@@@1@@Z 0041cd70 f i sdk_util.obj
 0001:0001bd70       ??0?$_Alloc_construct_ptr@V?$allocator@U?$_Tree_node@PAVIMeetingChatCtrlEvent@ZOOMSDK@@PAX@std@@@std@@@std@@QAE@AAV?$allocator@U?$_Tree_node@PAVIMeetingChatCtrlEvent@ZOOMSDK@@PAX@std@@@1@@Z 0041cd70 f i sdk_util.obj
 0001:0001bd70       ??0?$_Alloc_construct_ptr@V?$allocator@U?$_Tree_node@PAVIMeetingServiceEvent@ZOOMSDK@@PAX@std@@@std@@@std@@QAE@AAV?$allocator@U?$_Tree_node@PAVIMeetingServiceEvent@ZOOMSDK@@PAX@std@@@1@@Z 0041cd70 f i sdk_util.obj
 0001:0001bd70       ??0?$_Alloc_construct_ptr@V?$allocator@U?$_Tree_node@PAVIMeetingVideoCtrlEvent@ZOOMSDK@@PAX@std@@@std@@@std@@QAE@AAV?$allocator@U?$_Tree_node@PAVIMeetingVideoCtrlEvent@ZOOMSDK@@PAX@std@@@1@@Z 0041cd70 f i sdk_util.obj
 0001:0001bda0       ??0?$_Tree_const_iterator@V?$_Tree_val@U?$_Tree_simple_types@PAVIMeetingParticipantsCtrlEvent@ZOOMSDK@@@std@@@std@@@std@@QAE@PAU?$_Tree_node@PAVIMeetingParticipantsCtrlEvent@ZOOMSDK@@PAX@1@PBV?$_Tree_val@U?$_Tree_simple_types@PAVIMeetingParticipantsCtrlEvent@ZOOMSDK@@@std@@@1@@Z 0041cda0 f i sdk_util.obj
 0001:0001bda0       ??0?$_Tree_const_iterator@V?$_Tree_val@U?$_Tree_simple_types@PAVIPreMeetingServiceEvent@ZOOMSDK@@@std@@@std@@@std@@QAE@PAU?$_Tree_node@PAVIPreMeetingServiceEvent@ZOOMSDK@@PAX@1@PBV?$_Tree_val@U?$_Tree_simple_types@PAVIPreMeetingServiceEvent@ZOOMSDK@@@std@@@1@@Z 0041cda0 f i sdk_util.obj
 0001:0001bda0       ??0?$_Tree_unchecked_iterator@V?$_Tree_val@U?$_Tree_simple_types@U?$pair@$$CBIPAVIUserInfo@ZOOMSDK@@@std@@@std@@@std@@@std@@QAE@PAU?$_Tree_node@U?$pair@$$CBIPAVIUserInfo@ZOOMSDK@@@std@@PAX@1@PBV?$_Tree_val@U?$_Tree_simple_types@U?$pair@$$CBIPAVIUserInfo@ZOOMSDK@@@std@@@std@@@1@@Z 0041cda0 f i user_manager.obj
 0001:0001bda0       ??0?$_List_const_iterator@V?$_List_val@U?$_List_simple_types@H@std@@@std@@@std@@QAE@PAU?$_List_node@HPAX@1@PBV?$_List_val@U?$_List_simple_types@H@std@@@1@@Z 0041cda0 f i participant_ui.obj
 0001:0001bda0       ??0?$_Tree_const_iterator@V?$_Tree_val@U?$_Tree_simple_types@PAVIMeetingServiceEvent@ZOOMSDK@@@std@@@std@@@std@@QAE@PAU?$_Tree_node@PAVIMeetingServiceEvent@ZOOMSDK@@PAX@1@PBV?$_Tree_val@U?$_Tree_simple_types@PAVIMeetingServiceEvent@ZOOMSDK@@@std@@@1@@Z 0041cda0 f i sdk_util.obj
 0001:0001bda0       ??0?$_Tree_const_iterator@V?$_Tree_val@U?$_Tree_simple_types@U?$pair@$$CBHW4bkItemType@@@std@@@std@@@std@@@std@@QAE@PAU?$_Tree_node@U?$pair@$$CBHW4bkItemType@@@std@@PAX@1@PBV?$_Tree_val@U?$_Tree_simple_types@U?$pair@$$CBHW4bkItemType@@@std@@@std@@@1@@Z 0041cda0 f i settings_ui.obj
 0001:0001bda0       ??0?$_Tree_const_iterator@V?$_Tree_val@U?$_Tree_simple_types@PAVIMeetingChatCtrlEvent@ZOOMSDK@@@std@@@std@@@std@@QAE@PAU?$_Tree_node@PAVIMeetingChatCtrlEvent@ZOOMSDK@@PAX@1@PBV?$_Tree_val@U?$_Tree_simple_types@PAVIMeetingChatCtrlEvent@ZOOMSDK@@@std@@@1@@Z 0041cda0 f i sdk_util.obj
 0001:0001bda0       ??0?$_Tree_const_iterator@V?$_Tree_val@U?$_Tree_simple_types@PAVIMeetingVideoCtrlEvent@ZOOMSDK@@@std@@@std@@@std@@QAE@PAU?$_Tree_node@PAVIMeetingVideoCtrlEvent@ZOOMSDK@@PAX@1@PBV?$_Tree_val@U?$_Tree_simple_types@PAVIMeetingVideoCtrlEvent@ZOOMSDK@@@std@@@1@@Z 0041cda0 f i sdk_util.obj
 0001:0001bda0       ??0?$_Vector_iterator@V?$_Vector_val@U?$_Simple_types@PAVIUserInfo@ZOOMSDK@@@std@@@std@@@std@@QAE@PAPAVIUserInfo@ZOOMSDK@@PBU_Container_base0@1@@Z 0041cda0 f i user_manager.obj
 0001:0001bda0       ??0?$_Tree_unchecked_iterator@V?$_Tree_val@U?$_Tree_simple_types@U?$pair@$$CBHW4bkItemType@@@std@@@std@@@std@@@std@@QAE@PAU?$_Tree_node@U?$pair@$$CBHW4bkItemType@@@std@@PAX@1@PBV?$_Tree_val@U?$_Tree_simple_types@U?$pair@$$CBHW4bkItemType@@@std@@@std@@@1@@Z 0041cda0 f i settings_ui.obj
 0001:0001bda0       ??0?$_Tree_const_iterator@V?$_Tree_val@U?$_Tree_simple_types@U?$pair@$$CBIPAVIUserInfo@ZOOMSDK@@@std@@@std@@@std@@@std@@QAE@PAU?$_Tree_node@U?$pair@$$CBIPAVIUserInfo@ZOOMSDK@@@std@@PAX@1@PBV?$_Tree_val@U?$_Tree_simple_types@U?$pair@$$CBIPAVIUserInfo@ZOOMSDK@@@std@@@std@@@1@@Z 0041cda0 f i user_manager.obj
 0001:0001bda0       ??0?$_Tree_const_iterator@V?$_Tree_val@U?$_Tree_simple_types@PAVIClosedCaptionControllerEvent@ZOOMSDK@@@std@@@std@@@std@@QAE@PAU?$_Tree_node@PAVIClosedCaptionControllerEvent@ZOOMSDK@@PAX@1@PBV?$_Tree_val@U?$_Tree_simple_types@PAVIClosedCaptionControllerEvent@ZOOMSDK@@@std@@@1@@Z 0041cda0 f i sdk_util.obj
 0001:0001bda0       ??0?$_Tree_const_iterator@V?$_Tree_val@U?$_Tree_simple_types@PAVISDKInMeetingServiceMgrEvent@@@std@@@std@@@std@@QAE@PAU?$_Tree_node@PAVISDKInMeetingServiceMgrEvent@@PAX@1@PBV?$_Tree_val@U?$_Tree_simple_types@PAVISDKInMeetingServiceMgrEvent@@@std@@@1@@Z 0041cda0 f i sdk_util.obj
 0001:0001bda0       ??0?$_Tree_const_iterator@V?$_Tree_val@U?$_Tree_simple_types@PAVIAuthServiceEvent@ZOOMSDK@@@std@@@std@@@std@@QAE@PAU?$_Tree_node@PAVIAuthServiceEvent@ZOOMSDK@@PAX@1@PBV?$_Tree_val@U?$_Tree_simple_types@PAVIAuthServiceEvent@ZOOMSDK@@@std@@@1@@Z 0041cda0 f i sdk_util.obj
 0001:0001bdc0       ??0?$_Tree_iterator@V?$_Tree_val@U?$_Tree_simple_types@U?$pair@$$CBHW4bkItemType@@@std@@@std@@@std@@@std@@QAE@PAU?$_Tree_node@U?$pair@$$CBHW4bkItemType@@@std@@PAX@1@PBV?$_Tree_val@U?$_Tree_simple_types@U?$pair@$$CBHW4bkItemType@@@std@@@std@@@1@@Z 0041cdc0 f i settings_ui.obj
 0001:0001bdc0       ??0?$_List_iterator@V?$_List_val@U?$_List_simple_types@H@std@@@std@@@std@@QAE@PAU?$_List_node@HPAX@1@PBV?$_List_val@U?$_List_simple_types@H@std@@@1@@Z 0041cdc0 f i participant_ui.obj
 0001:0001bdc0       ??0?$_Tree_iterator@V?$_Tree_val@U?$_Tree_simple_types@U?$pair@$$CBIPAVIUserInfo@ZOOMSDK@@@std@@@std@@@std@@@std@@QAE@PAU?$_Tree_node@U?$pair@$$CBIPAVIUserInfo@ZOOMSDK@@@std@@PAX@1@PBV?$_Tree_val@U?$_Tree_simple_types@U?$pair@$$CBIPAVIUserInfo@ZOOMSDK@@@std@@@std@@@1@@Z 0041cdc0 f i user_manager.obj
 0001:0001bde0       ??0?$_Tree_unchecked_const_iterator@V?$_Tree_val@U?$_Tree_simple_types@PAVIMeetingServiceEvent@ZOOMSDK@@@std@@@std@@U_Iterator_base0@2@@std@@QAE@PAU?$_Tree_node@PAVIMeetingServiceEvent@ZOOMSDK@@PAX@1@PBV?$_Tree_val@U?$_Tree_simple_types@PAVIMeetingServiceEvent@ZOOMSDK@@@std@@@1@@Z 0041cde0 f i sdk_util.obj
 0001:0001bde0       ??0?$_Vector_const_iterator@V?$_Vector_val@U?$_Simple_types@PAVIUserInfo@ZOOMSDK@@@std@@@std@@@std@@QAE@PAPAVIUserInfo@ZOOMSDK@@PBU_Container_base0@1@@Z 0041cde0 f i user_manager.obj
 0001:0001bde0       ??0?$_Tree_unchecked_const_iterator@V?$_Tree_val@U?$_Tree_simple_types@PAVISDKInMeetingServiceMgrEvent@@@std@@@std@@U_Iterator_base0@2@@std@@QAE@PAU?$_Tree_node@PAVISDKInMeetingServiceMgrEvent@@PAX@1@PBV?$_Tree_val@U?$_Tree_simple_types@PAVISDKInMeetingServiceMgrEvent@@@std@@@1@@Z 0041cde0 f i sdk_util.obj
 0001:0001bde0       ??0?$_Tree_unchecked_const_iterator@V?$_Tree_val@U?$_Tree_simple_types@PAVIClosedCaptionControllerEvent@ZOOMSDK@@@std@@@std@@U_Iterator_base0@2@@std@@QAE@PAU?$_Tree_node@PAVIClosedCaptionControllerEvent@ZOOMSDK@@PAX@1@PBV?$_Tree_val@U?$_Tree_simple_types@PAVIClosedCaptionControllerEvent@ZOOMSDK@@@std@@@1@@Z 0041cde0 f i sdk_util.obj
 0001:0001bde0       ??0?$_Tree_unchecked_const_iterator@V?$_Tree_val@U?$_Tree_simple_types@PAVIMeetingVideoCtrlEvent@ZOOMSDK@@@std@@@std@@U_Iterator_base0@2@@std@@QAE@PAU?$_Tree_node@PAVIMeetingVideoCtrlEvent@ZOOMSDK@@PAX@1@PBV?$_Tree_val@U?$_Tree_simple_types@PAVIMeetingVideoCtrlEvent@ZOOMSDK@@@std@@@1@@Z 0041cde0 f i sdk_util.obj
 0001:0001bde0       ??0?$_Tree_unchecked_const_iterator@V?$_Tree_val@U?$_Tree_simple_types@U?$pair@$$CBHW4bkItemType@@@std@@@std@@@std@@U_Iterator_base0@2@@std@@QAE@PAU?$_Tree_node@U?$pair@$$CBHW4bkItemType@@@std@@PAX@1@PBV?$_Tree_val@U?$_Tree_simple_types@U?$pair@$$CBHW4bkItemType@@@std@@@std@@@1@@Z 0041cde0 f i settings_ui.obj
 0001:0001bde0       ??0?$_List_unchecked_const_iterator@V?$_List_val@U?$_List_simple_types@H@std@@@std@@U_Iterator_base0@2@@std@@QAE@PAU?$_List_node@HPAX@1@PBV?$_List_val@U?$_List_simple_types@H@std@@@1@@Z 0041cde0 f i participant_ui.obj
 0001:0001bde0       ??0?$_Tree_unchecked_const_iterator@V?$_Tree_val@U?$_Tree_simple_types@PAVIMeetingParticipantsCtrlEvent@ZOOMSDK@@@std@@@std@@U_Iterator_base0@2@@std@@QAE@PAU?$_Tree_node@PAVIMeetingParticipantsCtrlEvent@ZOOMSDK@@PAX@1@PBV?$_Tree_val@U?$_Tree_simple_types@PAVIMeetingParticipantsCtrlEvent@ZOOMSDK@@@std@@@1@@Z 0041cde0 f i sdk_util.obj
 0001:0001bde0       ??0?$_Tree_unchecked_const_iterator@V?$_Tree_val@U?$_Tree_simple_types@PAVIMeetingChatCtrlEvent@ZOOMSDK@@@std@@@std@@U_Iterator_base0@2@@std@@QAE@PAU?$_Tree_node@PAVIMeetingChatCtrlEvent@ZOOMSDK@@PAX@1@PBV?$_Tree_val@U?$_Tree_simple_types@PAVIMeetingChatCtrlEvent@ZOOMSDK@@@std@@@1@@Z 0041cde0 f i sdk_util.obj
 0001:0001bde0       ??0?$_Tree_unchecked_const_iterator@V?$_Tree_val@U?$_Tree_simple_types@PAVIPreMeetingServiceEvent@ZOOMSDK@@@std@@@std@@U_Iterator_base0@2@@std@@QAE@PAU?$_Tree_node@PAVIPreMeetingServiceEvent@ZOOMSDK@@PAX@1@PBV?$_Tree_val@U?$_Tree_simple_types@PAVIPreMeetingServiceEvent@ZOOMSDK@@@std@@@1@@Z 0041cde0 f i sdk_util.obj
 0001:0001bde0       ??0?$_Tree_unchecked_const_iterator@V?$_Tree_val@U?$_Tree_simple_types@U?$pair@$$CBIPAVIUserInfo@ZOOMSDK@@@std@@@std@@@std@@U_Iterator_base0@2@@std@@QAE@PAU?$_Tree_node@U?$pair@$$CBIPAVIUserInfo@ZOOMSDK@@@std@@PAX@1@PBV?$_Tree_val@U?$_Tree_simple_types@U?$pair@$$CBIPAVIUserInfo@ZOOMSDK@@@std@@@std@@@1@@Z 0041cde0 f i user_manager.obj
 0001:0001bde0       ??0?$_Tree_unchecked_const_iterator@V?$_Tree_val@U?$_Tree_simple_types@PAVIAuthServiceEvent@ZOOMSDK@@@std@@@std@@U_Iterator_base0@2@@std@@QAE@PAU?$_Tree_node@PAVIAuthServiceEvent@ZOOMSDK@@PAX@1@PBV?$_Tree_val@U?$_Tree_simple_types@PAVIAuthServiceEvent@ZOOMSDK@@@std@@@1@@Z 0041cde0 f i sdk_util.obj
 0001:0001be10       ??0?$list@HV?$allocator@H@std@@@std@@QAE@XZ 0041ce10 f i participant_ui.obj
 0001:0001be40       ??0CPUserItemEx@@QAE@XZ    0041ce40 f   participant_ui.obj
 0001:0001bf30       ??0CParticipantUIMgr@@QAE@PAVCCustomizeInMeetingUIMgr@@@Z 0041cf30 f   participant_ui.obj
 0001:0001bfd0       ??0CRect@@QAE@ABUtagRECT@@@Z 0041cfd0 f i participant_ui.obj
 0001:0001bff0       ??0IDialogBuilderCallback@DuiLib@@QAE@XZ 0041cff0 f i participant_ui.obj
 0001:0001c010       ??1?$CDelegate@VCTreeViewUI@DuiLib@@V12@@DuiLib@@UAE@XZ 0041d010 f i DuiLib:UITreeView.obj
 0001:0001c010       ??1?$CDelegate@VCPUserItemEx@@V1@@DuiLib@@UAE@XZ 0041d010 f i participant_ui.obj
 0001:0001c030       ??1?$_Alloc_construct_ptr@V?$allocator@U?$_List_node@HPAX@std@@@std@@@std@@QAE@XZ 0041d030 f i participant_ui.obj
 0001:0001c090       ??1?$_List_node_emplace_op2@V?$allocator@U?$_List_node@HPAX@std@@@std@@@std@@QAE@XZ 0041d090 f i participant_ui.obj
 0001:0001c100       ??1?$list@HV?$allocator@H@std@@@std@@QAE@XZ 0041d100 f i participant_ui.obj
 0001:0001c120       ??1CVerticalLayoutUI@DuiLib@@UAE@XZ 0041d120 f i DuiLib:UIList.obj
 0001:0001c120       ??1CListContainerElementUI@DuiLib@@UAE@XZ 0041d120 f i participant_ui.obj
 0001:0001c140       ??1CPUserItemEx@@UAE@XZ    0041d140 f   participant_ui.obj
 0001:0001c1f0       ??1CParticipantUIMgr@@QAE@XZ 0041d1f0 f   participant_ui.obj
 0001:0001c280       ??8?$_Tree_unchecked_const_iterator@V?$_Tree_val@U?$_Tree_simple_types@PAVIMeetingChatCtrlEvent@ZOOMSDK@@@std@@@std@@U_Iterator_base0@2@@std@@QBE_NABV01@@Z 0041d280 f i sdk_util.obj
 0001:0001c280       ??8?$_Tree_unchecked_const_iterator@V?$_Tree_val@U?$_Tree_simple_types@U?$pair@$$CBHW4bkItemType@@@std@@@std@@@std@@U_Iterator_base0@2@@std@@QBE_NABV01@@Z 0041d280 f i settings_ui.obj
 0001:0001c280       ??8?$_Tree_unchecked_const_iterator@V?$_Tree_val@U?$_Tree_simple_types@PAVIMeetingServiceEvent@ZOOMSDK@@@std@@@std@@U_Iterator_base0@2@@std@@QBE_NABV01@@Z 0041d280 f i sdk_util.obj
 0001:0001c280       ??8?$_Tree_unchecked_const_iterator@V?$_Tree_val@U?$_Tree_simple_types@PAVIMeetingVideoCtrlEvent@ZOOMSDK@@@std@@@std@@U_Iterator_base0@2@@std@@QBE_NABV01@@Z 0041d280 f i sdk_util.obj
 0001:0001c280       ??8?$_Tree_unchecked_const_iterator@V?$_Tree_val@U?$_Tree_simple_types@PAVIClosedCaptionControllerEvent@ZOOMSDK@@@std@@@std@@U_Iterator_base0@2@@std@@QBE_NABV01@@Z 0041d280 f i sdk_util.obj
 0001:0001c280       ??8?$_Tree_unchecked_const_iterator@V?$_Tree_val@U?$_Tree_simple_types@PAVISDKInMeetingServiceMgrEvent@@@std@@@std@@U_Iterator_base0@2@@std@@QBE_NABV01@@Z 0041d280 f i sdk_util.obj
 0001:0001c280       ??8?$_Tree_const_iterator@V?$_Tree_val@U?$_Tree_simple_types@PAVIAuthServiceEvent@ZOOMSDK@@@std@@@std@@@std@@QBE_NABV01@@Z 0041d280 f i sdk_util.obj
 0001:0001c280       ??8?$_Tree_unchecked_const_iterator@V?$_Tree_val@U?$_Tree_simple_types@PAVIAuthServiceEvent@ZOOMSDK@@@std@@@std@@U_Iterator_base0@2@@std@@QBE_NABV01@@Z 0041d280 f i sdk_util.obj
 0001:0001c280       ??8?$_Tree_const_iterator@V?$_Tree_val@U?$_Tree_simple_types@PAVIMeetingChatCtrlEvent@ZOOMSDK@@@std@@@std@@@std@@QBE_NABV01@@Z 0041d280 f i sdk_util.obj
 0001:0001c280       ??8?$_Tree_unchecked_const_iterator@V?$_Tree_val@U?$_Tree_simple_types@PAVIMeetingParticipantsCtrlEvent@ZOOMSDK@@@std@@@std@@U_Iterator_base0@2@@std@@QBE_NABV01@@Z 0041d280 f i sdk_util.obj
 0001:0001c280       ??8?$_List_const_iterator@V?$_List_val@U?$_List_simple_types@H@std@@@std@@@std@@QBE_NABV01@@Z 0041d280 f i participant_ui.obj
 0001:0001c280       ??8?$_Tree_const_iterator@V?$_Tree_val@U?$_Tree_simple_types@PAVIMeetingVideoCtrlEvent@ZOOMSDK@@@std@@@std@@@std@@QBE_NABV01@@Z 0041d280 f i sdk_util.obj
 0001:0001c280       ??8?$_Tree_const_iterator@V?$_Tree_val@U?$_Tree_simple_types@PAVIMeetingServiceEvent@ZOOMSDK@@@std@@@std@@@std@@QBE_NABV01@@Z 0041d280 f i sdk_util.obj
 0001:0001c280       ??8?$_Tree_unchecked_const_iterator@V?$_Tree_val@U?$_Tree_simple_types@PAVIPreMeetingServiceEvent@ZOOMSDK@@@std@@@std@@U_Iterator_base0@2@@std@@QBE_NABV01@@Z 0041d280 f i sdk_util.obj
 0001:0001c280       ??8?$_Tree_const_iterator@V?$_Tree_val@U?$_Tree_simple_types@PAVIPreMeetingServiceEvent@ZOOMSDK@@@std@@@std@@@std@@QBE_NABV01@@Z 0041d280 f i sdk_util.obj
 0001:0001c280       ??8?$_Tree_const_iterator@V?$_Tree_val@U?$_Tree_simple_types@U?$pair@$$CBIPAVIUserInfo@ZOOMSDK@@@std@@@std@@@std@@@std@@QBE_NABV01@@Z 0041d280 f i user_manager.obj
 0001:0001c280       ??8?$_Tree_const_iterator@V?$_Tree_val@U?$_Tree_simple_types@PAVIClosedCaptionControllerEvent@ZOOMSDK@@@std@@@std@@@std@@QBE_NABV01@@Z 0041d280 f i sdk_util.obj
 0001:0001c280       ??8?$_Tree_const_iterator@V?$_Tree_val@U?$_Tree_simple_types@PAVISDKInMeetingServiceMgrEvent@@@std@@@std@@@std@@QBE_NABV01@@Z 0041d280 f i sdk_util.obj
 0001:0001c280       ??8?$_Tree_const_iterator@V?$_Tree_val@U?$_Tree_simple_types@PAVIMeetingParticipantsCtrlEvent@ZOOMSDK@@@std@@@std@@@std@@QBE_NABV01@@Z 0041d280 f i sdk_util.obj
 0001:0001c280       ??8?$_Tree_const_iterator@V?$_Tree_val@U?$_Tree_simple_types@U?$pair@$$CBHW4bkItemType@@@std@@@std@@@std@@@std@@QBE_NABV01@@Z 0041d280 f i settings_ui.obj
 0001:0001c2b0       ??9?$_Tree_unchecked_const_iterator@V?$_Tree_val@U?$_Tree_simple_types@PAVIMeetingParticipantsCtrlEvent@ZOOMSDK@@@std@@@std@@U_Iterator_base0@2@@std@@QBE_NABV01@@Z 0041d2b0 f i sdk_util.obj
 0001:0001c2b0       ??9?$_Tree_unchecked_const_iterator@V?$_Tree_val@U?$_Tree_simple_types@PAVIPreMeetingServiceEvent@ZOOMSDK@@@std@@@std@@U_Iterator_base0@2@@std@@QBE_NABV01@@Z 0041d2b0 f i sdk_util.obj
 0001:0001c2b0       ??9?$_Tree_const_iterator@V?$_Tree_val@U?$_Tree_simple_types@U?$pair@$$CBIPAVIUserInfo@ZOOMSDK@@@std@@@std@@@std@@@std@@QBE_NABV01@@Z 0041d2b0 f i user_manager.obj
 0001:0001c2b0       ??9?$_Tree_const_iterator@V?$_Tree_val@U?$_Tree_simple_types@PAVIMeetingVideoCtrlEvent@ZOOMSDK@@@std@@@std@@@std@@QBE_NABV01@@Z 0041d2b0 f i sdk_util.obj
 0001:0001c2b0       ??9?$_Tree_const_iterator@V?$_Tree_val@U?$_Tree_simple_types@PAVIMeetingServiceEvent@ZOOMSDK@@@std@@@std@@@std@@QBE_NABV01@@Z 0041d2b0 f i sdk_util.obj
 0001:0001c2b0       ??9?$_Tree_const_iterator@V?$_Tree_val@U?$_Tree_simple_types@PAVIAuthServiceEvent@ZOOMSDK@@@std@@@std@@@std@@QBE_NABV01@@Z 0041d2b0 f i sdk_util.obj
 0001:0001c2b0       ??9?$_Tree_unchecked_const_iterator@V?$_Tree_val@U?$_Tree_simple_types@U?$pair@$$CBHW4bkItemType@@@std@@@std@@@std@@U_Iterator_base0@2@@std@@QBE_NABV01@@Z 0041d2b0 f i settings_ui.obj
 0001:0001c2b0       ??9?$_Tree_const_iterator@V?$_Tree_val@U?$_Tree_simple_types@PAVIMeetingChatCtrlEvent@ZOOMSDK@@@std@@@std@@@std@@QBE_NABV01@@Z 0041d2b0 f i sdk_util.obj
 0001:0001c2b0       ??9?$_Tree_unchecked_const_iterator@V?$_Tree_val@U?$_Tree_simple_types@PAVISDKInMeetingServiceMgrEvent@@@std@@@std@@U_Iterator_base0@2@@std@@QBE_NABV01@@Z 0041d2b0 f i sdk_util.obj
 0001:0001c2b0       ??9?$_Tree_const_iterator@V?$_Tree_val@U?$_Tree_simple_types@PAVIPreMeetingServiceEvent@ZOOMSDK@@@std@@@std@@@std@@QBE_NABV01@@Z 0041d2b0 f i sdk_util.obj
 0001:0001c2b0       ??9?$_Tree_const_iterator@V?$_Tree_val@U?$_Tree_simple_types@U?$pair@$$CBHW4bkItemType@@@std@@@std@@@std@@@std@@QBE_NABV01@@Z 0041d2b0 f i settings_ui.obj
 0001:0001c2b0       ??9?$_Tree_unchecked_const_iterator@V?$_Tree_val@U?$_Tree_simple_types@PAVIMeetingServiceEvent@ZOOMSDK@@@std@@@std@@U_Iterator_base0@2@@std@@QBE_NABV01@@Z 0041d2b0 f i sdk_util.obj
 0001:0001c2b0       ??9?$_List_const_iterator@V?$_List_val@U?$_List_simple_types@H@std@@@std@@@std@@QBE_NABV01@@Z 0041d2b0 f i participant_ui.obj
 0001:0001c2b0       ??9?$_Tree_unchecked_const_iterator@V?$_Tree_val@U?$_Tree_simple_types@PAVIClosedCaptionControllerEvent@ZOOMSDK@@@std@@@std@@U_Iterator_base0@2@@std@@QBE_NABV01@@Z 0041d2b0 f i sdk_util.obj
 0001:0001c2b0       ??9?$_Tree_unchecked_const_iterator@V?$_Tree_val@U?$_Tree_simple_types@PAVIMeetingChatCtrlEvent@ZOOMSDK@@@std@@@std@@U_Iterator_base0@2@@std@@QBE_NABV01@@Z 0041d2b0 f i sdk_util.obj
 0001:0001c2b0       ??9?$_Tree_unchecked_const_iterator@V?$_Tree_val@U?$_Tree_simple_types@PAVIMeetingVideoCtrlEvent@ZOOMSDK@@@std@@@std@@U_Iterator_base0@2@@std@@QBE_NABV01@@Z 0041d2b0 f i sdk_util.obj
 0001:0001c2b0       ??9?$_Tree_const_iterator@V?$_Tree_val@U?$_Tree_simple_types@PAVISDKInMeetingServiceMgrEvent@@@std@@@std@@@std@@QBE_NABV01@@Z 0041d2b0 f i sdk_util.obj
 0001:0001c2b0       ??9?$_Tree_const_iterator@V?$_Tree_val@U?$_Tree_simple_types@PAVIMeetingParticipantsCtrlEvent@ZOOMSDK@@@std@@@std@@@std@@QBE_NABV01@@Z 0041d2b0 f i sdk_util.obj
 0001:0001c2b0       ??9?$_Tree_unchecked_const_iterator@V?$_Tree_val@U?$_Tree_simple_types@PAVIAuthServiceEvent@ZOOMSDK@@@std@@@std@@U_Iterator_base0@2@@std@@QBE_NABV01@@Z 0041d2b0 f i sdk_util.obj
 0001:0001c2b0       ??9?$_Tree_const_iterator@V?$_Tree_val@U?$_Tree_simple_types@PAVIClosedCaptionControllerEvent@ZOOMSDK@@@std@@@std@@@std@@QBE_NABV01@@Z 0041d2b0 f i sdk_util.obj
 0001:0001c2f0       ??D?$_List_const_iterator@V?$_List_val@U?$_List_simple_types@H@std@@@std@@@std@@QBEABHXZ 0041d2f0 f i participant_ui.obj
 0001:0001c310       ??D?$_List_iterator@V?$_List_val@U?$_List_simple_types@H@std@@@std@@@std@@QBEAAHXZ 0041d310 f i participant_ui.obj
 0001:0001c330       ??E?$_List_const_iterator@V?$_List_val@U?$_List_simple_types@H@std@@@std@@@std@@QAEAAV01@XZ 0041d330 f i participant_ui.obj
 0001:0001c350       ??E?$_List_iterator@V?$_List_val@U?$_List_simple_types@H@std@@@std@@@std@@QAE?AV01@H@Z 0041d350 f i participant_ui.obj
 0001:0001c380       ??_E?$CDelegate@VCPUserItemEx@@V1@@DuiLib@@UAEPAXI@Z 0041d380 f i participant_ui.obj
 0001:0001c380       ??_G?$CDelegate@VCPUserItemEx@@V1@@DuiLib@@UAEPAXI@Z 0041d380 f i participant_ui.obj
 0001:0001c3b0       ??_ECPUserItemEx@@UAEPAXI@Z 0041d3b0 f i participant_ui.obj
 0001:0001c3b0       ??_GCPUserItemEx@@UAEPAXI@Z 0041d3b0 f i participant_ui.obj
 0001:0001c3f0       ??_GParticipantPopMenu@@QAEPAXI@Z 0041d3f0 f i participant_ui.obj
 0001:0001c420       ?Copy@?$CDelegate@VCPUserItemEx@@V1@@DuiLib@@UBEPAVCDelegateBase@2@XZ 0041d420 f i participant_ui.obj
 0001:0001c4a0       ?CreateControl@CParticipantUIMgr@@UAEPAVCControlUI@DuiLib@@PB_W@Z 0041d4a0 f   participant_ui.obj
 0001:0001c590       ?GetSkinRes@CParticipantUIMgr@@UAEIXZ 0041d590 f i participant_ui.obj
 0001:0001c5a0       ?GetUserByID@CParticipantUIMgr@@QAEPAVIUserInfo@ZOOMSDK@@I@Z 0041d5a0 f   participant_ui.obj
 0001:0001c5d0       ?GetStrokeColor@CLabelUI@DuiLib@@QAEKXZ 0041d5d0 f   DuiLib:UILabel.obj
 0001:0001c5d0       ?GetUserID@CPUserItemEx@@QAEIXZ 0041d5d0 f   participant_ui.obj
 0001:0001c5d0       ?GetItemTextColor@CTreeNodeUI@DuiLib@@QBEKXZ 0041d5d0 f   DuiLib:UITreeView.obj
 0001:0001c5f0       ?GetUserList@CParticipantUIMgr@@QAEXXZ 0041d5f0 f   participant_ui.obj
 0001:0001c620       ?HandleMessage@CParticipantUIMgr@@UAEJIIJ@Z 0041d620 f   participant_ui.obj
 0001:0001c800       ?HandleUserChanged@CParticipantUIMgr@@QAEXW4SDKUserChangedType@@@Z 0041d800 f   participant_ui.obj
 0001:0001c850       ?InitControls@CPUserItemEx@@QAEXXZ 0041d850 f   participant_ui.obj
 0001:0001c980       ?InitListUI@CParticipantUIMgr@@QAEXXZ 0041d980 f   participant_ui.obj
 0001:0001cb90       ?InitWindow@CParticipantUIMgr@@UAEXXZ 0041db90 f   participant_ui.obj
 0001:0001cc80       ?Invoke@?$CDelegate@VCTreeViewUI@DuiLib@@V12@@DuiLib@@MAE_NPAX@Z 0041dc80 f i DuiLib:UITreeView.obj
 0001:0001cc80       ?Invoke@?$CDelegate@VCPUserItemEx@@V1@@DuiLib@@MAE_NPAX@Z 0041dc80 f i participant_ui.obj
 0001:0001ccc0       ?IsSelected@CPUserItemEx@@UBE_NXZ 0041dcc0 f   participant_ui.obj
 0001:0001cce0       ?Notify@CParticipantUIMgr@@UAEXAAUtagTNotifyUI@DuiLib@@@Z 0041dce0 f   participant_ui.obj
 0001:0001ce40       ?OnSelfItemSize@CPUserItemEx@@AAE_NPAX@Z 0041de40 f   participant_ui.obj
 0001:0001d2d0       ?RemoveListItem@CParticipantUIMgr@@AAEXXZ 0041e2d0 f   participant_ui.obj
 0001:0001d510       ?ResetWindowTitle@CParticipantUIMgr@@AAEXXZ 0041e510 f   participant_ui.obj
 0001:0001d5d0       ?SetUIMgr@CPUserItemEx@@QAEXPAVCParticipantUIMgr@@@Z 0041e5d0 f   participant_ui.obj
 0001:0001d600       ?SetUserID@CPUserItemEx@@QAEXI@Z 0041e600 f   participant_ui.obj
 0001:0001d660       ?UpdateItemInfo@CPUserItemEx@@QAEXXZ 0041e660 f   participant_ui.obj
 0001:0001d6a0       ?UpdateListItem@CParticipantUIMgr@@AAEXXZ 0041e6a0 f   participant_ui.obj
 0001:0001d960       ?UpdateName@CPUserItemEx@@QAEXXZ 0041e960 f   participant_ui.obj
 0001:0001dad0       ?UpdateUserAudioStatus@CPUserItemEx@@QAEXXZ 0041ead0 f   participant_ui.obj
 0001:0001dc40       ?UpdateUserInfo@CPUserItemEx@@QAEXXZ 0041ec40 f   participant_ui.obj
 0001:0001dc60       ?UpdateUserLowerHandStatus@CPUserItemEx@@QAEXXZ 0041ec60 f   participant_ui.obj
 0001:0001dcf0       ?UpdateUserVideoStatus@CPUserItemEx@@QAEXXZ 0041ecf0 f   participant_ui.obj
 0001:0001de10       ?_Alloc_sentinel_and_proxy@?$list@HV?$allocator@H@std@@@std@@AAEXXZ 0041ee10 f i participant_ui.obj
 0001:0001de80       ?_Allocate@?$_Alloc_construct_ptr@V?$allocator@U?$_List_node@HPAX@std@@@std@@@std@@QAEXXZ 0041ee80 f i participant_ui.obj
 0001:0001deb0       ?_Tidy@?$list@HV?$allocator@H@std@@@std@@AAEXXZ 0041eeb0 f i participant_ui.obj
 0001:0001df00       ?_Transfer_before@?$_List_node_emplace_op2@V?$allocator@U?$_List_node@HPAX@std@@@std@@@std@@QAEPAU?$_List_node@HPAX@2@QAU32@@Z 0041ef00 f i participant_ui.obj
 0001:0001df70       ?allocate@?$allocator@U?$_List_node@HPAX@std@@@std@@QAEPAU?$_List_node@HPAX@2@I@Z 0041ef70 f i participant_ui.obj
 0001:0001dfa0       ?begin@?$list@HV?$allocator@H@std@@@std@@QAE?AV?$_List_iterator@V?$_List_val@U?$_List_simple_types@H@std@@@std@@@2@XZ 0041efa0 f i participant_ui.obj
 0001:0001dfd0       ?deallocate@?$_Default_allocator_traits@V?$allocator@U?$_List_node@HPAX@std@@@std@@@std@@SAXAAV?$allocator@U?$_List_node@HPAX@std@@@2@QAU?$_List_node@HPAX@2@I@Z 0041efd0 f i participant_ui.obj
 0001:0001dff0       ?deallocate@?$allocator@U?$_List_node@HPAX@std@@@std@@QAEXQAU?$_List_node@HPAX@2@I@Z 0041eff0 f i participant_ui.obj
 0001:0001e010       ?IsEmpty@CDuiPtrArray@DuiLib@@QBE_NXZ 0041f010 f i DuiLib:Utils.obj
 0001:0001e010       ?empty@?$list@HV?$allocator@H@std@@@std@@QBE_NXZ 0041f010 f i participant_ui.obj
 0001:0001e040       ?end@?$list@HV?$allocator@H@std@@@std@@QAE?AV?$_List_iterator@V?$_List_val@U?$_List_simple_types@H@std@@@std@@@2@XZ 0041f040 f i participant_ui.obj
 0001:0001e070       ?max_size@?$_Default_allocator_traits@V?$allocator@U?$_List_node@HPAX@std@@@std@@@std@@SAIABV?$allocator@U?$_List_node@HPAX@std@@@2@@Z 0041f070 f i participant_ui.obj
 0001:0001e080       ?max_size@?$list@HV?$allocator@H@std@@@std@@QBEIXZ 0041f080 f i participant_ui.obj
 0001:0001e0c0       ?push_back@?$list@HV?$allocator@H@std@@@std@@QAEXABH@Z 0041f0c0 f i participant_ui.obj
 0001:0001e0e0       ??$?H_WU?$char_traits@_W@std@@V?$allocator@_W@1@@std@@YA?AV?$basic_string@_WU?$char_traits@_W@std@@V?$allocator@_W@2@@0@ABV10@0@Z 0041f0e0 f i schedule_meeting_ui.obj
 0001:0001e170       ??$?H_WU?$char_traits@_W@std@@V?$allocator@_W@1@@std@@YA?AV?$basic_string@_WU?$char_traits@_W@std@@V?$allocator@_W@2@@0@QB_W$$QAV10@@Z 0041f170 f i schedule_meeting_ui.obj
 0001:0001e1b0       ??$_Copy_memmove@PAPAVIVirtualBGImageInfo@ZOOMSDK@@PAPAV12@@std@@YAPAPAVIVirtualBGImageInfo@ZOOMSDK@@PAPAV12@00@Z 0041f1b0 f i settings_ui.obj
 0001:0001e1b0       ??$_Copy_memmove@PAPAVIUserInfo@ZOOMSDK@@PAPAV12@@std@@YAPAPAVIUserInfo@ZOOMSDK@@PAPAV12@00@Z 0041f1b0 f i user_manager.obj
 0001:0001e1b0       ??$_Copy_memmove@PAPAVIAlternativeHostInfo@ZOOMSDK@@PAPAV12@@std@@YAPAPAVIAlternativeHostInfo@ZOOMSDK@@PAPAV12@00@Z 0041f1b0 f i schedule_meeting_ui.obj
 0001:0001e1b0       ??$_Copy_memmove@PAPAVIInterpreterInfo@ZOOMSDK@@PAPAV12@@std@@YAPAPAVIInterpreterInfo@ZOOMSDK@@PAPAV12@00@Z 0041f1b0 f i schedule_meeting_ui.obj
 0001:0001e1f0       ??$_Emplace_back_with_unused_capacity@ABQAVIInterpreterInfo@ZOOMSDK@@@?$vector@PAVIInterpreterInfo@ZOOMSDK@@V?$allocator@PAVIInterpreterInfo@ZOOMSDK@@@std@@@std@@AAEXABQAVIInterpreterInfo@ZOOMSDK@@@Z 0041f1f0 f i schedule_meeting_ui.obj
 0001:0001e1f0       ??$_Emplace_back_with_unused_capacity@ABQAVIUserInfo@ZOOMSDK@@@?$vector@PAVIUserInfo@ZOOMSDK@@V?$allocator@PAVIUserInfo@ZOOMSDK@@@std@@@std@@AAEXABQAVIUserInfo@ZOOMSDK@@@Z 0041f1f0 f i user_manager.obj
 0001:0001e1f0       ??$_Emplace_back_with_unused_capacity@ABQAVIAlternativeHostInfo@ZOOMSDK@@@?$vector@PAVIAlternativeHostInfo@ZOOMSDK@@V?$allocator@PAVIAlternativeHostInfo@ZOOMSDK@@@std@@@std@@AAEXABQAVIAlternativeHostInfo@ZOOMSDK@@@Z 0041f1f0 f i schedule_meeting_ui.obj
 0001:0001e1f0       ??$_Emplace_back_with_unused_capacity@ABQAVIVirtualBGImageInfo@ZOOMSDK@@@?$vector@PAVIVirtualBGImageInfo@ZOOMSDK@@V?$allocator@PAVIVirtualBGImageInfo@ZOOMSDK@@@std@@@std@@AAEXABQAVIVirtualBGImageInfo@ZOOMSDK@@@Z 0041f1f0 f i settings_ui.obj
 0001:0001e270       ??$_Emplace_back_with_unused_capacity@ABV?$basic_string@_WU?$char_traits@_W@std@@V?$allocator@_W@2@@std@@@?$vector@V?$basic_string@_WU?$char_traits@_W@std@@V?$allocator@_W@2@@std@@V?$allocator@V?$basic_string@_WU?$char_traits@_W@std@@V?$allocator@_W@2@@std@@@2@@std@@AAEXABV?$basic_string@_WU?$char_traits@_W@std@@V?$allocator@_W@2@@1@@Z 0041f270 f i schedule_meeting_ui.obj
 0001:0001e2f0       ??$_Emplace_reallocate@ABQAVIAlternativeHostInfo@ZOOMSDK@@@?$vector@PAVIAlternativeHostInfo@ZOOMSDK@@V?$allocator@PAVIAlternativeHostInfo@ZOOMSDK@@@std@@@std@@QAEPAPAVIAlternativeHostInfo@ZOOMSDK@@QAPAV23@ABQAV23@@Z 0041f2f0 f i schedule_meeting_ui.obj
 0001:0001e2f0       ??$_Emplace_reallocate@ABQAVIUserInfo@ZOOMSDK@@@?$vector@PAVIUserInfo@ZOOMSDK@@V?$allocator@PAVIUserInfo@ZOOMSDK@@@std@@@std@@QAEPAPAVIUserInfo@ZOOMSDK@@QAPAV23@ABQAV23@@Z 0041f2f0 f i user_manager.obj
 0001:0001e2f0       ??$_Emplace_reallocate@ABQAVIVirtualBGImageInfo@ZOOMSDK@@@?$vector@PAVIVirtualBGImageInfo@ZOOMSDK@@V?$allocator@PAVIVirtualBGImageInfo@ZOOMSDK@@@std@@@std@@QAEPAPAVIVirtualBGImageInfo@ZOOMSDK@@QAPAV23@ABQAV23@@Z 0041f2f0 f i settings_ui.obj
 0001:0001e2f0       ??$_Emplace_reallocate@ABQAVIInterpreterInfo@ZOOMSDK@@@?$vector@PAVIInterpreterInfo@ZOOMSDK@@V?$allocator@PAVIInterpreterInfo@ZOOMSDK@@@std@@@std@@QAEPAPAVIInterpreterInfo@ZOOMSDK@@QAPAV23@ABQAV23@@Z 0041f2f0 f i schedule_meeting_ui.obj
 0001:0001e4c0       ??$_Emplace_reallocate@ABV?$basic_string@_WU?$char_traits@_W@std@@V?$allocator@_W@2@@std@@@?$vector@V?$basic_string@_WU?$char_traits@_W@std@@V?$allocator@_W@2@@std@@V?$allocator@V?$basic_string@_WU?$char_traits@_W@std@@V?$allocator@_W@2@@std@@@2@@std@@QAEPAV?$basic_string@_WU?$char_traits@_W@std@@V?$allocator@_W@2@@1@QAV21@ABV21@@Z 0041f4c0 f i schedule_meeting_ui.obj
 0001:0001e6a0       ??$_Get_size_of_n@$03@std@@YAII@Z 0041f6a0 f i schedule_meeting_ui.obj
 0001:0001e6d0       ??$_Reallocate_grow_by@V<lambda_09fe38f6114539daa867a3e4d6874f49>@@IPB_WI@?$basic_string@_WU?$char_traits@_W@std@@V?$allocator@_W@2@@std@@AAEAAV01@IV<lambda_09fe38f6114539daa867a3e4d6874f49>@@IPB_WI@Z 0041f6d0 f i schedule_meeting_ui.obj
 0001:0001e800       ??$_Reallocate_grow_by@V<lambda_38fb7828f6004e9a4c6a38bfc6df7f44>@@_W@?$basic_string@_WU?$char_traits@_W@std@@V?$allocator@_W@2@@std@@AAEAAV01@IV<lambda_38fb7828f6004e9a4c6a38bfc6df7f44>@@_W@Z 0041f800 f i schedule_meeting_ui.obj
 0001:0001e920       ??$_Uninitialized_move@PAPAVIUserInfo@ZOOMSDK@@V?$allocator@PAVIUserInfo@ZOOMSDK@@@std@@@std@@YAPAPAVIUserInfo@ZOOMSDK@@QAPAV12@0PAPAV12@AAV?$allocator@PAVIUserInfo@ZOOMSDK@@@0@@Z 0041f920 f i user_manager.obj
 0001:0001e920       ??$_Uninitialized_move@PAPAVIInterpreterInfo@ZOOMSDK@@V?$allocator@PAVIInterpreterInfo@ZOOMSDK@@@std@@@std@@YAPAPAVIInterpreterInfo@ZOOMSDK@@QAPAV12@0PAPAV12@AAV?$allocator@PAVIInterpreterInfo@ZOOMSDK@@@0@@Z 0041f920 f i schedule_meeting_ui.obj
 0001:0001e920       ??$_Uninitialized_move@PAPAVIVirtualBGImageInfo@ZOOMSDK@@V?$allocator@PAVIVirtualBGImageInfo@ZOOMSDK@@@std@@@std@@YAPAPAVIVirtualBGImageInfo@ZOOMSDK@@QAPAV12@0PAPAV12@AAV?$allocator@PAVIVirtualBGImageInfo@ZOOMSDK@@@0@@Z 0041f920 f i settings_ui.obj
 0001:0001e920       ??$_Uninitialized_move@PAPAVIAlternativeHostInfo@ZOOMSDK@@V?$allocator@PAVIAlternativeHostInfo@ZOOMSDK@@@std@@@std@@YAPAPAVIAlternativeHostInfo@ZOOMSDK@@QAPAV12@0PAPAV12@AAV?$allocator@PAVIAlternativeHostInfo@ZOOMSDK@@@0@@Z 0041f920 f i schedule_meeting_ui.obj
 0001:0001e980       ??$construct@V?$basic_string@_WU?$char_traits@_W@std@@V?$allocator@_W@2@@std@@ABV12@@?$_Default_allocator_traits@V?$allocator@V?$basic_string@_WU?$char_traits@_W@std@@V?$allocator@_W@2@@std@@@std@@@std@@SAXAAV?$allocator@V?$basic_string@_WU?$char_traits@_W@std@@V?$allocator@_W@2@@std@@@1@QAV?$basic_string@_WU?$char_traits@_W@std@@V?$allocator@_W@2@@1@ABV31@@Z 0041f980 f i schedule_meeting_ui.obj
 0001:0001e9b0       ??$emplace_back@ABQAVIAlternativeHostInfo@ZOOMSDK@@@?$vector@PAVIAlternativeHostInfo@ZOOMSDK@@V?$allocator@PAVIAlternativeHostInfo@ZOOMSDK@@@std@@@std@@QAEXABQAVIAlternativeHostInfo@ZOOMSDK@@@Z 0041f9b0 f i schedule_meeting_ui.obj
 0001:0001e9b0       ??$emplace_back@ABQAVIInterpreterInfo@ZOOMSDK@@@?$vector@PAVIInterpreterInfo@ZOOMSDK@@V?$allocator@PAVIInterpreterInfo@ZOOMSDK@@@std@@@std@@QAEXABQAVIInterpreterInfo@ZOOMSDK@@@Z 0041f9b0 f i schedule_meeting_ui.obj
 0001:0001e9b0       ??$emplace_back@ABQAVIUserInfo@ZOOMSDK@@@?$vector@PAVIUserInfo@ZOOMSDK@@V?$allocator@PAVIUserInfo@ZOOMSDK@@@std@@@std@@QAEXABQAVIUserInfo@ZOOMSDK@@@Z 0041f9b0 f i user_manager.obj
 0001:0001e9b0       ??$emplace_back@ABQAVIVirtualBGImageInfo@ZOOMSDK@@@?$vector@PAVIVirtualBGImageInfo@ZOOMSDK@@V?$allocator@PAVIVirtualBGImageInfo@ZOOMSDK@@@std@@@std@@QAEXABQAVIVirtualBGImageInfo@ZOOMSDK@@@Z 0041f9b0 f i settings_ui.obj
 0001:0001ea10       ??$emplace_back@ABV?$basic_string@_WU?$char_traits@_W@std@@V?$allocator@_W@2@@std@@@?$vector@V?$basic_string@_WU?$char_traits@_W@std@@V?$allocator@_W@2@@std@@V?$allocator@V?$basic_string@_WU?$char_traits@_W@std@@V?$allocator@_W@2@@std@@@2@@std@@QAEXABV?$basic_string@_WU?$char_traits@_W@std@@V?$allocator@_W@2@@1@@Z 0041fa10 f i schedule_meeting_ui.obj
 0001:0001ea70       ??$getline@_WU?$char_traits@_W@std@@V?$allocator@_W@2@@std@@YAAAV?$basic_istream@_WU?$char_traits@_W@std@@@0@$$QAV10@AAV?$basic_string@_WU?$char_traits@_W@std@@V?$allocator@_W@2@@0@_W@Z 0041fa70 f i schedule_meeting_ui.obj
 0001:0001ec80       ??$getline@_WU?$char_traits@_W@std@@V?$allocator@_W@2@@std@@YAAAV?$basic_istream@_WU?$char_traits@_W@std@@@0@AAV10@AAV?$basic_string@_WU?$char_traits@_W@std@@V?$allocator@_W@2@@0@_W@Z 0041fc80 f i schedule_meeting_ui.obj
 0001:0001ecb0       ??0?$IList@PAVIAlternativeHostInfo@ZOOMSDK@@@ZOOMSDK@@QAE@XZ 0041fcb0 f i schedule_meeting_ui.obj
 0001:0001ecd0       ??0?$IList@PAVIInterpreterInfo@ZOOMSDK@@@ZOOMSDK@@QAE@XZ 0041fcd0 f i schedule_meeting_ui.obj
 0001:0001ecf0       ??0?$TListImpl@PAVIAlternativeHostInfo@ZOOMSDK@@@@QAE@XZ 0041fcf0 f i schedule_meeting_ui.obj
 0001:0001ed20       ??0?$TListImpl@PAVIInterpreterInfo@ZOOMSDK@@@@QAE@XZ 0041fd20 f i schedule_meeting_ui.obj
 0001:0001ed50       ??0?$basic_string@_WU?$char_traits@_W@std@@V?$allocator@_W@2@@std@@QAE@ABV01@@Z 0041fd50 f i schedule_meeting_ui.obj
 0001:0001edf0       ??0?$basic_string@_WU?$char_traits@_W@std@@V?$allocator@_W@2@@std@@QAE@U_String_constructor_concat_tag@1@ABV01@QB_WI2I@Z 0041fdf0 f i schedule_meeting_ui.obj
 0001:0001ef50       ??0?$basic_stringbuf@_WU?$char_traits@_W@std@@V?$allocator@_W@2@@std@@QAE@H@Z 0041ff50 f i schedule_meeting_ui.obj
 0001:0001efe0       ??0?$basic_stringstream@_WU?$char_traits@_W@std@@V?$allocator@_W@2@@std@@QAE@XZ 0041ffe0 f i schedule_meeting_ui.obj
 0001:0001f0c0       ??0?$fpos@U_Mbstatet@@@std@@QAE@_J@Z 004200c0 f i schedule_meeting_ui.obj
 0001:0001f100       ??0CSDKSheduleMeetingUIEvent@@QAE@XZ 00420100 f i schedule_meeting_ui.obj
 0001:0001f120       ??0CSDKSheduleMeetingUIGroup@@QAE@XZ 00420120 f   schedule_meeting_ui.obj
 0001:0001f380       ??0CSDKSheduleMeetingUIMgr@@QAE@XZ 00420380 f   schedule_meeting_ui.obj
 0001:0001f490       ??0IAlternativeHostInfo@ZOOMSDK@@QAE@XZ 00420490 f i schedule_meeting_ui.obj
 0001:0001f4b0       ??0IInterpreterInfo@ZOOMSDK@@QAE@XZ 004204b0 f i schedule_meeting_ui.obj
 0001:0001f4d0       ??0TAlternativeHostInfo@@QAE@XZ 004204d0 f i schedule_meeting_ui.obj
 0001:0001f500       ??0TInterpreterInfo@@QAE@XZ 00420500 f i schedule_meeting_ui.obj
 0001:0001f540       ??0_Sentry_base@?$basic_istream@_WU?$char_traits@_W@std@@@std@@QAE@AAV12@@Z 00420540 f i schedule_meeting_ui.obj
 0001:0001f590       ??0sentry@?$basic_istream@_WU?$char_traits@_W@std@@@std@@QAE@AAV12@_N@Z 00420590 f i schedule_meeting_ui.obj
 0001:0001f600       ??1?$IList@PAVIAlternativeHostInfo@ZOOMSDK@@@ZOOMSDK@@UAE@XZ 00420600 f i schedule_meeting_ui.obj
 0001:0001f620       ??1?$IList@PAVIInterpreterInfo@ZOOMSDK@@@ZOOMSDK@@UAE@XZ 00420620 f i schedule_meeting_ui.obj
 0001:0001f640       ??1?$TListImpl@PAVIAlternativeHostInfo@ZOOMSDK@@@@UAE@XZ 00420640 f i schedule_meeting_ui.obj
 0001:0001f670       ??1?$TListImpl@PAVIInterpreterInfo@ZOOMSDK@@@@UAE@XZ 00420670 f i schedule_meeting_ui.obj
 0001:0001f6a0       ??1?$basic_stringbuf@_WU?$char_traits@_W@std@@V?$allocator@_W@2@@std@@UAE@XZ 004206a0 f i schedule_meeting_ui.obj
 0001:0001f6d0       ??1?$basic_stringstream@_WU?$char_traits@_W@std@@V?$allocator@_W@2@@std@@UAE@XZ 004206d0 f i schedule_meeting_ui.obj
 0001:0001f730       ??1?$vector@PAVIVirtualBGImageInfo@ZOOMSDK@@V?$allocator@PAVIVirtualBGImageInfo@ZOOMSDK@@@std@@@std@@QAE@XZ 00420730 f i settings_ui.obj
 0001:0001f730       ??1?$vector@PAVIAlternativeHostInfo@ZOOMSDK@@V?$allocator@PAVIAlternativeHostInfo@ZOOMSDK@@@std@@@std@@QAE@XZ 00420730 f i schedule_meeting_ui.obj
 0001:0001f730       ??1?$vector@PAVIInterpreterInfo@ZOOMSDK@@V?$allocator@PAVIInterpreterInfo@ZOOMSDK@@@std@@@std@@QAE@XZ 00420730 f i schedule_meeting_ui.obj
 0001:0001f730       ??1?$vector@PAVIUserInfo@ZOOMSDK@@V?$allocator@PAVIUserInfo@ZOOMSDK@@@std@@@std@@QAE@XZ 00420730 f i user_manager.obj
 0001:0001f750       ??1CSDKSheduleMeetingUIGroup@@UAE@XZ 00420750 f   schedule_meeting_ui.obj
 0001:0001f9e0       ??1CSDKSheduleMeetingUIMgr@@UAE@XZ 004209e0 f   schedule_meeting_ui.obj
 0001:0001faa0       ??1IAlternativeHostInfo@ZOOMSDK@@UAE@XZ 00420aa0 f i schedule_meeting_ui.obj
 0001:0001fac0       ??1IInterpreterInfo@ZOOMSDK@@UAE@XZ 00420ac0 f i schedule_meeting_ui.obj
 0001:0001fae0       ??1TAlternativeHostInfo@@UAE@XZ 00420ae0 f i schedule_meeting_ui.obj
 0001:0001fb10       ??1TInterpreterInfo@@UAE@XZ 00420b10 f i schedule_meeting_ui.obj
 0001:0001fb40       ??1_Sentry_base@?$basic_istream@_WU?$char_traits@_W@std@@@std@@QAE@XZ 00420b40 f i schedule_meeting_ui.obj
 0001:0001fbb0       ??1sentry@?$basic_istream@_WU?$char_traits@_W@std@@@std@@QAE@XZ 00420bb0 f i schedule_meeting_ui.obj
 0001:0001fbd0       ??A?$vector@PAVIVirtualBGImageInfo@ZOOMSDK@@V?$allocator@PAVIVirtualBGImageInfo@ZOOMSDK@@@std@@@std@@QAEAAPAVIVirtualBGImageInfo@ZOOMSDK@@I@Z 00420bd0 f i settings_ui.obj
 0001:0001fbd0       ??A?$vector@PAVIUserInfo@ZOOMSDK@@V?$allocator@PAVIUserInfo@ZOOMSDK@@@std@@@std@@QAEAAPAVIUserInfo@ZOOMSDK@@I@Z 00420bd0 f i user_manager.obj
 0001:0001fbd0       ??A?$vector@PAVIAlternativeHostInfo@ZOOMSDK@@V?$allocator@PAVIAlternativeHostInfo@ZOOMSDK@@@std@@@std@@QAEAAPAVIAlternativeHostInfo@ZOOMSDK@@I@Z 00420bd0 f i schedule_meeting_ui.obj
 0001:0001fbd0       ??A?$vector@PAVIInterpreterInfo@ZOOMSDK@@V?$allocator@PAVIInterpreterInfo@ZOOMSDK@@@std@@@std@@QAEAAPAVIInterpreterInfo@ZOOMSDK@@I@Z 00420bd0 f i schedule_meeting_ui.obj
 0001:0001fbf0       ??B?$fpos@U_Mbstatet@@@std@@QBE_JXZ 00420bf0 f i schedule_meeting_ui.obj
 0001:0001fc20       ??Bsentry@?$basic_istream@_WU?$char_traits@_W@std@@@std@@QBE_NXZ 00420c20 f i schedule_meeting_ui.obj
 0001:0001fc40       ??R<lambda_09fe38f6114539daa867a3e4d6874f49>@@QBEXQA_WQB_WII1I@Z 00420c40 f i schedule_meeting_ui.obj
 0001:0001fcb0       ??R<lambda_38fb7828f6004e9a4c6a38bfc6df7f44>@@QBEXQA_WQB_WI_W@Z 00420cb0 f i schedule_meeting_ui.obj
 0001:0001fd10       ??Y?$basic_string@_WU?$char_traits@_W@std@@V?$allocator@_W@2@@std@@QAEAAV01@ABV01@@Z 00420d10 f i schedule_meeting_ui.obj
 0001:0001fd30       ??Y?$basic_string@_WU?$char_traits@_W@std@@V?$allocator@_W@2@@std@@QAEAAV01@_W@Z 00420d30 f i schedule_meeting_ui.obj
 0001:0001fd50       ??_D?$basic_stringstream@_WU?$char_traits@_W@std@@V?$allocator@_W@2@@std@@QAEXXZ 00420d50 f i schedule_meeting_ui.obj
 0001:0001fd72       ??_E?$basic_stringstream@_WU?$char_traits@_W@std@@V?$allocator@_W@2@@std@@$4PPPPPPPM@A@AEPAXI@Z 00420d72 f i schedule_meeting_ui.obj
 0001:0001fd80       ??_G?$IList@PAVIAlternativeHostInfo@ZOOMSDK@@@ZOOMSDK@@UAEPAXI@Z 00420d80 f i schedule_meeting_ui.obj
 0001:0001fd80       ??_E?$IList@PAVIAlternativeHostInfo@ZOOMSDK@@@ZOOMSDK@@UAEPAXI@Z 00420d80 f i schedule_meeting_ui.obj
 0001:0001fdb0       ??_G?$IList@PAVIInterpreterInfo@ZOOMSDK@@@ZOOMSDK@@UAEPAXI@Z 00420db0 f i schedule_meeting_ui.obj
 0001:0001fdb0       ??_E?$IList@PAVIInterpreterInfo@ZOOMSDK@@@ZOOMSDK@@UAEPAXI@Z 00420db0 f i schedule_meeting_ui.obj
 0001:0001fde0       ??_G?$TListImpl@PAVIAlternativeHostInfo@ZOOMSDK@@@@UAEPAXI@Z 00420de0 f i schedule_meeting_ui.obj
 0001:0001fde0       ??_E?$TListImpl@PAVIAlternativeHostInfo@ZOOMSDK@@@@UAEPAXI@Z 00420de0 f i schedule_meeting_ui.obj
 0001:0001fe10       ??_G?$TListImpl@PAVIInterpreterInfo@ZOOMSDK@@@@UAEPAXI@Z 00420e10 f i schedule_meeting_ui.obj
 0001:0001fe10       ??_E?$TListImpl@PAVIInterpreterInfo@ZOOMSDK@@@@UAEPAXI@Z 00420e10 f i schedule_meeting_ui.obj
 0001:0001fe40       ??_E?$basic_stringbuf@_WU?$char_traits@_W@std@@V?$allocator@_W@2@@std@@UAEPAXI@Z 00420e40 f i schedule_meeting_ui.obj
 0001:0001fe40       ??_G?$basic_stringbuf@_WU?$char_traits@_W@std@@V?$allocator@_W@2@@std@@UAEPAXI@Z 00420e40 f i schedule_meeting_ui.obj
 0001:0001fe70       ??_E?$basic_stringstream@_WU?$char_traits@_W@std@@V?$allocator@_W@2@@std@@UAEPAXI@Z 00420e70 f i schedule_meeting_ui.obj
 0001:0001fe70       ??_G?$basic_stringstream@_WU?$char_traits@_W@std@@V?$allocator@_W@2@@std@@UAEPAXI@Z 00420e70 f i schedule_meeting_ui.obj
 0001:0001feb0       ??_GCDialInCountryUIMgr@@QAEPAXI@Z 00420eb0 f i schedule_meeting_ui.obj
 0001:0001fef0       ??_GCSDKSheduleMeetingUIGroup@@UAEPAXI@Z 00420ef0 f i schedule_meeting_ui.obj
 0001:0001fef0       ??_ECSDKSheduleMeetingUIGroup@@UAEPAXI@Z 00420ef0 f i schedule_meeting_ui.obj
 0001:0001ff30       ??_ECSDKSheduleMeetingUIMgr@@UAEPAXI@Z 00420f30 f i schedule_meeting_ui.obj
 0001:0001ff30       ??_GCSDKSheduleMeetingUIMgr@@UAEPAXI@Z 00420f30 f i schedule_meeting_ui.obj
 0001:0001ff70       ??_GIAlternativeHostInfo@ZOOMSDK@@UAEPAXI@Z 00420f70 f i schedule_meeting_ui.obj
 0001:0001ff70       ??_EIAlternativeHostInfo@ZOOMSDK@@UAEPAXI@Z 00420f70 f i schedule_meeting_ui.obj
 0001:0001ffa0       ??_GIInterpreterInfo@ZOOMSDK@@UAEPAXI@Z 00420fa0 f i schedule_meeting_ui.obj
 0001:0001ffa0       ??_EIInterpreterInfo@ZOOMSDK@@UAEPAXI@Z 00420fa0 f i schedule_meeting_ui.obj
 0001:0001ffd0       ??_ETAlternativeHostInfo@@UAEPAXI@Z 00420fd0 f i schedule_meeting_ui.obj
 0001:0001ffd0       ??_GTAlternativeHostInfo@@UAEPAXI@Z 00420fd0 f i schedule_meeting_ui.obj
 0001:00020000       ??_ETInterpreterInfo@@UAEPAXI@Z 00421000 f i schedule_meeting_ui.obj
 0001:00020000       ??_GTInterpreterInfo@@UAEPAXI@Z 00421000 f i schedule_meeting_ui.obj
 0001:00020030       ?DoClickBackBtn@CSDKSheduleMeetingUIGroup@@QAEXXZ 00421030 f   schedule_meeting_ui.obj
 0001:00020060       ?DoClickDeleteMeetingBtn@CSDKSheduleMeetingUIGroup@@QAEXXZ 00421060 f   schedule_meeting_ui.obj
 0001:00020220       ?DoClickEditDialInCountryBtn@CSDKSheduleMeetingUIGroup@@QAEXXZ 00421220 f   schedule_meeting_ui.obj
 0001:00020390       ?DoClickEditMeetingBtn@CSDKSheduleMeetingUIGroup@@QAEXXZ 00421390 f   schedule_meeting_ui.obj
 0001:00021450       ?DoClickScheduleBtn@CSDKSheduleMeetingUIGroup@@QAEXXZ 00422450 f   schedule_meeting_ui.obj
 0001:00021510       ?DoClickViewPublicListBtn@CSDKSheduleMeetingUIGroup@@QAEXXZ 00422510 f   schedule_meeting_ui.obj
 0001:000215a0       ?DoEdit@CSDKSheduleMeetingUIGroup@@QAEXXZ 004225a0 f   schedule_meeting_ui.obj
 0001:000226d0       ?DoSchedule@CSDKSheduleMeetingUIGroup@@QAEXXZ 004236d0 f   schedule_meeting_ui.obj
 0001:00023870       ?GetCount@?$TListImpl@PAVIInterpreterInfo@ZOOMSDK@@@@UAEHXZ 00424870 f i schedule_meeting_ui.obj
 0001:00023870       ?GetCount@CSDKVBGImageList@@QAEHXZ 00424870 f i settings_ui.obj
 0001:00023870       ?GetCount@?$TListImpl@PAVIAlternativeHostInfo@ZOOMSDK@@@@UAEHXZ 00424870 f i schedule_meeting_ui.obj
 0001:00023870       ?GetCount@CSDKUserList@@QAEHXZ 00424870 f i user_manager.obj
 0001:00023890       ?GetEditMeetingStatus@CSDKSheduleMeetingUIGroup@@QAE_NXZ 00424890 f   schedule_meeting_ui.obj
 0001:000238b0       ?GetEmail@TInterpreterInfo@@UAEPB_WXZ 004248b0 f i schedule_meeting_ui.obj
 0001:000238b0       ?GetEmail@TAlternativeHostInfo@@UAEPB_WXZ 004248b0 f i schedule_meeting_ui.obj
 0001:000238d0       ?GetCaretHeight@CTxtWinHost@DuiLib@@QAEHXZ 004248d0 f i DuiLib:UIRichEdit.obj
 0001:000238d0       ?GetFirstLanguageInfo@TInterpreterInfo@@UAE?AW4InterpreteLanguageInfo@ZOOMSDK@@XZ 004248d0 f i schedule_meeting_ui.obj
 0001:000238f0       ?GetItem@?$TListImpl@PAVIInterpreterInfo@ZOOMSDK@@@@UAEPAVIInterpreterInfo@ZOOMSDK@@H@Z 004248f0 f i schedule_meeting_ui.obj
 0001:000238f0       ?GetItem@?$TListImpl@PAVIAlternativeHostInfo@ZOOMSDK@@@@UAEPAVIAlternativeHostInfo@ZOOMSDK@@H@Z 004248f0 f i schedule_meeting_ui.obj
 0001:00023940       ?GetSecendLanguageInfo@TInterpreterInfo@@UAE?AW4InterpreteLanguageInfo@ZOOMSDK@@XZ 00424940 f i schedule_meeting_ui.obj
 0001:00023960       ?GetSkinRes@CSDKSheduleMeetingUIMgr@@UAEIXZ 00424960 f i schedule_meeting_ui.obj
 0001:00023970       ?HandleMessage@CSDKSheduleMeetingUIMgr@@UAEJIIJ@Z 00424970 f   schedule_meeting_ui.obj
 0001:00023b70       ?InitDialInCountry@CSDKSheduleMeetingUIGroup@@QAEXXZ 00424b70 f   schedule_meeting_ui.obj
 0001:00023db0       ?InitWindow@CSDKSheduleMeetingUIGroup@@QAEXAAVCPaintManagerUI@DuiLib@@PAVCSDKSheduleMeetingUIMgr@@@Z 00424db0 f   schedule_meeting_ui.obj
 0001:00024130       ?InitWindow@CSDKSheduleMeetingUIMgr@@UAEXXZ 00425130 f   schedule_meeting_ui.obj
 0001:00024350       ?Notify@CSDKSheduleMeetingUIGroup@@QAEXAAUtagTNotifyUI@DuiLib@@@Z 00425350 f   schedule_meeting_ui.obj
 0001:00024850       ?Notify@CSDKSheduleMeetingUIMgr@@UAEXAAUtagTNotifyUI@DuiLib@@@Z 00425850 f   schedule_meeting_ui.obj
 0001:00024950       ?OnClose@CSDKSettingsUIMgr@@QAEJIIJAAH@Z 00425950 f   settings_ui.obj
 0001:00024950       ?OnClose@CSDKSheduleMeetingUIMgr@@QAEJIIJAAH@Z 00425950 f   schedule_meeting_ui.obj
 0001:00024960       ?OnDestroy@CSDKSheduleMeetingUIMgr@@QAEJIIJAAH@Z 00425960 f   schedule_meeting_ui.obj
 0001:00024980       ?SetEvent@CSDKSheduleMeetingUIMgr@@QAEXPAVCSDKDemoAppEvent@@@Z 00425980 f   schedule_meeting_ui.obj
 0001:000249a0       ?SetNotBeEditMeeting@CSDKSheduleMeetingUIGroup@@QAEXXZ 004259a0 f   schedule_meeting_ui.obj
 0001:000249c0       ?ShowErrorMessage@CSDKSheduleMeetingUIMgr@@QAEXPB_W@Z 004259c0 f   schedule_meeting_ui.obj
 0001:000249e0       ?ShowErrorMessage@CSDKSheduleMeetingUIMgr@@QAEXW4ErrorMessageType@@@Z 004259e0 f   schedule_meeting_ui.obj
 0001:00024b60       ?ShowLocaltime@CSDKSheduleMeetingUIGroup@@QAEXXZ 00425b60 f   schedule_meeting_ui.obj
 0001:00024c40       ?ShowWaitingGif@CSDKSheduleMeetingUIMgr@@QAEX_N@Z 00425c40 f   schedule_meeting_ui.obj
 0001:00024cd0       ?StringToDatetime@@YA_JPB_W@Z 00425cd0 f   schedule_meeting_ui.obj
 0001:00024d70       ?SwitchToPage@CSDKSheduleMeetingUIMgr@@QAEXW4PreMeetingPageType@@@Z 00425d70 f   schedule_meeting_ui.obj
 0001:00025010       ?UninitWindow@CSDKSheduleMeetingUIGroup@@QAEXXZ 00426010 f   schedule_meeting_ui.obj
 0001:00025040       ?UpdateRecurringMeetingUI@CSDKSheduleMeetingUIGroup@@QAEXXZ 00426040 f   schedule_meeting_ui.obj
 0001:00025110       ?_Calculate_growth@?$vector@PAVIInterpreterInfo@ZOOMSDK@@V?$allocator@PAVIInterpreterInfo@ZOOMSDK@@@std@@@std@@ABEII@Z 00426110 f i schedule_meeting_ui.obj
 0001:00025110       ?_Calculate_growth@?$vector@PAVIUserInfo@ZOOMSDK@@V?$allocator@PAVIUserInfo@ZOOMSDK@@@std@@@std@@ABEII@Z 00426110 f i user_manager.obj
 0001:00025110       ?_Calculate_growth@?$vector@PAVIVirtualBGImageInfo@ZOOMSDK@@V?$allocator@PAVIVirtualBGImageInfo@ZOOMSDK@@@std@@@std@@ABEII@Z 00426110 f i settings_ui.obj
 0001:00025110       ?_Calculate_growth@?$vector@PAVIAlternativeHostInfo@ZOOMSDK@@V?$allocator@PAVIAlternativeHostInfo@ZOOMSDK@@@std@@@std@@ABEII@Z 00426110 f i schedule_meeting_ui.obj
 0001:00025170       ?_Change_array@?$vector@PAVIAlternativeHostInfo@ZOOMSDK@@V?$allocator@PAVIAlternativeHostInfo@ZOOMSDK@@@std@@@std@@AAEXQAPAVIAlternativeHostInfo@ZOOMSDK@@II@Z 00426170 f i schedule_meeting_ui.obj
 0001:00025170       ?_Change_array@?$vector@PAVIInterpreterInfo@ZOOMSDK@@V?$allocator@PAVIInterpreterInfo@ZOOMSDK@@@std@@@std@@AAEXQAPAVIInterpreterInfo@ZOOMSDK@@II@Z 00426170 f i schedule_meeting_ui.obj
 0001:00025170       ?_Change_array@?$vector@PAVIVirtualBGImageInfo@ZOOMSDK@@V?$allocator@PAVIVirtualBGImageInfo@ZOOMSDK@@@std@@@std@@AAEXQAPAVIVirtualBGImageInfo@ZOOMSDK@@II@Z 00426170 f i settings_ui.obj
 0001:00025170       ?_Change_array@?$vector@PAVIUserInfo@ZOOMSDK@@V?$allocator@PAVIUserInfo@ZOOMSDK@@@std@@@std@@AAEXQAPAVIUserInfo@ZOOMSDK@@II@Z 00426170 f i user_manager.obj
 0001:00025210       ?_Check_offset@?$_String_val@U?$_Simple_types@_W@std@@@std@@QBEXI@Z 00426210 f i schedule_meeting_ui.obj
 0001:00025230       ?_Construct_lv_contents@?$basic_string@_WU?$char_traits@_W@std@@V?$allocator@_W@2@@std@@AAEXABV12@@Z 00426230 f i schedule_meeting_ui.obj
 0001:00025320       ?_Destroy@?$vector@PAVIInterpreterInfo@ZOOMSDK@@V?$allocator@PAVIInterpreterInfo@ZOOMSDK@@@std@@@std@@AAEXPAPAVIInterpreterInfo@ZOOMSDK@@0@Z 00426320 f i schedule_meeting_ui.obj
 0001:00025320       ?_Destroy@?$vector@PAVIUserInfo@ZOOMSDK@@V?$allocator@PAVIUserInfo@ZOOMSDK@@@std@@@std@@AAEXPAPAVIUserInfo@ZOOMSDK@@0@Z 00426320 f i user_manager.obj
 0001:00025320       ?_Destroy@?$vector@PAVIVirtualBGImageInfo@ZOOMSDK@@V?$allocator@PAVIVirtualBGImageInfo@ZOOMSDK@@@std@@@std@@AAEXPAPAVIVirtualBGImageInfo@ZOOMSDK@@0@Z 00426320 f i settings_ui.obj
 0001:00025320       ?_Destroy@?$vector@PAVIAlternativeHostInfo@ZOOMSDK@@V?$allocator@PAVIAlternativeHostInfo@ZOOMSDK@@@std@@@std@@AAEXPAPAVIAlternativeHostInfo@ZOOMSDK@@0@Z 00426320 f i schedule_meeting_ui.obj
 0001:00025350       ?_Eos@?$basic_string@_WU?$char_traits@_W@std@@V?$allocator@_W@2@@std@@AAEXI@Z 00426350 f i schedule_meeting_ui.obj
 0001:00025390       ?_Getstate@?$basic_stringbuf@_WU?$char_traits@_W@std@@V?$allocator@_W@2@@std@@CAHH@Z 00426390 f i schedule_meeting_ui.obj
 0001:000253f0       ?_Init@?$basic_stringbuf@_WU?$char_traits@_W@std@@V?$allocator@_W@2@@std@@IAEXPB_WIH@Z 004263f0 f i schedule_meeting_ui.obj
 0001:00025500       ?_Tidy@?$basic_stringbuf@_WU?$char_traits@_W@std@@V?$allocator@_W@2@@std@@IAEXXZ 00426500 f i schedule_meeting_ui.obj
 0001:000255e0       ?_Tidy@?$vector@PAVIAlternativeHostInfo@ZOOMSDK@@V?$allocator@PAVIAlternativeHostInfo@ZOOMSDK@@@std@@@std@@AAEXXZ 004265e0 f i schedule_meeting_ui.obj
 0001:000255e0       ?_Tidy@?$vector@PAVIInterpreterInfo@ZOOMSDK@@V?$allocator@PAVIInterpreterInfo@ZOOMSDK@@@std@@@std@@AAEXXZ 004265e0 f i schedule_meeting_ui.obj
 0001:000255e0       ?_Tidy@?$vector@PAVIUserInfo@ZOOMSDK@@V?$allocator@PAVIUserInfo@ZOOMSDK@@@std@@@std@@AAEXXZ 004265e0 f i user_manager.obj
 0001:000255e0       ?_Tidy@?$vector@PAVIVirtualBGImageInfo@ZOOMSDK@@V?$allocator@PAVIVirtualBGImageInfo@ZOOMSDK@@@std@@@std@@AAEXXZ 004265e0 f i settings_ui.obj
 0001:000256a0       ?_Umove@?$vector@PAVIAlternativeHostInfo@ZOOMSDK@@V?$allocator@PAVIAlternativeHostInfo@ZOOMSDK@@@std@@@std@@AAEPAPAVIAlternativeHostInfo@ZOOMSDK@@PAPAV34@00@Z 004266a0 f i schedule_meeting_ui.obj
 0001:000256a0       ?_Umove@?$vector@PAVIInterpreterInfo@ZOOMSDK@@V?$allocator@PAVIInterpreterInfo@ZOOMSDK@@@std@@@std@@AAEPAPAVIInterpreterInfo@ZOOMSDK@@PAPAV34@00@Z 004266a0 f i schedule_meeting_ui.obj
 0001:000256a0       ?_Umove@?$vector@PAVIUserInfo@ZOOMSDK@@V?$allocator@PAVIUserInfo@ZOOMSDK@@@std@@@std@@AAEPAPAVIUserInfo@ZOOMSDK@@PAPAV34@00@Z 004266a0 f i user_manager.obj
 0001:000256a0       ?_Umove@?$vector@PAVIVirtualBGImageInfo@ZOOMSDK@@V?$allocator@PAVIVirtualBGImageInfo@ZOOMSDK@@@std@@@std@@AAEPAPAVIVirtualBGImageInfo@ZOOMSDK@@PAPAV34@00@Z 004266a0 f i settings_ui.obj
 0001:000256d0       ?_Umove_if_noexcept1@?$vector@PAVIInterpreterInfo@ZOOMSDK@@V?$allocator@PAVIInterpreterInfo@ZOOMSDK@@@std@@@std@@AAEXPAPAVIInterpreterInfo@ZOOMSDK@@00U?$integral_constant@_N$00@2@@Z 004266d0 f i schedule_meeting_ui.obj
 0001:000256d0       ?_Umove_if_noexcept1@?$vector@PAVIUserInfo@ZOOMSDK@@V?$allocator@PAVIUserInfo@ZOOMSDK@@@std@@@std@@AAEXPAPAVIUserInfo@ZOOMSDK@@00U?$integral_constant@_N$00@2@@Z 004266d0 f i user_manager.obj
 0001:000256d0       ?_Umove_if_noexcept1@?$vector@PAVIAlternativeHostInfo@ZOOMSDK@@V?$allocator@PAVIAlternativeHostInfo@ZOOMSDK@@@std@@@std@@AAEXPAPAVIAlternativeHostInfo@ZOOMSDK@@00U?$integral_constant@_N$00@2@@Z 004266d0 f i schedule_meeting_ui.obj
 0001:000256d0       ?_Umove_if_noexcept1@?$vector@PAVIVirtualBGImageInfo@ZOOMSDK@@V?$allocator@PAVIVirtualBGImageInfo@ZOOMSDK@@@std@@@std@@AAEXPAPAVIVirtualBGImageInfo@ZOOMSDK@@00U?$integral_constant@_N$00@2@@Z 004266d0 f i settings_ui.obj
 0001:00025700       ?_Umove_if_noexcept@?$vector@PAVIUserInfo@ZOOMSDK@@V?$allocator@PAVIUserInfo@ZOOMSDK@@@std@@@std@@AAEXPAPAVIUserInfo@ZOOMSDK@@00@Z 00426700 f i user_manager.obj
 0001:00025700       ?_Umove_if_noexcept@?$vector@PAVIInterpreterInfo@ZOOMSDK@@V?$allocator@PAVIInterpreterInfo@ZOOMSDK@@@std@@@std@@AAEXPAPAVIInterpreterInfo@ZOOMSDK@@00@Z 00426700 f i schedule_meeting_ui.obj
 0001:00025700       ?_Umove_if_noexcept@?$vector@PAVIAlternativeHostInfo@ZOOMSDK@@V?$allocator@PAVIAlternativeHostInfo@ZOOMSDK@@@std@@@std@@AAEXPAPAVIAlternativeHostInfo@ZOOMSDK@@00@Z 00426700 f i schedule_meeting_ui.obj
 0001:00025700       ?_Umove_if_noexcept@?$vector@PAVIVirtualBGImageInfo@ZOOMSDK@@V?$allocator@PAVIVirtualBGImageInfo@ZOOMSDK@@@std@@@std@@AAEXPAPAVIVirtualBGImageInfo@ZOOMSDK@@00@Z 00426700 f i settings_ui.obj
 0001:00025730       ?_Xran@?$_String_val@U?$_Simple_types@_W@std@@@std@@SAXXZ 00426730 f i schedule_meeting_ui.obj
 0001:00025740       ?allocate@?$allocator@PAVIInterpreterInfo@ZOOMSDK@@@std@@QAEPAPAVIInterpreterInfo@ZOOMSDK@@I@Z 00426740 f i schedule_meeting_ui.obj
 0001:00025740       ?allocate@?$allocator@PAVIVirtualBGImageInfo@ZOOMSDK@@@std@@QAEPAPAVIVirtualBGImageInfo@ZOOMSDK@@I@Z 00426740 f i settings_ui.obj
 0001:00025740       ?allocate@?$allocator@PAVIAlternativeHostInfo@ZOOMSDK@@@std@@QAEPAPAVIAlternativeHostInfo@ZOOMSDK@@I@Z 00426740 f i schedule_meeting_ui.obj
 0001:00025740       ?allocate@?$allocator@PAVIUserInfo@ZOOMSDK@@@std@@QAEPAPAVIUserInfo@ZOOMSDK@@I@Z 00426740 f i user_manager.obj
 0001:00025770       ?capacity@?$vector@PAVIInterpreterInfo@ZOOMSDK@@V?$allocator@PAVIInterpreterInfo@ZOOMSDK@@@std@@@std@@QBEIXZ 00426770 f i schedule_meeting_ui.obj
 0001:00025770       ?capacity@?$vector@PAVIUserInfo@ZOOMSDK@@V?$allocator@PAVIUserInfo@ZOOMSDK@@@std@@@std@@QBEIXZ 00426770 f i user_manager.obj
 0001:00025770       ?capacity@?$vector@PAVIVirtualBGImageInfo@ZOOMSDK@@V?$allocator@PAVIVirtualBGImageInfo@ZOOMSDK@@@std@@@std@@QBEIXZ 00426770 f i settings_ui.obj
 0001:00025770       ?capacity@?$vector@PAVIAlternativeHostInfo@ZOOMSDK@@V?$allocator@PAVIAlternativeHostInfo@ZOOMSDK@@@std@@@std@@QBEIXZ 00426770 f i schedule_meeting_ui.obj
 0001:000257a0       ?deallocate@?$allocator@PAVIUserInfo@ZOOMSDK@@@std@@QAEXQAPAVIUserInfo@ZOOMSDK@@I@Z 004267a0 f i user_manager.obj
 0001:000257a0       ?deallocate@?$allocator@PAVIAlternativeHostInfo@ZOOMSDK@@@std@@QAEXQAPAVIAlternativeHostInfo@ZOOMSDK@@I@Z 004267a0 f i schedule_meeting_ui.obj
 0001:000257a0       ?deallocate@?$allocator@PAVIInterpreterInfo@ZOOMSDK@@@std@@QAEXQAPAVIInterpreterInfo@ZOOMSDK@@I@Z 004267a0 f i schedule_meeting_ui.obj
 0001:000257a0       ?deallocate@?$allocator@PAVIVirtualBGImageInfo@ZOOMSDK@@@std@@QAEXQAPAVIVirtualBGImageInfo@ZOOMSDK@@I@Z 004267a0 f i settings_ui.obj
 0001:000257c0       ?eof@?$_WChar_traits@_W@std@@SAGXZ 004267c0 f i schedule_meeting_ui.obj
 0001:000257d0       ?eq@?$_WChar_traits@_W@std@@SA_NAB_W0@Z 004267d0 f i schedule_meeting_ui.obj
 0001:000257d0       ?eq_int_type@?$_WChar_traits@_W@std@@SA_NABG0@Z 004267d0 f i schedule_meeting_ui.obj
 0001:00025800       ?erase@?$basic_string@_WU?$char_traits@_W@std@@V?$allocator@_W@2@@std@@QAEAAV12@I@Z 00426800 f i schedule_meeting_ui.obj
 0001:00025830       ?insert@?$basic_string@_WU?$char_traits@_W@std@@V?$allocator@_W@2@@std@@QAEAAV12@IQB_W@Z 00426830 f i schedule_meeting_ui.obj
 0001:00025870       ?insert@?$basic_string@_WU?$char_traits@_W@std@@V?$allocator@_W@2@@std@@QAEAAV12@IQB_WI@Z 00426870 f i schedule_meeting_ui.obj
 0001:00025990       ?max_size@?$_Default_allocator_traits@V?$allocator@PAVIVirtualBGImageInfo@ZOOMSDK@@@std@@@std@@SAIABV?$allocator@PAVIVirtualBGImageInfo@ZOOMSDK@@@2@@Z 00426990 f i settings_ui.obj
 0001:00025990       ?max_size@?$_Default_allocator_traits@V?$allocator@PAVIUserInfo@ZOOMSDK@@@std@@@std@@SAIABV?$allocator@PAVIUserInfo@ZOOMSDK@@@2@@Z 00426990 f i user_manager.obj
 0001:00025990       ?max_size@?$_Default_allocator_traits@V?$allocator@PAVIAlternativeHostInfo@ZOOMSDK@@@std@@@std@@SAIABV?$allocator@PAVIAlternativeHostInfo@ZOOMSDK@@@2@@Z 00426990 f i schedule_meeting_ui.obj
 0001:00025990       ?max_size@?$_Default_allocator_traits@V?$allocator@PAVIInterpreterInfo@ZOOMSDK@@@std@@@std@@SAIABV?$allocator@PAVIInterpreterInfo@ZOOMSDK@@@2@@Z 00426990 f i schedule_meeting_ui.obj
 0001:000259a0       ?max_size@?$vector@PAVIUserInfo@ZOOMSDK@@V?$allocator@PAVIUserInfo@ZOOMSDK@@@std@@@std@@QBEIXZ 004269a0 f i user_manager.obj
 0001:000259a0       ?max_size@?$vector@PAVIVirtualBGImageInfo@ZOOMSDK@@V?$allocator@PAVIVirtualBGImageInfo@ZOOMSDK@@@std@@@std@@QBEIXZ 004269a0 f i settings_ui.obj
 0001:000259a0       ?max_size@?$vector@PAVIInterpreterInfo@ZOOMSDK@@V?$allocator@PAVIInterpreterInfo@ZOOMSDK@@@std@@@std@@QBEIXZ 004269a0 f i schedule_meeting_ui.obj
 0001:000259a0       ?max_size@?$vector@PAVIAlternativeHostInfo@ZOOMSDK@@V?$allocator@PAVIAlternativeHostInfo@ZOOMSDK@@@std@@@std@@QBEIXZ 004269a0 f i schedule_meeting_ui.obj
 0001:000259e0       ?not_eof@?$_WChar_traits@_W@std@@SAGABG@Z 004269e0 f i schedule_meeting_ui.obj
 0001:00025a40       ?onDeleteMeeting@CSDKSheduleMeetingUIGroup@@UAEXW4PremeetingAPIResult@ZOOMSDK@@@Z 00426a40 f   schedule_meeting_ui.obj
 0001:00025af0       ?onGetInviteEmailContent@CSDKSheduleMeetingUIGroup@@UAEXW4PremeetingAPIResult@ZOOMSDK@@_KPB_W@Z 00426af0 f   schedule_meeting_ui.obj
 0001:00025cb0       ?onListMeeting@CSDKSheduleMeetingUIGroup@@UAEXW4PremeetingAPIResult@ZOOMSDK@@PAV?$IList@_K@3@@Z 00426cb0 f   schedule_meeting_ui.obj
 0001:00025ff0       ?onScheduleOrEditMeeting@CSDKSheduleMeetingUIGroup@@UAEXW4PremeetingAPIResult@ZOOMSDK@@_K@Z 00426ff0 f   schedule_meeting_ui.obj
 0001:00026400       ?overflow@?$basic_stringbuf@_WU?$char_traits@_W@std@@V?$allocator@_W@2@@std@@MAEGG@Z 00427400 f i schedule_meeting_ui.obj
 0001:00026610       ?pbackfail@?$basic_stringbuf@_WU?$char_traits@_W@std@@V?$allocator@_W@2@@std@@MAEGG@Z 00427610 f i schedule_meeting_ui.obj
 0001:00026700       ?pointer_to@?$pointer_traits@PAU?$pair@$$CBHW4bkItemType@@@std@@@std@@SAPAU?$pair@$$CBHW4bkItemType@@@2@AAU32@@Z 00427700 f i settings_ui.obj
 0001:00026700       ?pointer_to@?$pointer_traits@PA_W@std@@SAPA_WAA_W@Z 00427700 f i schedule_meeting_ui.obj
 0001:00026720       ?push_back@?$basic_string@_WU?$char_traits@_W@std@@V?$allocator@_W@2@@std@@QAEX_W@Z 00427720 f i schedule_meeting_ui.obj
 0001:000267b0       ?push_back@?$vector@PAVIUserInfo@ZOOMSDK@@V?$allocator@PAVIUserInfo@ZOOMSDK@@@std@@@std@@QAEXABQAVIUserInfo@ZOOMSDK@@@Z 004277b0 f i user_manager.obj
 0001:000267b0       ?push_back@?$vector@PAVIAlternativeHostInfo@ZOOMSDK@@V?$allocator@PAVIAlternativeHostInfo@ZOOMSDK@@@std@@@std@@QAEXABQAVIAlternativeHostInfo@ZOOMSDK@@@Z 004277b0 f i schedule_meeting_ui.obj
 0001:000267b0       ?push_back@?$vector@PAVIInterpreterInfo@ZOOMSDK@@V?$allocator@PAVIInterpreterInfo@ZOOMSDK@@@std@@@std@@QAEXABQAVIInterpreterInfo@ZOOMSDK@@@Z 004277b0 f i schedule_meeting_ui.obj
 0001:000267b0       ?push_back@?$vector@PAVIVirtualBGImageInfo@ZOOMSDK@@V?$allocator@PAVIVirtualBGImageInfo@ZOOMSDK@@@std@@@std@@QAEXABQAVIVirtualBGImageInfo@ZOOMSDK@@@Z 004277b0 f i settings_ui.obj
 0001:000267d0       ?push_back@?$vector@V?$basic_string@_WU?$char_traits@_W@std@@V?$allocator@_W@2@@std@@V?$allocator@V?$basic_string@_WU?$char_traits@_W@std@@V?$allocator@_W@2@@std@@@2@@std@@QAEXABV?$basic_string@_WU?$char_traits@_W@std@@V?$allocator@_W@2@@2@@Z 004277d0 f i schedule_meeting_ui.obj
 0001:000267f0       ?seekoff@?$basic_stringbuf@_WU?$char_traits@_W@std@@V?$allocator@_W@2@@std@@MAE?AV?$fpos@U_Mbstatet@@@2@_JHH@Z 004277f0 f i schedule_meeting_ui.obj
 0001:00026a00       ?seekpos@?$basic_stringbuf@_WU?$char_traits@_W@std@@V?$allocator@_W@2@@std@@MAE?AV?$fpos@U_Mbstatet@@@2@V32@H@Z 00427a00 f i schedule_meeting_ui.obj
 0001:00026b50       ?size@?$vector@PAVIUserInfo@ZOOMSDK@@V?$allocator@PAVIUserInfo@ZOOMSDK@@@std@@@std@@QBEIXZ 00427b50 f i user_manager.obj
 0001:00026b50       ?size@?$vector@PAVIVirtualBGImageInfo@ZOOMSDK@@V?$allocator@PAVIVirtualBGImageInfo@ZOOMSDK@@@std@@@std@@QBEIXZ 00427b50 f i settings_ui.obj
 0001:00026b50       ?size@?$vector@PAVIAlternativeHostInfo@ZOOMSDK@@V?$allocator@PAVIAlternativeHostInfo@ZOOMSDK@@@std@@@std@@QBEIXZ 00427b50 f i schedule_meeting_ui.obj
 0001:00026b50       ?size@?$vector@PAVIInterpreterInfo@ZOOMSDK@@V?$allocator@PAVIInterpreterInfo@ZOOMSDK@@@std@@@std@@QBEIXZ 00427b50 f i schedule_meeting_ui.obj
 0001:00026b80       ?str@?$basic_stringbuf@_WU?$char_traits@_W@std@@V?$allocator@_W@2@@std@@QAEXABV?$basic_string@_WU?$char_traits@_W@std@@V?$allocator@_W@2@@2@@Z 00427b80 f i schedule_meeting_ui.obj
 0001:00026bc0       ?str@?$basic_stringstream@_WU?$char_traits@_W@std@@V?$allocator@_W@2@@std@@QAEXABV?$basic_string@_WU?$char_traits@_W@std@@V?$allocator@_W@2@@2@@Z 00427bc0 f i schedule_meeting_ui.obj
 0001:00026be0       ?to_int_type@?$_WChar_traits@_W@std@@SAGAB_W@Z 00427be0 f i schedule_meeting_ui.obj
 0001:00026be0       ?to_char_type@?$_WChar_traits@_W@std@@SA_WABG@Z 00427be0 f i schedule_meeting_ui.obj
 0001:00026bf0       ?underflow@?$basic_stringbuf@_WU?$char_traits@_W@std@@V?$allocator@_W@2@@std@@MAEGXZ 00427bf0 f i schedule_meeting_ui.obj
 0001:00026cc0       __vswscanf_l               00427cc0 f i schedule_meeting_ui.obj
 0001:00026d10       _swscanf                   00427d10 f i schedule_meeting_ui.obj
 0001:00026d50       ??0CSDKSheduleMeetingUIWorkFlow@@QAE@XZ 00427d50 f   schedule_meeting_workflow.obj
 0001:00026da0       ??0IPreMeetingServiceEvent@ZOOMSDK@@QAE@XZ 00427da0 f i schedule_meeting_workflow.obj
 0001:00026dc0       ??1CSDKSheduleMeetingUIWorkFlow@@UAE@XZ 00427dc0 f   schedule_meeting_workflow.obj
 0001:00026e20       ??_GCSDKSheduleMeetingUIWorkFlow@@UAEPAXI@Z 00427e20 f i schedule_meeting_workflow.obj
 0001:00026e20       ??_ECSDKSheduleMeetingUIWorkFlow@@UAEPAXI@Z 00427e20 f i schedule_meeting_workflow.obj
 0001:00026e50       ?DeleteMeeting@CSDKSheduleMeetingUIWorkFlow@@QAE?AW4SDKError@ZOOMSDK@@_K@Z 00427e50 f   schedule_meeting_workflow.obj
 0001:00026e90       ?EditMeeting@CSDKSheduleMeetingUIWorkFlow@@QAE?AW4SDKError@ZOOMSDK@@XZ 00427e90 f   schedule_meeting_workflow.obj
 0001:00026ee0       ?GetEditMeetingItem@CSDKSheduleMeetingUIWorkFlow@@QAEPAVIScheduleMeetingItem@ZOOMSDK@@_K@Z 00427ee0 f   schedule_meeting_workflow.obj
 0001:00026f60       ?GetMeeingItem@CSDKSheduleMeetingUIWorkFlow@@QAEPAVIMeetingItemInfo@ZOOMSDK@@_K@Z 00427f60 f   schedule_meeting_workflow.obj
 0001:00026fa0       ?GetScheduleMeetingItem@CSDKSheduleMeetingUIWorkFlow@@QAEPAVIScheduleMeetingItem@ZOOMSDK@@XZ 00427fa0 f   schedule_meeting_workflow.obj
 0001:00027020       ?Init@CSDKSheduleMeetingUIWorkFlow@@QAE_NXZ 00428020 f   schedule_meeting_workflow.obj
 0001:000270a0       ?ListMeeting@CSDKSheduleMeetingUIWorkFlow@@QAE?AW4SDKError@ZOOMSDK@@XZ 004280a0 f   schedule_meeting_workflow.obj
 0001:000270e0       ?ScheduleMeeting@CSDKSheduleMeetingUIWorkFlow@@QAE?AW4SDKError@ZOOMSDK@@XZ 004280e0 f   schedule_meeting_workflow.obj
 0001:00027120       ?SetEvent@CSDKSheduleMeetingUIWorkFlow@@QAEXPAVCSDKSheduleMeetingUIEvent@@@Z 00428120 f   schedule_meeting_workflow.obj
 0001:00027120       ?SetTextCallback@CListUI@DuiLib@@UAEXPAVIListCallbackUI@2@@Z 00428120 f   DuiLib:UIList.obj
 0001:00027140       ?Uninit@CSDKSheduleMeetingUIWorkFlow@@QAE_NXZ 00428140 f   schedule_meeting_workflow.obj
 0001:000271d0       ?onDeleteMeeting@CSDKSheduleMeetingUIWorkFlow@@UAEXW4PremeetingAPIResult@ZOOMSDK@@@Z 004281d0 f   schedule_meeting_workflow.obj
 0001:00027200       ?onGetInviteEmailContent@CSDKSheduleMeetingUIWorkFlow@@UAEXW4PremeetingAPIResult@ZOOMSDK@@_KPB_W@Z 00428200 f   schedule_meeting_workflow.obj
 0001:00027240       ?onListMeeting@CSDKSheduleMeetingUIWorkFlow@@UAEXW4PremeetingAPIResult@ZOOMSDK@@PAV?$IList@_K@3@@Z 00428240 f   schedule_meeting_workflow.obj
 0001:00027270       ?onScheduleOrEditMeeting@CSDKSheduleMeetingUIWorkFlow@@UAEXW4PremeetingAPIResult@ZOOMSDK@@_K@Z 00428270 f   schedule_meeting_workflow.obj
 0001:000272b0       ??0CSDKDemoApp@@QAE@XZ     004282b0 f   sdk_demo_app.obj
 0001:00027320       ??0CSDKDemoAppEvent@@QAE@XZ 00428320 f i sdk_demo_app.obj
 0001:00027340       ??1CCustomizeInMeetingUIMgr@@QAE@XZ 00428340 f i sdk_demo_app.obj
 0001:00027370       ??1CSDKDemoApp@@UAE@XZ     00428370 f   sdk_demo_app.obj
 0001:00027530       ??_GCCustomizeInMeetingUIMgr@@QAEPAXI@Z 00428530 f i sdk_demo_app.obj
 0001:00027570       ??_ECSDKDemoApp@@UAEPAXI@Z 00428570 f i sdk_demo_app.obj
 0001:00027570       ??_GCSDKDemoApp@@UAEPAXI@Z 00428570 f i sdk_demo_app.obj
 0001:000275a0       ?ActivateCustomizedUI@CSDKDemoApp@@UAEXXZ 004285a0 f   sdk_demo_app.obj
 0001:000275c0       ?InitCustomizedUI@CSDKDemoApp@@UAEXXZ 004285c0 f   sdk_demo_app.obj
 0001:000276a0       ?Run@CSDKDemoApp@@QAEXPAUHINSTANCE__@@@Z 004286a0 f   sdk_demo_app.obj
 0001:00027840       ?Stop@CSDKDemoApp@@QAEXXZ  00428840 f   sdk_demo_app.obj
 0001:00027920       ?onJoinFailed@CSDKDemoApp@@UAEXXZ 00428920 f   sdk_demo_app.obj
 0001:00027970       ?onLoginFailed@CSDKDemoApp@@UAEXXZ 00428970 f   sdk_demo_app.obj
 0001:000279a0       ?onPageButtonClick@CSDKDemoApp@@UAEXW4ArrowButtonType@@@Z 004289a0 f   sdk_demo_app.obj
 0001:000279d0       ?onQuitApp@CSDKDemoApp@@UAEXXZ 004289d0 f   sdk_demo_app.obj
 0001:000279f0       ?onShowCameraControlWindow@CSDKDemoApp@@UAEXXZ 004289f0 f   sdk_demo_app.obj
 0001:00027a10       ?onShowChatWindow@CSDKDemoApp@@UAEXXZ 00428a10 f   sdk_demo_app.obj
 0001:00027a30       ?onShowGalleryViewWindow@CSDKDemoApp@@UAEXXZ 00428a30 f   sdk_demo_app.obj
 0001:00027a50       ?onShowLoggedInUI@CSDKDemoApp@@UAEXW4LoggedIn_MeetingUI_type@@@Z 00428a50 f   sdk_demo_app.obj
 0001:00027c20       ?onShowMoreMenuWindow@CSDKDemoApp@@UAEXHH@Z 00428c20 f   sdk_demo_app.obj
 0001:00027c50       ?onShowParticipantWindow@CSDKDemoApp@@UAEXXZ 00428c50 f   sdk_demo_app.obj
 0001:00027c70       ?onShowSettingsUI@CSDKDemoApp@@UAEXW4SettingsUI_page@@@Z 00428c70 f   sdk_demo_app.obj
 0001:00027d70       ?onShowShareWindow@CSDKDemoApp@@UAEXXZ 00428d70 f   sdk_demo_app.obj
 0001:00027d90       ?onSwitchToJoinMeetingForLoginUserUI@CSDKDemoApp@@UAEXXZ 00428d90 f   sdk_demo_app.obj
 0001:00027ea0       ?onSwitchToLoginUI@CSDKDemoApp@@UAEXW4SwitchToLoginUIType@@@Z 00428ea0 f   sdk_demo_app.obj
 0001:000280a0       ?onSwitchToScheduleMeetingUI@CSDKDemoApp@@UAEXXZ 004290a0 f   sdk_demo_app.obj
 0001:000281b0       _WinMain@16                004291b0 f   sdk_demo_v2.obj
 0001:00028230       ??0CAuthSDKUIGroup@@QAE@XZ 00429230 f   sdk_init_auth_ui.obj
 0001:000282d0       ??0CAuthSDKWorkFlowUIEvent@@QAE@XZ 004292d0 f i sdk_init_auth_ui.obj
 0001:000282f0       ??0CInitSDKUIGroup@@QAE@XZ 004292f0 f   sdk_init_auth_ui.obj
 0001:00028350       ??0CInitSDKWorkFlowUIEvent@@QAE@XZ 00429350 f i sdk_init_auth_ui.obj
 0001:00028370       ??0CSDKInitAuthUIMgr@@QAE@XZ 00429370 f   sdk_init_auth_ui.obj
 0001:00028430       ??0tagAuthContext@ZOOMSDK@@QAE@XZ 00429430 f i sdk_init_auth_ui.obj
 0001:00028450       ??0tagConfigurableOptions@ZOOMSDK@@QAE@XZ 00429450 f i sdk_init_auth_ui.obj
 0001:00028480       ??0tagInitParam@ZOOMSDK@@QAE@XZ 00429480 f i sdk_init_auth_ui.obj
 0001:00028520       ??0tagRawDataOptions@ZOOMSDK@@QAE@XZ 00429520 f i sdk_init_auth_ui.obj
 0001:00028560       ??0tagZoomSDKRenderOptions@ZOOMSDK@@QAE@XZ 00429560 f i sdk_init_auth_ui.obj
 0001:00028590       ??1CAuthSDKUIGroup@@UAE@XZ 00429590 f   sdk_init_auth_ui.obj
 0001:00028600       ??1CInitSDKUIGroup@@UAE@XZ 00429600 f   sdk_init_auth_ui.obj
 0001:00028660       ??1CSDKInitAuthUIMgr@@UAE@XZ 00429660 f   sdk_init_auth_ui.obj
 0001:000286d0       ??_ECAuthSDKUIGroup@@UAEPAXI@Z 004296d0 f i sdk_init_auth_ui.obj
 0001:000286d0       ??_GCAuthSDKUIGroup@@UAEPAXI@Z 004296d0 f i sdk_init_auth_ui.obj
 0001:00028700       ??_ECInitSDKUIGroup@@UAEPAXI@Z 00429700 f i sdk_init_auth_ui.obj
 0001:00028700       ??_GCInitSDKUIGroup@@UAEPAXI@Z 00429700 f i sdk_init_auth_ui.obj
 0001:00028730       ??_ECSDKInitAuthUIMgr@@UAEPAXI@Z 00429730 f i sdk_init_auth_ui.obj
 0001:00028730       ??_GCSDKInitAuthUIMgr@@UAEPAXI@Z 00429730 f i sdk_init_auth_ui.obj
 0001:00028770       ?DoAuthBtnClick@CAuthSDKUIGroup@@QAEXXZ 00429770 f   sdk_init_auth_ui.obj
 0001:000288b0       ?DoInitBtnClick@CInitSDKUIGroup@@QAEXXZ 004298b0 f   sdk_init_auth_ui.obj
 0001:00028a70       ?GetAppEvent@CSDKInitAuthUIMgr@@QAEPAVCSDKDemoAppEvent@@XZ 00429a70 f   sdk_init_auth_ui.obj
 0001:00028a90       ?GetSkinRes@CSDKInitAuthUIMgr@@UAEIXZ 00429a90 f i sdk_init_auth_ui.obj
 0001:00028aa0       ?HandleMessage@CSDKInitAuthUIMgr@@UAEJIIJ@Z 00429aa0 f   sdk_init_auth_ui.obj
 0001:00028ca0       ?InitWindow@CAuthSDKUIGroup@@QAEXAAVCPaintManagerUI@DuiLib@@PAVCSDKInitAuthUIMgr@@@Z 00429ca0 f   sdk_init_auth_ui.obj
 0001:00028d00       ?InitWindow@CInitSDKUIGroup@@QAEXAAVCPaintManagerUI@DuiLib@@PAVCSDKInitAuthUIMgr@@@Z 00429d00 f   sdk_init_auth_ui.obj
 0001:00028d80       ?InitWindow@CSDKInitAuthUIMgr@@UAEXXZ 00429d80 f   sdk_init_auth_ui.obj
 0001:00028f50       ?Notify@CAuthSDKUIGroup@@QAEXAAUtagTNotifyUI@DuiLib@@@Z 00429f50 f   sdk_init_auth_ui.obj
 0001:00028f90       ?Notify@CInitSDKUIGroup@@QAEXAAUtagTNotifyUI@DuiLib@@@Z 00429f90 f   sdk_init_auth_ui.obj
 0001:00028fd0       ?Notify@CSDKInitAuthUIMgr@@UAEXAAUtagTNotifyUI@DuiLib@@@Z 00429fd0 f   sdk_init_auth_ui.obj
 0001:00029010       ?OnClose@CSDKInitAuthUIMgr@@QAEJIIJAAH@Z 0042a010 f   sdk_init_auth_ui.obj
 0001:00029050       ?OnDestroy@CSDKInitAuthUIMgr@@QAEJIIJAAH@Z 0042a050 f   sdk_init_auth_ui.obj
 0001:00029080       ?SetCurrentPage@CSDKInitAuthUIMgr@@QAEXPAVCVerticalLayoutUI@DuiLib@@@Z 0042a080 f i sdk_init_auth_ui.obj
 0001:000290a0       ?SetEvent@CSDKInitAuthUIMgr@@QAEXPAVCSDKDemoAppEvent@@@Z 0042a0a0 f   sdk_init_auth_ui.obj
 0001:000290c0       ?Show@CAuthSDKUIGroup@@QAEXXZ 0042a0c0 f   sdk_init_auth_ui.obj
 0001:00029110       ?Show@CInitSDKUIGroup@@QAEXXZ 0042a110 f   sdk_init_auth_ui.obj
 0001:00029160       ?ShowErrorMessage@CSDKInitAuthUIMgr@@QAEXPB_W@Z 0042a160 f   sdk_init_auth_ui.obj
 0001:00029190       ?SwitchToAuthPage@CSDKInitAuthUIMgr@@QAEX_N@Z 0042a190 f   sdk_init_auth_ui.obj
 0001:000291c0       ?SwitchToWaitingPage@CSDKInitAuthUIMgr@@QAEXPB_W_N@Z 0042a1c0 f   sdk_init_auth_ui.obj
 0001:000292b0       ?UninitWindow@CAuthSDKUIGroup@@QAEXXZ 0042a2b0 f   sdk_init_auth_ui.obj
 0001:000292e0       ?UninitWindow@CInitSDKUIGroup@@QAEXXZ 0042a2e0 f   sdk_init_auth_ui.obj
 0001:00029310       ?onSDKAuthed@CAuthSDKUIGroup@@UAEXW4AuthResult@ZOOMSDK@@@Z 0042a310 f   sdk_init_auth_ui.obj
 0001:00029390       ?onSDKInited@CInitSDKUIGroup@@UAEXW4SDKError@ZOOMSDK@@@Z 0042a390 f   sdk_init_auth_ui.obj
 0001:00029440       ??$?0IAAPAVIUserInfo@ZOOMSDK@@$0A@@?$pair@IPAVIUserInfo@ZOOMSDK@@@std@@QAE@$$QAIAAPAVIUserInfo@ZOOMSDK@@@Z 0042a440 f i user_manager.obj
 0001:00029440       ??$?0AAPAU?$_Tree_node@PAVIMeetingChatCtrlEvent@ZOOMSDK@@PAX@std@@AAPAU01@$0A@@?$pair@PAU?$_Tree_node@PAVIMeetingChatCtrlEvent@ZOOMSDK@@PAX@std@@PAU12@@std@@QAE@AAPAU?$_Tree_node@PAVIMeetingChatCtrlEvent@ZOOMSDK@@PAX@1@0@Z 0042a440 f i sdk_util.obj
 0001:00029440       ??$?0AAPAU?$_Tree_node@PAVIMeetingServiceEvent@ZOOMSDK@@PAX@std@@AAPAU01@$0A@@?$pair@PAU?$_Tree_node@PAVIMeetingServiceEvent@ZOOMSDK@@PAX@std@@PAU12@@std@@QAE@AAPAU?$_Tree_node@PAVIMeetingServiceEvent@ZOOMSDK@@PAX@1@0@Z 0042a440 f i sdk_util.obj
 0001:00029440       ??$?0AAPAU?$_Tree_node@PAVIMeetingParticipantsCtrlEvent@ZOOMSDK@@PAX@std@@AAPAU01@$0A@@?$pair@PAU?$_Tree_node@PAVIMeetingParticipantsCtrlEvent@ZOOMSDK@@PAX@std@@PAU12@@std@@QAE@AAPAU?$_Tree_node@PAVIMeetingParticipantsCtrlEvent@ZOOMSDK@@PAX@1@0@Z 0042a440 f i sdk_util.obj
 0001:00029440       ??$?0IAAW4bkItemType@@$0A@@?$pair@HW4bkItemType@@@std@@QAE@$$QAIAAW4bkItemType@@@Z 0042a440 f i settings_ui.obj
 0001:00029440       ??$?0AAPAU?$_Tree_node@PAVIClosedCaptionControllerEvent@ZOOMSDK@@PAX@std@@AAPAU01@$0A@@?$pair@PAU?$_Tree_node@PAVIClosedCaptionControllerEvent@ZOOMSDK@@PAX@std@@PAU12@@std@@QAE@AAPAU?$_Tree_node@PAVIClosedCaptionControllerEvent@ZOOMSDK@@PAX@1@0@Z 0042a440 f i sdk_util.obj
 0001:00029440       ??$?0AAPAU?$_Tree_node@PAVIAuthServiceEvent@ZOOMSDK@@PAX@std@@AAPAU01@$0A@@?$pair@PAU?$_Tree_node@PAVIAuthServiceEvent@ZOOMSDK@@PAX@std@@PAU12@@std@@QAE@AAPAU?$_Tree_node@PAVIAuthServiceEvent@ZOOMSDK@@PAX@1@0@Z 0042a440 f i sdk_util.obj
 0001:00029440       ??$?0AAPAU?$_Tree_node@PAVISDKInMeetingServiceMgrEvent@@PAX@std@@AAPAU01@$0A@@?$pair@PAU?$_Tree_node@PAVISDKInMeetingServiceMgrEvent@@PAX@std@@PAU12@@std@@QAE@AAPAU?$_Tree_node@PAVISDKInMeetingServiceMgrEvent@@PAX@1@0@Z 0042a440 f i sdk_util.obj
 0001:00029440       ??$?0AAPAU?$_Tree_node@PAVIPreMeetingServiceEvent@ZOOMSDK@@PAX@std@@AAPAU01@$0A@@?$pair@PAU?$_Tree_node@PAVIPreMeetingServiceEvent@ZOOMSDK@@PAX@std@@PAU12@@std@@QAE@AAPAU?$_Tree_node@PAVIPreMeetingServiceEvent@ZOOMSDK@@PAX@1@0@Z 0042a440 f i sdk_util.obj
 0001:00029480       ??$?0PAU?$_Tree_node@PAVIMeetingChatCtrlEvent@ZOOMSDK@@PAX@std@@_N$0A@@?$pair@PAU?$_Tree_node@PAVIMeetingChatCtrlEvent@ZOOMSDK@@PAX@std@@_N@std@@QAE@$$QAPAU?$_Tree_node@PAVIMeetingChatCtrlEvent@ZOOMSDK@@PAX@1@$$QA_N@Z 0042a480 f i sdk_util.obj
 0001:00029480       ??$?0PAU?$_Tree_node@PAVIAuthServiceEvent@ZOOMSDK@@PAX@std@@_N$0A@@?$pair@PAU?$_Tree_node@PAVIAuthServiceEvent@ZOOMSDK@@PAX@std@@_N@std@@QAE@$$QAPAU?$_Tree_node@PAVIAuthServiceEvent@ZOOMSDK@@PAX@1@$$QA_N@Z 0042a480 f i sdk_util.obj
 0001:00029480       ??$?0AAPAU?$_Tree_node@U?$pair@$$CBHW4bkItemType@@@std@@PAX@std@@_N$0A@@?$pair@PAU?$_Tree_node@U?$pair@$$CBHW4bkItemType@@@std@@PAX@std@@_N@std@@QAE@AAPAU?$_Tree_node@U?$pair@$$CBHW4bkItemType@@@std@@PAX@1@$$QA_N@Z 0042a480 f i settings_ui.obj
 0001:00029480       ??$?0PAU?$_Tree_node@U?$pair@$$CBHW4bkItemType@@@std@@PAX@std@@_N$0A@@?$pair@PAU?$_Tree_node@U?$pair@$$CBHW4bkItemType@@@std@@PAX@std@@_N@std@@QAE@$$QAPAU?$_Tree_node@U?$pair@$$CBHW4bkItemType@@@std@@PAX@1@$$QA_N@Z 0042a480 f i settings_ui.obj
 0001:00029480       ??$?0AAPAU?$_Tree_node@PAVISDKInMeetingServiceMgrEvent@@PAX@std@@_N$0A@@?$pair@PAU?$_Tree_node@PAVISDKInMeetingServiceMgrEvent@@PAX@std@@_N@std@@QAE@AAPAU?$_Tree_node@PAVISDKInMeetingServiceMgrEvent@@PAX@1@$$QA_N@Z 0042a480 f i sdk_util.obj
 0001:00029480       ??$?0PAU?$_Tree_node@PAVIClosedCaptionControllerEvent@ZOOMSDK@@PAX@std@@_N$0A@@?$pair@PAU?$_Tree_node@PAVIClosedCaptionControllerEvent@ZOOMSDK@@PAX@std@@_N@std@@QAE@$$QAPAU?$_Tree_node@PAVIClosedCaptionControllerEvent@ZOOMSDK@@PAX@1@$$QA_N@Z 0042a480 f i sdk_util.obj
 0001:00029480       ??$?0AAPAU?$_Tree_node@PAVIMeetingParticipantsCtrlEvent@ZOOMSDK@@PAX@std@@_N$0A@@?$pair@PAU?$_Tree_node@PAVIMeetingParticipantsCtrlEvent@ZOOMSDK@@PAX@std@@_N@std@@QAE@AAPAU?$_Tree_node@PAVIMeetingParticipantsCtrlEvent@ZOOMSDK@@PAX@1@$$QA_N@Z 0042a480 f i sdk_util.obj
 0001:00029480       ??$?0PAU?$_Tree_node@PAVIPreMeetingServiceEvent@ZOOMSDK@@PAX@std@@_N$0A@@?$pair@PAU?$_Tree_node@PAVIPreMeetingServiceEvent@ZOOMSDK@@PAX@std@@_N@std@@QAE@$$QAPAU?$_Tree_node@PAVIPreMeetingServiceEvent@ZOOMSDK@@PAX@1@$$QA_N@Z 0042a480 f i sdk_util.obj
 0001:00029480       ??$?0ABQAU?$_Tree_node@U?$pair@$$CBIPAVIUserInfo@ZOOMSDK@@@std@@PAX@std@@_N$0A@@?$pair@PAU?$_Tree_node@U?$pair@$$CBIPAVIUserInfo@ZOOMSDK@@@std@@PAX@std@@_N@std@@QAE@ABQAU?$_Tree_node@U?$pair@$$CBIPAVIUserInfo@ZOOMSDK@@@std@@PAX@1@$$QA_N@Z 0042a480 f i user_manager.obj
 0001:00029480       ??$?0AAPAU?$_Tree_node@U?$pair@$$CBIPAVIUserInfo@ZOOMSDK@@@std@@PAX@std@@_N$0A@@?$pair@PAU?$_Tree_node@U?$pair@$$CBIPAVIUserInfo@ZOOMSDK@@@std@@PAX@std@@_N@std@@QAE@AAPAU?$_Tree_node@U?$pair@$$CBIPAVIUserInfo@ZOOMSDK@@@std@@PAX@1@$$QA_N@Z 0042a480 f i user_manager.obj
 0001:00029480       ??$?0PAU?$_Tree_node@PAVIMeetingParticipantsCtrlEvent@ZOOMSDK@@PAX@std@@_N$0A@@?$pair@PAU?$_Tree_node@PAVIMeetingParticipantsCtrlEvent@ZOOMSDK@@PAX@std@@_N@std@@QAE@$$QAPAU?$_Tree_node@PAVIMeetingParticipantsCtrlEvent@ZOOMSDK@@PAX@1@$$QA_N@Z 0042a480 f i sdk_util.obj
 0001:00029480       ??$?0AAPAU?$_Tree_node@PAVIPreMeetingServiceEvent@ZOOMSDK@@PAX@std@@_N$0A@@?$pair@PAU?$_Tree_node@PAVIPreMeetingServiceEvent@ZOOMSDK@@PAX@std@@_N@std@@QAE@AAPAU?$_Tree_node@PAVIPreMeetingServiceEvent@ZOOMSDK@@PAX@1@$$QA_N@Z 0042a480 f i sdk_util.obj
 0001:00029480       ??$?0PAU?$_Tree_node@U?$pair@$$CBIPAVIUserInfo@ZOOMSDK@@@std@@PAX@std@@_N$0A@@?$pair@PAU?$_Tree_node@U?$pair@$$CBIPAVIUserInfo@ZOOMSDK@@@std@@PAX@std@@_N@std@@QAE@$$QAPAU?$_Tree_node@U?$pair@$$CBIPAVIUserInfo@ZOOMSDK@@@std@@PAX@1@$$QA_N@Z 0042a480 f i user_manager.obj
 0001:00029480       ??$?0AAPAU?$_Tree_node@PAVIMeetingServiceEvent@ZOOMSDK@@PAX@std@@_N$0A@@?$pair@PAU?$_Tree_node@PAVIMeetingServiceEvent@ZOOMSDK@@PAX@std@@_N@std@@QAE@AAPAU?$_Tree_node@PAVIMeetingServiceEvent@ZOOMSDK@@PAX@1@$$QA_N@Z 0042a480 f i sdk_util.obj
 0001:00029480       ??$?0AAPAU?$_Tree_node@PAVIClosedCaptionControllerEvent@ZOOMSDK@@PAX@std@@_N$0A@@?$pair@PAU?$_Tree_node@PAVIClosedCaptionControllerEvent@ZOOMSDK@@PAX@std@@_N@std@@QAE@AAPAU?$_Tree_node@PAVIClosedCaptionControllerEvent@ZOOMSDK@@PAX@1@$$QA_N@Z 0042a480 f i sdk_util.obj
 0001:00029480       ??$?0AAPAU?$_Tree_node@PAVIMeetingChatCtrlEvent@ZOOMSDK@@PAX@std@@_N$0A@@?$pair@PAU?$_Tree_node@PAVIMeetingChatCtrlEvent@ZOOMSDK@@PAX@std@@_N@std@@QAE@AAPAU?$_Tree_node@PAVIMeetingChatCtrlEvent@ZOOMSDK@@PAX@1@$$QA_N@Z 0042a480 f i sdk_util.obj
 0001:00029480       ??$?0PAU?$_Tree_node@PAVISDKInMeetingServiceMgrEvent@@PAX@std@@_N$0A@@?$pair@PAU?$_Tree_node@PAVISDKInMeetingServiceMgrEvent@@PAX@std@@_N@std@@QAE@$$QAPAU?$_Tree_node@PAVISDKInMeetingServiceMgrEvent@@PAX@1@$$QA_N@Z 0042a480 f i sdk_util.obj
 0001:00029480       ??$?0PAU?$_Tree_node@PAVIMeetingServiceEvent@ZOOMSDK@@PAX@std@@_N$0A@@?$pair@PAU?$_Tree_node@PAVIMeetingServiceEvent@ZOOMSDK@@PAX@std@@_N@std@@QAE@$$QAPAU?$_Tree_node@PAVIMeetingServiceEvent@ZOOMSDK@@PAX@1@$$QA_N@Z 0042a480 f i sdk_util.obj
 0001:00029480       ??$?0AAPAU?$_Tree_node@PAVIMeetingVideoCtrlEvent@ZOOMSDK@@PAX@std@@_N$0A@@?$pair@PAU?$_Tree_node@PAVIMeetingVideoCtrlEvent@ZOOMSDK@@PAX@std@@_N@std@@QAE@AAPAU?$_Tree_node@PAVIMeetingVideoCtrlEvent@ZOOMSDK@@PAX@1@$$QA_N@Z 0042a480 f i sdk_util.obj
 0001:00029480       ??$?0PAU?$_Tree_node@PAVIMeetingVideoCtrlEvent@ZOOMSDK@@PAX@std@@_N$0A@@?$pair@PAU?$_Tree_node@PAVIMeetingVideoCtrlEvent@ZOOMSDK@@PAX@std@@_N@std@@QAE@$$QAPAU?$_Tree_node@PAVIMeetingVideoCtrlEvent@ZOOMSDK@@PAX@1@$$QA_N@Z 0042a480 f i sdk_util.obj
 0001:00029480       ??$?0AAPAU?$_Tree_node@PAVIAuthServiceEvent@ZOOMSDK@@PAX@std@@_N$0A@@?$pair@PAU?$_Tree_node@PAVIAuthServiceEvent@ZOOMSDK@@PAX@std@@_N@std@@QAE@AAPAU?$_Tree_node@PAVIAuthServiceEvent@ZOOMSDK@@PAX@1@$$QA_N@Z 0042a480 f i sdk_util.obj
 0001:000294c0       ??$?0ABQAVIAuthServiceEvent@ZOOMSDK@@@?$_Tree_temp_node@V?$allocator@U?$_Tree_node@PAVIAuthServiceEvent@ZOOMSDK@@PAX@std@@@std@@@std@@QAE@AAV?$allocator@U?$_Tree_node@PAVIAuthServiceEvent@ZOOMSDK@@PAX@std@@@1@PAU?$_Tree_node@PAVIAuthServiceEvent@ZOOMSDK@@PAX@1@ABQAVIAuthServiceEvent@ZOOMSDK@@@Z 0042a4c0 f i sdk_util.obj
 0001:000294c0       ??$?0ABQAVIMeetingVideoCtrlEvent@ZOOMSDK@@@?$_Tree_temp_node@V?$allocator@U?$_Tree_node@PAVIMeetingVideoCtrlEvent@ZOOMSDK@@PAX@std@@@std@@@std@@QAE@AAV?$allocator@U?$_Tree_node@PAVIMeetingVideoCtrlEvent@ZOOMSDK@@PAX@std@@@1@PAU?$_Tree_node@PAVIMeetingVideoCtrlEvent@ZOOMSDK@@PAX@1@ABQAVIMeetingVideoCtrlEvent@ZOOMSDK@@@Z 0042a4c0 f i sdk_util.obj
 0001:000294c0       ??$?0ABQAVIMeetingChatCtrlEvent@ZOOMSDK@@@?$_Tree_temp_node@V?$allocator@U?$_Tree_node@PAVIMeetingChatCtrlEvent@ZOOMSDK@@PAX@std@@@std@@@std@@QAE@AAV?$allocator@U?$_Tree_node@PAVIMeetingChatCtrlEvent@ZOOMSDK@@PAX@std@@@1@PAU?$_Tree_node@PAVIMeetingChatCtrlEvent@ZOOMSDK@@PAX@1@ABQAVIMeetingChatCtrlEvent@ZOOMSDK@@@Z 0042a4c0 f i sdk_util.obj
 0001:000294c0       ??$?0ABQAVIMeetingServiceEvent@ZOOMSDK@@@?$_Tree_temp_node@V?$allocator@U?$_Tree_node@PAVIMeetingServiceEvent@ZOOMSDK@@PAX@std@@@std@@@std@@QAE@AAV?$allocator@U?$_Tree_node@PAVIMeetingServiceEvent@ZOOMSDK@@PAX@std@@@1@PAU?$_Tree_node@PAVIMeetingServiceEvent@ZOOMSDK@@PAX@1@ABQAVIMeetingServiceEvent@ZOOMSDK@@@Z 0042a4c0 f i sdk_util.obj
 0001:000294c0       ??$?0ABQAVIMeetingParticipantsCtrlEvent@ZOOMSDK@@@?$_Tree_temp_node@V?$allocator@U?$_Tree_node@PAVIMeetingParticipantsCtrlEvent@ZOOMSDK@@PAX@std@@@std@@@std@@QAE@AAV?$allocator@U?$_Tree_node@PAVIMeetingParticipantsCtrlEvent@ZOOMSDK@@PAX@std@@@1@PAU?$_Tree_node@PAVIMeetingParticipantsCtrlEvent@ZOOMSDK@@PAX@1@ABQAVIMeetingParticipantsCtrlEvent@ZOOMSDK@@@Z 0042a4c0 f i sdk_util.obj
 0001:000294c0       ??$?0ABQAVISDKInMeetingServiceMgrEvent@@@?$_Tree_temp_node@V?$allocator@U?$_Tree_node@PAVISDKInMeetingServiceMgrEvent@@PAX@std@@@std@@@std@@QAE@AAV?$allocator@U?$_Tree_node@PAVISDKInMeetingServiceMgrEvent@@PAX@std@@@1@PAU?$_Tree_node@PAVISDKInMeetingServiceMgrEvent@@PAX@1@ABQAVISDKInMeetingServiceMgrEvent@@@Z 0042a4c0 f i sdk_util.obj
 0001:000294c0       ??$?0ABQAVIClosedCaptionControllerEvent@ZOOMSDK@@@?$_Tree_temp_node@V?$allocator@U?$_Tree_node@PAVIClosedCaptionControllerEvent@ZOOMSDK@@PAX@std@@@std@@@std@@QAE@AAV?$allocator@U?$_Tree_node@PAVIClosedCaptionControllerEvent@ZOOMSDK@@PAX@std@@@1@PAU?$_Tree_node@PAVIClosedCaptionControllerEvent@ZOOMSDK@@PAX@1@ABQAVIClosedCaptionControllerEvent@ZOOMSDK@@@Z 0042a4c0 f i sdk_util.obj
 0001:000294c0       ??$?0ABQAVIPreMeetingServiceEvent@ZOOMSDK@@@?$_Tree_temp_node@V?$allocator@U?$_Tree_node@PAVIPreMeetingServiceEvent@ZOOMSDK@@PAX@std@@@std@@@std@@QAE@AAV?$allocator@U?$_Tree_node@PAVIPreMeetingServiceEvent@ZOOMSDK@@PAX@std@@@1@PAU?$_Tree_node@PAVIPreMeetingServiceEvent@ZOOMSDK@@PAX@1@ABQAVIPreMeetingServiceEvent@ZOOMSDK@@@Z 0042a4c0 f i sdk_util.obj
 0001:000295a0       ??$?0ABU?$less@PAVIMeetingVideoCtrlEvent@ZOOMSDK@@@std@@U_Zero_then_variadic_args_t@1@@?$_Compressed_pair@U?$less@PAVIMeetingVideoCtrlEvent@ZOOMSDK@@@std@@V?$_Compressed_pair@V?$allocator@U?$_Tree_node@PAVIMeetingVideoCtrlEvent@ZOOMSDK@@PAX@std@@@std@@V?$_Tree_val@U?$_Tree_simple_types@PAVIMeetingVideoCtrlEvent@ZOOMSDK@@@std@@@2@$00@2@$00@std@@QAE@U_One_then_variadic_args_t@1@ABU?$less@PAVIMeetingVideoCtrlEvent@ZOOMSDK@@@1@$$QAU_Zero_then_variadic_args_t@1@@Z 0042a5a0 f i sdk_util.obj
 0001:000295a0       ??$?0ABU?$less@PAVIMeetingChatCtrlEvent@ZOOMSDK@@@std@@U_Zero_then_variadic_args_t@1@@?$_Compressed_pair@U?$less@PAVIMeetingChatCtrlEvent@ZOOMSDK@@@std@@V?$_Compressed_pair@V?$allocator@U?$_Tree_node@PAVIMeetingChatCtrlEvent@ZOOMSDK@@PAX@std@@@std@@V?$_Tree_val@U?$_Tree_simple_types@PAVIMeetingChatCtrlEvent@ZOOMSDK@@@std@@@2@$00@2@$00@std@@QAE@U_One_then_variadic_args_t@1@ABU?$less@PAVIMeetingChatCtrlEvent@ZOOMSDK@@@1@$$QAU_Zero_then_variadic_args_t@1@@Z 0042a5a0 f i sdk_util.obj
 0001:000295a0       ??$?0ABU?$less@H@std@@U_Zero_then_variadic_args_t@1@@?$_Compressed_pair@U?$less@H@std@@V?$_Compressed_pair@V?$allocator@U?$_Tree_node@U?$pair@$$CBHW4bkItemType@@@std@@PAX@std@@@std@@V?$_Tree_val@U?$_Tree_simple_types@U?$pair@$$CBHW4bkItemType@@@std@@@std@@@2@$00@2@$00@std@@QAE@U_One_then_variadic_args_t@1@ABU?$less@H@1@$$QAU_Zero_then_variadic_args_t@1@@Z 0042a5a0 f i settings_ui.obj
 0001:000295a0       ??$?0ABU?$less@PAVIClosedCaptionControllerEvent@ZOOMSDK@@@std@@U_Zero_then_variadic_args_t@1@@?$_Compressed_pair@U?$less@PAVIClosedCaptionControllerEvent@ZOOMSDK@@@std@@V?$_Compressed_pair@V?$allocator@U?$_Tree_node@PAVIClosedCaptionControllerEvent@ZOOMSDK@@PAX@std@@@std@@V?$_Tree_val@U?$_Tree_simple_types@PAVIClosedCaptionControllerEvent@ZOOMSDK@@@std@@@2@$00@2@$00@std@@QAE@U_One_then_variadic_args_t@1@ABU?$less@PAVIClosedCaptionControllerEvent@ZOOMSDK@@@1@$$QAU_Zero_then_variadic_args_t@1@@Z 0042a5a0 f i sdk_util.obj
 0001:000295a0       ??$?0ABU?$less@PAVIMeetingParticipantsCtrlEvent@ZOOMSDK@@@std@@U_Zero_then_variadic_args_t@1@@?$_Compressed_pair@U?$less@PAVIMeetingParticipantsCtrlEvent@ZOOMSDK@@@std@@V?$_Compressed_pair@V?$allocator@U?$_Tree_node@PAVIMeetingParticipantsCtrlEvent@ZOOMSDK@@PAX@std@@@std@@V?$_Tree_val@U?$_Tree_simple_types@PAVIMeetingParticipantsCtrlEvent@ZOOMSDK@@@std@@@2@$00@2@$00@std@@QAE@U_One_then_variadic_args_t@1@ABU?$less@PAVIMeetingParticipantsCtrlEvent@ZOOMSDK@@@1@$$QAU_Zero_then_variadic_args_t@1@@Z 0042a5a0 f i sdk_util.obj
 0001:000295a0       ??$?0ABU?$less@PAVIPreMeetingServiceEvent@ZOOMSDK@@@std@@U_Zero_then_variadic_args_t@1@@?$_Compressed_pair@U?$less@PAVIPreMeetingServiceEvent@ZOOMSDK@@@std@@V?$_Compressed_pair@V?$allocator@U?$_Tree_node@PAVIPreMeetingServiceEvent@ZOOMSDK@@PAX@std@@@std@@V?$_Tree_val@U?$_Tree_simple_types@PAVIPreMeetingServiceEvent@ZOOMSDK@@@std@@@2@$00@2@$00@std@@QAE@U_One_then_variadic_args_t@1@ABU?$less@PAVIPreMeetingServiceEvent@ZOOMSDK@@@1@$$QAU_Zero_then_variadic_args_t@1@@Z 0042a5a0 f i sdk_util.obj
 0001:000295a0       ??$?0ABU?$less@I@std@@U_Zero_then_variadic_args_t@1@@?$_Compressed_pair@U?$less@I@std@@V?$_Compressed_pair@V?$allocator@U?$_Tree_node@U?$pair@$$CBIPAVIUserInfo@ZOOMSDK@@@std@@PAX@std@@@std@@V?$_Tree_val@U?$_Tree_simple_types@U?$pair@$$CBIPAVIUserInfo@ZOOMSDK@@@std@@@std@@@2@$00@2@$00@std@@QAE@U_One_then_variadic_args_t@1@ABU?$less@I@1@$$QAU_Zero_then_variadic_args_t@1@@Z 0042a5a0 f i user_manager.obj
 0001:000295a0       ??$?0ABU?$less@PAVIAuthServiceEvent@ZOOMSDK@@@std@@U_Zero_then_variadic_args_t@1@@?$_Compressed_pair@U?$less@PAVIAuthServiceEvent@ZOOMSDK@@@std@@V?$_Compressed_pair@V?$allocator@U?$_Tree_node@PAVIAuthServiceEvent@ZOOMSDK@@PAX@std@@@std@@V?$_Tree_val@U?$_Tree_simple_types@PAVIAuthServiceEvent@ZOOMSDK@@@std@@@2@$00@2@$00@std@@QAE@U_One_then_variadic_args_t@1@ABU?$less@PAVIAuthServiceEvent@ZOOMSDK@@@1@$$QAU_Zero_then_variadic_args_t@1@@Z 0042a5a0 f i sdk_util.obj
 0001:000295a0       ??$?0ABU?$less@PAVIMeetingServiceEvent@ZOOMSDK@@@std@@U_Zero_then_variadic_args_t@1@@?$_Compressed_pair@U?$less@PAVIMeetingServiceEvent@ZOOMSDK@@@std@@V?$_Compressed_pair@V?$allocator@U?$_Tree_node@PAVIMeetingServiceEvent@ZOOMSDK@@PAX@std@@@std@@V?$_Tree_val@U?$_Tree_simple_types@PAVIMeetingServiceEvent@ZOOMSDK@@@std@@@2@$00@2@$00@std@@QAE@U_One_then_variadic_args_t@1@ABU?$less@PAVIMeetingServiceEvent@ZOOMSDK@@@1@$$QAU_Zero_then_variadic_args_t@1@@Z 0042a5a0 f i sdk_util.obj
 0001:000295a0       ??$?0ABU?$less@PAVISDKInMeetingServiceMgrEvent@@@std@@U_Zero_then_variadic_args_t@1@@?$_Compressed_pair@U?$less@PAVISDKInMeetingServiceMgrEvent@@@std@@V?$_Compressed_pair@V?$allocator@U?$_Tree_node@PAVISDKInMeetingServiceMgrEvent@@PAX@std@@@std@@V?$_Tree_val@U?$_Tree_simple_types@PAVISDKInMeetingServiceMgrEvent@@@std@@@2@$00@2@$00@std@@QAE@U_One_then_variadic_args_t@1@ABU?$less@PAVISDKInMeetingServiceMgrEvent@@@1@$$QAU_Zero_then_variadic_args_t@1@@Z 0042a5a0 f i sdk_util.obj
 0001:000295e0       ??$?0V?$_Tree_iterator@V?$_Tree_val@U?$_Tree_simple_types@U?$pair@$$CBHW4bkItemType@@@std@@@std@@@std@@@std@@AB_N$0A@@?$pair@V?$_Tree_iterator@V?$_Tree_val@U?$_Tree_simple_types@U?$pair@$$CBHW4bkItemType@@@std@@@std@@@std@@@std@@_N@std@@QAE@$$QAV?$_Tree_iterator@V?$_Tree_val@U?$_Tree_simple_types@U?$pair@$$CBHW4bkItemType@@@std@@@std@@@std@@@1@AB_N@Z 0042a5e0 f i settings_ui.obj
 0001:000295e0       ??$?0V?$_Tree_const_iterator@V?$_Tree_val@U?$_Tree_simple_types@PAVIPreMeetingServiceEvent@ZOOMSDK@@@std@@@std@@@std@@AB_N$0A@@?$pair@V?$_Tree_const_iterator@V?$_Tree_val@U?$_Tree_simple_types@PAVIPreMeetingServiceEvent@ZOOMSDK@@@std@@@std@@@std@@_N@std@@QAE@$$QAV?$_Tree_const_iterator@V?$_Tree_val@U?$_Tree_simple_types@PAVIPreMeetingServiceEvent@ZOOMSDK@@@std@@@std@@@1@AB_N@Z 0042a5e0 f i sdk_util.obj
 0001:000295e0       ??$?0V?$_Tree_const_iterator@V?$_Tree_val@U?$_Tree_simple_types@PAVIAuthServiceEvent@ZOOMSDK@@@std@@@std@@@std@@AB_N$0A@@?$pair@V?$_Tree_const_iterator@V?$_Tree_val@U?$_Tree_simple_types@PAVIAuthServiceEvent@ZOOMSDK@@@std@@@std@@@std@@_N@std@@QAE@$$QAV?$_Tree_const_iterator@V?$_Tree_val@U?$_Tree_simple_types@PAVIAuthServiceEvent@ZOOMSDK@@@std@@@std@@@1@AB_N@Z 0042a5e0 f i sdk_util.obj
 0001:000295e0       ??$?0V?$_Tree_iterator@V?$_Tree_val@U?$_Tree_simple_types@U?$pair@$$CBIPAVIUserInfo@ZOOMSDK@@@std@@@std@@@std@@@std@@AB_N$0A@@?$pair@V?$_Tree_iterator@V?$_Tree_val@U?$_Tree_simple_types@U?$pair@$$CBIPAVIUserInfo@ZOOMSDK@@@std@@@std@@@std@@@std@@_N@std@@QAE@$$QAV?$_Tree_iterator@V?$_Tree_val@U?$_Tree_simple_types@U?$pair@$$CBIPAVIUserInfo@ZOOMSDK@@@std@@@std@@@std@@@1@AB_N@Z 0042a5e0 f i user_manager.obj
 0001:000295e0       ??$?0V?$_Tree_const_iterator@V?$_Tree_val@U?$_Tree_simple_types@PAVIMeetingChatCtrlEvent@ZOOMSDK@@@std@@@std@@@std@@AB_N$0A@@?$pair@V?$_Tree_const_iterator@V?$_Tree_val@U?$_Tree_simple_types@PAVIMeetingChatCtrlEvent@ZOOMSDK@@@std@@@std@@@std@@_N@std@@QAE@$$QAV?$_Tree_const_iterator@V?$_Tree_val@U?$_Tree_simple_types@PAVIMeetingChatCtrlEvent@ZOOMSDK@@@std@@@std@@@1@AB_N@Z 0042a5e0 f i sdk_util.obj
 0001:000295e0       ??$?0V?$_Tree_const_iterator@V?$_Tree_val@U?$_Tree_simple_types@PAVISDKInMeetingServiceMgrEvent@@@std@@@std@@@std@@AB_N$0A@@?$pair@V?$_Tree_const_iterator@V?$_Tree_val@U?$_Tree_simple_types@PAVISDKInMeetingServiceMgrEvent@@@std@@@std@@@std@@_N@std@@QAE@$$QAV?$_Tree_const_iterator@V?$_Tree_val@U?$_Tree_simple_types@PAVISDKInMeetingServiceMgrEvent@@@std@@@std@@@1@AB_N@Z 0042a5e0 f i sdk_util.obj
 0001:000295e0       ??$?0V?$_Tree_const_iterator@V?$_Tree_val@U?$_Tree_simple_types@PAVIMeetingServiceEvent@ZOOMSDK@@@std@@@std@@@std@@AB_N$0A@@?$pair@V?$_Tree_const_iterator@V?$_Tree_val@U?$_Tree_simple_types@PAVIMeetingServiceEvent@ZOOMSDK@@@std@@@std@@@std@@_N@std@@QAE@$$QAV?$_Tree_const_iterator@V?$_Tree_val@U?$_Tree_simple_types@PAVIMeetingServiceEvent@ZOOMSDK@@@std@@@std@@@1@AB_N@Z 0042a5e0 f i sdk_util.obj
 0001:000295e0       ??$?0V?$_Tree_const_iterator@V?$_Tree_val@U?$_Tree_simple_types@PAVIMeetingParticipantsCtrlEvent@ZOOMSDK@@@std@@@std@@@std@@AB_N$0A@@?$pair@V?$_Tree_const_iterator@V?$_Tree_val@U?$_Tree_simple_types@PAVIMeetingParticipantsCtrlEvent@ZOOMSDK@@@std@@@std@@@std@@_N@std@@QAE@$$QAV?$_Tree_const_iterator@V?$_Tree_val@U?$_Tree_simple_types@PAVIMeetingParticipantsCtrlEvent@ZOOMSDK@@@std@@@std@@@1@AB_N@Z 0042a5e0 f i sdk_util.obj
 0001:000295e0       ??$?0V?$_Tree_const_iterator@V?$_Tree_val@U?$_Tree_simple_types@PAVIClosedCaptionControllerEvent@ZOOMSDK@@@std@@@std@@@std@@AB_N$0A@@?$pair@V?$_Tree_const_iterator@V?$_Tree_val@U?$_Tree_simple_types@PAVIClosedCaptionControllerEvent@ZOOMSDK@@@std@@@std@@@std@@_N@std@@QAE@$$QAV?$_Tree_const_iterator@V?$_Tree_val@U?$_Tree_simple_types@PAVIClosedCaptionControllerEvent@ZOOMSDK@@@std@@@std@@@1@AB_N@Z 0042a5e0 f i sdk_util.obj
 0001:000295e0       ??$?0V?$_Tree_const_iterator@V?$_Tree_val@U?$_Tree_simple_types@PAVIMeetingVideoCtrlEvent@ZOOMSDK@@@std@@@std@@@std@@AB_N$0A@@?$pair@V?$_Tree_const_iterator@V?$_Tree_val@U?$_Tree_simple_types@PAVIMeetingVideoCtrlEvent@ZOOMSDK@@@std@@@std@@@std@@_N@std@@QAE@$$QAV?$_Tree_const_iterator@V?$_Tree_val@U?$_Tree_simple_types@PAVIMeetingVideoCtrlEvent@ZOOMSDK@@@std@@@std@@@1@AB_N@Z 0042a5e0 f i sdk_util.obj
 0001:00029620       ??$_Buyheadnode@V?$allocator@U?$_Tree_node@PAVISDKInMeetingServiceMgrEvent@@PAX@std@@@std@@@?$_Tree_node@PAVISDKInMeetingServiceMgrEvent@@PAX@std@@SAPAU01@AAV?$allocator@U?$_Tree_node@PAVISDKInMeetingServiceMgrEvent@@PAX@std@@@1@@Z 0042a620 f i sdk_util.obj
 0001:00029620       ??$_Buyheadnode@V?$allocator@U?$_Tree_node@PAVIMeetingParticipantsCtrlEvent@ZOOMSDK@@PAX@std@@@std@@@?$_Tree_node@PAVIMeetingParticipantsCtrlEvent@ZOOMSDK@@PAX@std@@SAPAU01@AAV?$allocator@U?$_Tree_node@PAVIMeetingParticipantsCtrlEvent@ZOOMSDK@@PAX@std@@@1@@Z 0042a620 f i sdk_util.obj
 0001:00029620       ??$_Buyheadnode@V?$allocator@U?$_Tree_node@PAVIAuthServiceEvent@ZOOMSDK@@PAX@std@@@std@@@?$_Tree_node@PAVIAuthServiceEvent@ZOOMSDK@@PAX@std@@SAPAU01@AAV?$allocator@U?$_Tree_node@PAVIAuthServiceEvent@ZOOMSDK@@PAX@std@@@1@@Z 0042a620 f i sdk_util.obj
 0001:00029620       ??$_Buyheadnode@V?$allocator@U?$_Tree_node@PAVIMeetingChatCtrlEvent@ZOOMSDK@@PAX@std@@@std@@@?$_Tree_node@PAVIMeetingChatCtrlEvent@ZOOMSDK@@PAX@std@@SAPAU01@AAV?$allocator@U?$_Tree_node@PAVIMeetingChatCtrlEvent@ZOOMSDK@@PAX@std@@@1@@Z 0042a620 f i sdk_util.obj
 0001:00029620       ??$_Buyheadnode@V?$allocator@U?$_Tree_node@PAVIPreMeetingServiceEvent@ZOOMSDK@@PAX@std@@@std@@@?$_Tree_node@PAVIPreMeetingServiceEvent@ZOOMSDK@@PAX@std@@SAPAU01@AAV?$allocator@U?$_Tree_node@PAVIPreMeetingServiceEvent@ZOOMSDK@@PAX@std@@@1@@Z 0042a620 f i sdk_util.obj
 0001:00029620       ??$_Buyheadnode@V?$allocator@U?$_Tree_node@PAVIMeetingServiceEvent@ZOOMSDK@@PAX@std@@@std@@@?$_Tree_node@PAVIMeetingServiceEvent@ZOOMSDK@@PAX@std@@SAPAU01@AAV?$allocator@U?$_Tree_node@PAVIMeetingServiceEvent@ZOOMSDK@@PAX@std@@@1@@Z 0042a620 f i sdk_util.obj
 0001:00029620       ??$_Buyheadnode@V?$allocator@U?$_Tree_node@PAVIMeetingVideoCtrlEvent@ZOOMSDK@@PAX@std@@@std@@@?$_Tree_node@PAVIMeetingVideoCtrlEvent@ZOOMSDK@@PAX@std@@SAPAU01@AAV?$allocator@U?$_Tree_node@PAVIMeetingVideoCtrlEvent@ZOOMSDK@@PAX@std@@@1@@Z 0042a620 f i sdk_util.obj
 0001:00029620       ??$_Buyheadnode@V?$allocator@U?$_Tree_node@PAVIClosedCaptionControllerEvent@ZOOMSDK@@PAX@std@@@std@@@?$_Tree_node@PAVIClosedCaptionControllerEvent@ZOOMSDK@@PAX@std@@SAPAU01@AAV?$allocator@U?$_Tree_node@PAVIClosedCaptionControllerEvent@ZOOMSDK@@PAX@std@@@1@@Z 0042a620 f i sdk_util.obj
 0001:00029680       ??$_Emplace@ABQAVIPreMeetingServiceEvent@ZOOMSDK@@@?$_Tree@V?$_Tset_traits@PAVIPreMeetingServiceEvent@ZOOMSDK@@U?$less@PAVIPreMeetingServiceEvent@ZOOMSDK@@@std@@V?$allocator@PAVIPreMeetingServiceEvent@ZOOMSDK@@@4@$0A@@std@@@std@@IAE?AU?$pair@PAU?$_Tree_node@PAVIPreMeetingServiceEvent@ZOOMSDK@@PAX@std@@_N@1@ABQAVIPreMeetingServiceEvent@ZOOMSDK@@@Z 0042a680 f i sdk_util.obj
 0001:00029680       ??$_Emplace@ABQAVIMeetingVideoCtrlEvent@ZOOMSDK@@@?$_Tree@V?$_Tset_traits@PAVIMeetingVideoCtrlEvent@ZOOMSDK@@U?$less@PAVIMeetingVideoCtrlEvent@ZOOMSDK@@@std@@V?$allocator@PAVIMeetingVideoCtrlEvent@ZOOMSDK@@@4@$0A@@std@@@std@@IAE?AU?$pair@PAU?$_Tree_node@PAVIMeetingVideoCtrlEvent@ZOOMSDK@@PAX@std@@_N@1@ABQAVIMeetingVideoCtrlEvent@ZOOMSDK@@@Z 0042a680 f i sdk_util.obj
 0001:00029680       ??$_Emplace@ABQAVIAuthServiceEvent@ZOOMSDK@@@?$_Tree@V?$_Tset_traits@PAVIAuthServiceEvent@ZOOMSDK@@U?$less@PAVIAuthServiceEvent@ZOOMSDK@@@std@@V?$allocator@PAVIAuthServiceEvent@ZOOMSDK@@@4@$0A@@std@@@std@@IAE?AU?$pair@PAU?$_Tree_node@PAVIAuthServiceEvent@ZOOMSDK@@PAX@std@@_N@1@ABQAVIAuthServiceEvent@ZOOMSDK@@@Z 0042a680 f i sdk_util.obj
 0001:00029680       ??$_Emplace@ABQAVISDKInMeetingServiceMgrEvent@@@?$_Tree@V?$_Tset_traits@PAVISDKInMeetingServiceMgrEvent@@U?$less@PAVISDKInMeetingServiceMgrEvent@@@std@@V?$allocator@PAVISDKInMeetingServiceMgrEvent@@@3@$0A@@std@@@std@@IAE?AU?$pair@PAU?$_Tree_node@PAVISDKInMeetingServiceMgrEvent@@PAX@std@@_N@1@ABQAVISDKInMeetingServiceMgrEvent@@@Z 0042a680 f i sdk_util.obj
 0001:00029680       ??$_Emplace@ABQAVIClosedCaptionControllerEvent@ZOOMSDK@@@?$_Tree@V?$_Tset_traits@PAVIClosedCaptionControllerEvent@ZOOMSDK@@U?$less@PAVIClosedCaptionControllerEvent@ZOOMSDK@@@std@@V?$allocator@PAVIClosedCaptionControllerEvent@ZOOMSDK@@@4@$0A@@std@@@std@@IAE?AU?$pair@PAU?$_Tree_node@PAVIClosedCaptionControllerEvent@ZOOMSDK@@PAX@std@@_N@1@ABQAVIClosedCaptionControllerEvent@ZOOMSDK@@@Z 0042a680 f i sdk_util.obj
 0001:00029680       ??$_Emplace@ABQAVIMeetingServiceEvent@ZOOMSDK@@@?$_Tree@V?$_Tset_traits@PAVIMeetingServiceEvent@ZOOMSDK@@U?$less@PAVIMeetingServiceEvent@ZOOMSDK@@@std@@V?$allocator@PAVIMeetingServiceEvent@ZOOMSDK@@@4@$0A@@std@@@std@@IAE?AU?$pair@PAU?$_Tree_node@PAVIMeetingServiceEvent@ZOOMSDK@@PAX@std@@_N@1@ABQAVIMeetingServiceEvent@ZOOMSDK@@@Z 0042a680 f i sdk_util.obj
 0001:00029680       ??$_Emplace@ABQAVIMeetingParticipantsCtrlEvent@ZOOMSDK@@@?$_Tree@V?$_Tset_traits@PAVIMeetingParticipantsCtrlEvent@ZOOMSDK@@U?$less@PAVIMeetingParticipantsCtrlEvent@ZOOMSDK@@@std@@V?$allocator@PAVIMeetingParticipantsCtrlEvent@ZOOMSDK@@@4@$0A@@std@@@std@@IAE?AU?$pair@PAU?$_Tree_node@PAVIMeetingParticipantsCtrlEvent@ZOOMSDK@@PAX@std@@_N@1@ABQAVIMeetingParticipantsCtrlEvent@ZOOMSDK@@@Z 0042a680 f i sdk_util.obj
 0001:00029680       ??$_Emplace@ABQAVIMeetingChatCtrlEvent@ZOOMSDK@@@?$_Tree@V?$_Tset_traits@PAVIMeetingChatCtrlEvent@ZOOMSDK@@U?$less@PAVIMeetingChatCtrlEvent@ZOOMSDK@@@std@@V?$allocator@PAVIMeetingChatCtrlEvent@ZOOMSDK@@@4@$0A@@std@@@std@@IAE?AU?$pair@PAU?$_Tree_node@PAVIMeetingChatCtrlEvent@ZOOMSDK@@PAX@std@@_N@1@ABQAVIMeetingChatCtrlEvent@ZOOMSDK@@@Z 0042a680 f i sdk_util.obj
 0001:00029770       ??$_Emplace_hint@ABQAVIMeetingServiceEvent@ZOOMSDK@@@?$_Tree@V?$_Tset_traits@PAVIMeetingServiceEvent@ZOOMSDK@@U?$less@PAVIMeetingServiceEvent@ZOOMSDK@@@std@@V?$allocator@PAVIMeetingServiceEvent@ZOOMSDK@@@4@$0A@@std@@@std@@IAEPAU?$_Tree_node@PAVIMeetingServiceEvent@ZOOMSDK@@PAX@1@QAU21@ABQAVIMeetingServiceEvent@ZOOMSDK@@@Z 0042a770 f i sdk_util.obj
 0001:00029770       ??$_Emplace_hint@ABQAVIAuthServiceEvent@ZOOMSDK@@@?$_Tree@V?$_Tset_traits@PAVIAuthServiceEvent@ZOOMSDK@@U?$less@PAVIAuthServiceEvent@ZOOMSDK@@@std@@V?$allocator@PAVIAuthServiceEvent@ZOOMSDK@@@4@$0A@@std@@@std@@IAEPAU?$_Tree_node@PAVIAuthServiceEvent@ZOOMSDK@@PAX@1@QAU21@ABQAVIAuthServiceEvent@ZOOMSDK@@@Z 0042a770 f i sdk_util.obj
 0001:00029770       ??$_Emplace_hint@ABQAVIMeetingVideoCtrlEvent@ZOOMSDK@@@?$_Tree@V?$_Tset_traits@PAVIMeetingVideoCtrlEvent@ZOOMSDK@@U?$less@PAVIMeetingVideoCtrlEvent@ZOOMSDK@@@std@@V?$allocator@PAVIMeetingVideoCtrlEvent@ZOOMSDK@@@4@$0A@@std@@@std@@IAEPAU?$_Tree_node@PAVIMeetingVideoCtrlEvent@ZOOMSDK@@PAX@1@QAU21@ABQAVIMeetingVideoCtrlEvent@ZOOMSDK@@@Z 0042a770 f i sdk_util.obj
 0001:00029770       ??$_Emplace_hint@ABQAVIPreMeetingServiceEvent@ZOOMSDK@@@?$_Tree@V?$_Tset_traits@PAVIPreMeetingServiceEvent@ZOOMSDK@@U?$less@PAVIPreMeetingServiceEvent@ZOOMSDK@@@std@@V?$allocator@PAVIPreMeetingServiceEvent@ZOOMSDK@@@4@$0A@@std@@@std@@IAEPAU?$_Tree_node@PAVIPreMeetingServiceEvent@ZOOMSDK@@PAX@1@QAU21@ABQAVIPreMeetingServiceEvent@ZOOMSDK@@@Z 0042a770 f i sdk_util.obj
 0001:00029770       ??$_Emplace_hint@ABQAVISDKInMeetingServiceMgrEvent@@@?$_Tree@V?$_Tset_traits@PAVISDKInMeetingServiceMgrEvent@@U?$less@PAVISDKInMeetingServiceMgrEvent@@@std@@V?$allocator@PAVISDKInMeetingServiceMgrEvent@@@3@$0A@@std@@@std@@IAEPAU?$_Tree_node@PAVISDKInMeetingServiceMgrEvent@@PAX@1@QAU21@ABQAVISDKInMeetingServiceMgrEvent@@@Z 0042a770 f i sdk_util.obj
 0001:00029770       ??$_Emplace_hint@ABQAVIMeetingParticipantsCtrlEvent@ZOOMSDK@@@?$_Tree@V?$_Tset_traits@PAVIMeetingParticipantsCtrlEvent@ZOOMSDK@@U?$less@PAVIMeetingParticipantsCtrlEvent@ZOOMSDK@@@std@@V?$allocator@PAVIMeetingParticipantsCtrlEvent@ZOOMSDK@@@4@$0A@@std@@@std@@IAEPAU?$_Tree_node@PAVIMeetingParticipantsCtrlEvent@ZOOMSDK@@PAX@1@QAU21@ABQAVIMeetingParticipantsCtrlEvent@ZOOMSDK@@@Z 0042a770 f i sdk_util.obj
 0001:00029770       ??$_Emplace_hint@ABQAVIMeetingChatCtrlEvent@ZOOMSDK@@@?$_Tree@V?$_Tset_traits@PAVIMeetingChatCtrlEvent@ZOOMSDK@@U?$less@PAVIMeetingChatCtrlEvent@ZOOMSDK@@@std@@V?$allocator@PAVIMeetingChatCtrlEvent@ZOOMSDK@@@4@$0A@@std@@@std@@IAEPAU?$_Tree_node@PAVIMeetingChatCtrlEvent@ZOOMSDK@@PAX@1@QAU21@ABQAVIMeetingChatCtrlEvent@ZOOMSDK@@@Z 0042a770 f i sdk_util.obj
 0001:00029770       ??$_Emplace_hint@ABQAVIClosedCaptionControllerEvent@ZOOMSDK@@@?$_Tree@V?$_Tset_traits@PAVIClosedCaptionControllerEvent@ZOOMSDK@@U?$less@PAVIClosedCaptionControllerEvent@ZOOMSDK@@@std@@V?$allocator@PAVIClosedCaptionControllerEvent@ZOOMSDK@@@4@$0A@@std@@@std@@IAEPAU?$_Tree_node@PAVIClosedCaptionControllerEvent@ZOOMSDK@@PAX@1@QAU21@ABQAVIClosedCaptionControllerEvent@ZOOMSDK@@@Z 0042a770 f i sdk_util.obj
 0001:00029820       ??$_Eqrange@PAVISDKInMeetingServiceMgrEvent@@@?$_Tree@V?$_Tset_traits@PAVISDKInMeetingServiceMgrEvent@@U?$less@PAVISDKInMeetingServiceMgrEvent@@@std@@V?$allocator@PAVISDKInMeetingServiceMgrEvent@@@3@$0A@@std@@@std@@IBE?AU?$pair@PAU?$_Tree_node@PAVISDKInMeetingServiceMgrEvent@@PAX@std@@PAU12@@1@ABQAVISDKInMeetingServiceMgrEvent@@@Z 0042a820 f i sdk_util.obj
 0001:00029820       ??$_Eqrange@PAVIClosedCaptionControllerEvent@ZOOMSDK@@@?$_Tree@V?$_Tset_traits@PAVIClosedCaptionControllerEvent@ZOOMSDK@@U?$less@PAVIClosedCaptionControllerEvent@ZOOMSDK@@@std@@V?$allocator@PAVIClosedCaptionControllerEvent@ZOOMSDK@@@4@$0A@@std@@@std@@IBE?AU?$pair@PAU?$_Tree_node@PAVIClosedCaptionControllerEvent@ZOOMSDK@@PAX@std@@PAU12@@1@ABQAVIClosedCaptionControllerEvent@ZOOMSDK@@@Z 0042a820 f i sdk_util.obj
 0001:00029820       ??$_Eqrange@PAVIMeetingServiceEvent@ZOOMSDK@@@?$_Tree@V?$_Tset_traits@PAVIMeetingServiceEvent@ZOOMSDK@@U?$less@PAVIMeetingServiceEvent@ZOOMSDK@@@std@@V?$allocator@PAVIMeetingServiceEvent@ZOOMSDK@@@4@$0A@@std@@@std@@IBE?AU?$pair@PAU?$_Tree_node@PAVIMeetingServiceEvent@ZOOMSDK@@PAX@std@@PAU12@@1@ABQAVIMeetingServiceEvent@ZOOMSDK@@@Z 0042a820 f i sdk_util.obj
 0001:00029820       ??$_Eqrange@PAVIPreMeetingServiceEvent@ZOOMSDK@@@?$_Tree@V?$_Tset_traits@PAVIPreMeetingServiceEvent@ZOOMSDK@@U?$less@PAVIPreMeetingServiceEvent@ZOOMSDK@@@std@@V?$allocator@PAVIPreMeetingServiceEvent@ZOOMSDK@@@4@$0A@@std@@@std@@IBE?AU?$pair@PAU?$_Tree_node@PAVIPreMeetingServiceEvent@ZOOMSDK@@PAX@std@@PAU12@@1@ABQAVIPreMeetingServiceEvent@ZOOMSDK@@@Z 0042a820 f i sdk_util.obj
 0001:00029820       ??$_Eqrange@PAVIMeetingParticipantsCtrlEvent@ZOOMSDK@@@?$_Tree@V?$_Tset_traits@PAVIMeetingParticipantsCtrlEvent@ZOOMSDK@@U?$less@PAVIMeetingParticipantsCtrlEvent@ZOOMSDK@@@std@@V?$allocator@PAVIMeetingParticipantsCtrlEvent@ZOOMSDK@@@4@$0A@@std@@@std@@IBE?AU?$pair@PAU?$_Tree_node@PAVIMeetingParticipantsCtrlEvent@ZOOMSDK@@PAX@std@@PAU12@@1@ABQAVIMeetingParticipantsCtrlEvent@ZOOMSDK@@@Z 0042a820 f i sdk_util.obj
 0001:00029820       ??$_Eqrange@PAVIMeetingChatCtrlEvent@ZOOMSDK@@@?$_Tree@V?$_Tset_traits@PAVIMeetingChatCtrlEvent@ZOOMSDK@@U?$less@PAVIMeetingChatCtrlEvent@ZOOMSDK@@@std@@V?$allocator@PAVIMeetingChatCtrlEvent@ZOOMSDK@@@4@$0A@@std@@@std@@IBE?AU?$pair@PAU?$_Tree_node@PAVIMeetingChatCtrlEvent@ZOOMSDK@@PAX@std@@PAU12@@1@ABQAVIMeetingChatCtrlEvent@ZOOMSDK@@@Z 0042a820 f i sdk_util.obj
 0001:00029820       ??$_Eqrange@PAVIAuthServiceEvent@ZOOMSDK@@@?$_Tree@V?$_Tset_traits@PAVIAuthServiceEvent@ZOOMSDK@@U?$less@PAVIAuthServiceEvent@ZOOMSDK@@@std@@V?$allocator@PAVIAuthServiceEvent@ZOOMSDK@@@4@$0A@@std@@@std@@IBE?AU?$pair@PAU?$_Tree_node@PAVIAuthServiceEvent@ZOOMSDK@@PAX@std@@PAU12@@1@ABQAVIAuthServiceEvent@ZOOMSDK@@@Z 0042a820 f i sdk_util.obj
 0001:00029960       ??$_Erase_head@V?$allocator@U?$_Tree_node@PAVIMeetingChatCtrlEvent@ZOOMSDK@@PAX@std@@@std@@@?$_Tree_val@U?$_Tree_simple_types@PAVIMeetingChatCtrlEvent@ZOOMSDK@@@std@@@std@@QAEXAAV?$allocator@U?$_Tree_node@PAVIMeetingChatCtrlEvent@ZOOMSDK@@PAX@std@@@1@@Z 0042a960 f i sdk_util.obj
 0001:00029960       ??$_Erase_head@V?$allocator@U?$_Tree_node@PAVIPreMeetingServiceEvent@ZOOMSDK@@PAX@std@@@std@@@?$_Tree_val@U?$_Tree_simple_types@PAVIPreMeetingServiceEvent@ZOOMSDK@@@std@@@std@@QAEXAAV?$allocator@U?$_Tree_node@PAVIPreMeetingServiceEvent@ZOOMSDK@@PAX@std@@@1@@Z 0042a960 f i sdk_util.obj
 0001:00029960       ??$_Erase_head@V?$allocator@U?$_Tree_node@PAVIMeetingServiceEvent@ZOOMSDK@@PAX@std@@@std@@@?$_Tree_val@U?$_Tree_simple_types@PAVIMeetingServiceEvent@ZOOMSDK@@@std@@@std@@QAEXAAV?$allocator@U?$_Tree_node@PAVIMeetingServiceEvent@ZOOMSDK@@PAX@std@@@1@@Z 0042a960 f i sdk_util.obj
 0001:00029960       ??$_Erase_head@V?$allocator@U?$_Tree_node@PAVISDKInMeetingServiceMgrEvent@@PAX@std@@@std@@@?$_Tree_val@U?$_Tree_simple_types@PAVISDKInMeetingServiceMgrEvent@@@std@@@std@@QAEXAAV?$allocator@U?$_Tree_node@PAVISDKInMeetingServiceMgrEvent@@PAX@std@@@1@@Z 0042a960 f i sdk_util.obj
 0001:00029960       ??$_Erase_head@V?$allocator@U?$_Tree_node@PAVIAuthServiceEvent@ZOOMSDK@@PAX@std@@@std@@@?$_Tree_val@U?$_Tree_simple_types@PAVIAuthServiceEvent@ZOOMSDK@@@std@@@std@@QAEXAAV?$allocator@U?$_Tree_node@PAVIAuthServiceEvent@ZOOMSDK@@PAX@std@@@1@@Z 0042a960 f i sdk_util.obj
 0001:00029960       ??$_Erase_head@V?$allocator@U?$_Tree_node@PAVIMeetingParticipantsCtrlEvent@ZOOMSDK@@PAX@std@@@std@@@?$_Tree_val@U?$_Tree_simple_types@PAVIMeetingParticipantsCtrlEvent@ZOOMSDK@@@std@@@std@@QAEXAAV?$allocator@U?$_Tree_node@PAVIMeetingParticipantsCtrlEvent@ZOOMSDK@@PAX@std@@@1@@Z 0042a960 f i sdk_util.obj
 0001:00029960       ??$_Erase_head@V?$allocator@U?$_Tree_node@PAVIMeetingVideoCtrlEvent@ZOOMSDK@@PAX@std@@@std@@@?$_Tree_val@U?$_Tree_simple_types@PAVIMeetingVideoCtrlEvent@ZOOMSDK@@@std@@@std@@QAEXAAV?$allocator@U?$_Tree_node@PAVIMeetingVideoCtrlEvent@ZOOMSDK@@PAX@std@@@1@@Z 0042a960 f i sdk_util.obj
 0001:00029960       ??$_Erase_head@V?$allocator@U?$_Tree_node@PAVIClosedCaptionControllerEvent@ZOOMSDK@@PAX@std@@@std@@@?$_Tree_val@U?$_Tree_simple_types@PAVIClosedCaptionControllerEvent@ZOOMSDK@@@std@@@std@@QAEXAAV?$allocator@U?$_Tree_node@PAVIClosedCaptionControllerEvent@ZOOMSDK@@PAX@std@@@1@@Z 0042a960 f i sdk_util.obj
 0001:000299a0       ??$_Erase_tree@V?$allocator@U?$_Tree_node@PAVIMeetingVideoCtrlEvent@ZOOMSDK@@PAX@std@@@std@@@?$_Tree_val@U?$_Tree_simple_types@PAVIMeetingVideoCtrlEvent@ZOOMSDK@@@std@@@std@@QAEXAAV?$allocator@U?$_Tree_node@PAVIMeetingVideoCtrlEvent@ZOOMSDK@@PAX@std@@@1@PAU?$_Tree_node@PAVIMeetingVideoCtrlEvent@ZOOMSDK@@PAX@1@@Z 0042a9a0 f i sdk_util.obj
 0001:000299a0       ??$_Erase_tree@V?$allocator@U?$_Tree_node@PAVISDKInMeetingServiceMgrEvent@@PAX@std@@@std@@@?$_Tree_val@U?$_Tree_simple_types@PAVISDKInMeetingServiceMgrEvent@@@std@@@std@@QAEXAAV?$allocator@U?$_Tree_node@PAVISDKInMeetingServiceMgrEvent@@PAX@std@@@1@PAU?$_Tree_node@PAVISDKInMeetingServiceMgrEvent@@PAX@1@@Z 0042a9a0 f i sdk_util.obj
 0001:000299a0       ??$_Erase_tree@V?$allocator@U?$_Tree_node@PAVIMeetingServiceEvent@ZOOMSDK@@PAX@std@@@std@@@?$_Tree_val@U?$_Tree_simple_types@PAVIMeetingServiceEvent@ZOOMSDK@@@std@@@std@@QAEXAAV?$allocator@U?$_Tree_node@PAVIMeetingServiceEvent@ZOOMSDK@@PAX@std@@@1@PAU?$_Tree_node@PAVIMeetingServiceEvent@ZOOMSDK@@PAX@1@@Z 0042a9a0 f i sdk_util.obj
 0001:000299a0       ??$_Erase_tree@V?$allocator@U?$_Tree_node@PAVIPreMeetingServiceEvent@ZOOMSDK@@PAX@std@@@std@@@?$_Tree_val@U?$_Tree_simple_types@PAVIPreMeetingServiceEvent@ZOOMSDK@@@std@@@std@@QAEXAAV?$allocator@U?$_Tree_node@PAVIPreMeetingServiceEvent@ZOOMSDK@@PAX@std@@@1@PAU?$_Tree_node@PAVIPreMeetingServiceEvent@ZOOMSDK@@PAX@1@@Z 0042a9a0 f i sdk_util.obj
 0001:000299a0       ??$_Erase_tree@V?$allocator@U?$_Tree_node@PAVIAuthServiceEvent@ZOOMSDK@@PAX@std@@@std@@@?$_Tree_val@U?$_Tree_simple_types@PAVIAuthServiceEvent@ZOOMSDK@@@std@@@std@@QAEXAAV?$allocator@U?$_Tree_node@PAVIAuthServiceEvent@ZOOMSDK@@PAX@std@@@1@PAU?$_Tree_node@PAVIAuthServiceEvent@ZOOMSDK@@PAX@1@@Z 0042a9a0 f i sdk_util.obj
 0001:000299a0       ??$_Erase_tree@V?$allocator@U?$_Tree_node@PAVIClosedCaptionControllerEvent@ZOOMSDK@@PAX@std@@@std@@@?$_Tree_val@U?$_Tree_simple_types@PAVIClosedCaptionControllerEvent@ZOOMSDK@@@std@@@std@@QAEXAAV?$allocator@U?$_Tree_node@PAVIClosedCaptionControllerEvent@ZOOMSDK@@PAX@std@@@1@PAU?$_Tree_node@PAVIClosedCaptionControllerEvent@ZOOMSDK@@PAX@1@@Z 0042a9a0 f i sdk_util.obj
 0001:000299a0       ??$_Erase_tree@V?$allocator@U?$_Tree_node@PAVIMeetingParticipantsCtrlEvent@ZOOMSDK@@PAX@std@@@std@@@?$_Tree_val@U?$_Tree_simple_types@PAVIMeetingParticipantsCtrlEvent@ZOOMSDK@@@std@@@std@@QAEXAAV?$allocator@U?$_Tree_node@PAVIMeetingParticipantsCtrlEvent@ZOOMSDK@@PAX@std@@@1@PAU?$_Tree_node@PAVIMeetingParticipantsCtrlEvent@ZOOMSDK@@PAX@1@@Z 0042a9a0 f i sdk_util.obj
 0001:000299a0       ??$_Erase_tree@V?$allocator@U?$_Tree_node@PAVIMeetingChatCtrlEvent@ZOOMSDK@@PAX@std@@@std@@@?$_Tree_val@U?$_Tree_simple_types@PAVIMeetingChatCtrlEvent@ZOOMSDK@@@std@@@std@@QAEXAAV?$allocator@U?$_Tree_node@PAVIMeetingChatCtrlEvent@ZOOMSDK@@PAX@std@@@1@PAU?$_Tree_node@PAVIMeetingChatCtrlEvent@ZOOMSDK@@PAX@1@@Z 0042a9a0 f i sdk_util.obj
 0001:000299f0       ??$_Find_hint@PAVIMeetingServiceEvent@ZOOMSDK@@@?$_Tree@V?$_Tset_traits@PAVIMeetingServiceEvent@ZOOMSDK@@U?$less@PAVIMeetingServiceEvent@ZOOMSDK@@@std@@V?$allocator@PAVIMeetingServiceEvent@ZOOMSDK@@@4@$0A@@std@@@std@@IBE?AU?$_Tree_find_hint_result@PAU?$_Tree_node@PAVIMeetingServiceEvent@ZOOMSDK@@PAX@std@@@1@QAU?$_Tree_node@PAVIMeetingServiceEvent@ZOOMSDK@@PAX@1@ABQAVIMeetingServiceEvent@ZOOMSDK@@@Z 0042a9f0 f i sdk_util.obj
 0001:000299f0       ??$_Find_hint@PAVIPreMeetingServiceEvent@ZOOMSDK@@@?$_Tree@V?$_Tset_traits@PAVIPreMeetingServiceEvent@ZOOMSDK@@U?$less@PAVIPreMeetingServiceEvent@ZOOMSDK@@@std@@V?$allocator@PAVIPreMeetingServiceEvent@ZOOMSDK@@@4@$0A@@std@@@std@@IBE?AU?$_Tree_find_hint_result@PAU?$_Tree_node@PAVIPreMeetingServiceEvent@ZOOMSDK@@PAX@std@@@1@QAU?$_Tree_node@PAVIPreMeetingServiceEvent@ZOOMSDK@@PAX@1@ABQAVIPreMeetingServiceEvent@ZOOMSDK@@@Z 0042a9f0 f i sdk_util.obj
 0001:000299f0       ??$_Find_hint@PAVIMeetingChatCtrlEvent@ZOOMSDK@@@?$_Tree@V?$_Tset_traits@PAVIMeetingChatCtrlEvent@ZOOMSDK@@U?$less@PAVIMeetingChatCtrlEvent@ZOOMSDK@@@std@@V?$allocator@PAVIMeetingChatCtrlEvent@ZOOMSDK@@@4@$0A@@std@@@std@@IBE?AU?$_Tree_find_hint_result@PAU?$_Tree_node@PAVIMeetingChatCtrlEvent@ZOOMSDK@@PAX@std@@@1@QAU?$_Tree_node@PAVIMeetingChatCtrlEvent@ZOOMSDK@@PAX@1@ABQAVIMeetingChatCtrlEvent@ZOOMSDK@@@Z 0042a9f0 f i sdk_util.obj
 0001:000299f0       ??$_Find_hint@PAVIAuthServiceEvent@ZOOMSDK@@@?$_Tree@V?$_Tset_traits@PAVIAuthServiceEvent@ZOOMSDK@@U?$less@PAVIAuthServiceEvent@ZOOMSDK@@@std@@V?$allocator@PAVIAuthServiceEvent@ZOOMSDK@@@4@$0A@@std@@@std@@IBE?AU?$_Tree_find_hint_result@PAU?$_Tree_node@PAVIAuthServiceEvent@ZOOMSDK@@PAX@std@@@1@QAU?$_Tree_node@PAVIAuthServiceEvent@ZOOMSDK@@PAX@1@ABQAVIAuthServiceEvent@ZOOMSDK@@@Z 0042a9f0 f i sdk_util.obj
 0001:000299f0       ??$_Find_hint@PAVIClosedCaptionControllerEvent@ZOOMSDK@@@?$_Tree@V?$_Tset_traits@PAVIClosedCaptionControllerEvent@ZOOMSDK@@U?$less@PAVIClosedCaptionControllerEvent@ZOOMSDK@@@std@@V?$allocator@PAVIClosedCaptionControllerEvent@ZOOMSDK@@@4@$0A@@std@@@std@@IBE?AU?$_Tree_find_hint_result@PAU?$_Tree_node@PAVIClosedCaptionControllerEvent@ZOOMSDK@@PAX@std@@@1@QAU?$_Tree_node@PAVIClosedCaptionControllerEvent@ZOOMSDK@@PAX@1@ABQAVIClosedCaptionControllerEvent@ZOOMSDK@@@Z 0042a9f0 f i sdk_util.obj
 0001:000299f0       ??$_Find_hint@PAVISDKInMeetingServiceMgrEvent@@@?$_Tree@V?$_Tset_traits@PAVISDKInMeetingServiceMgrEvent@@U?$less@PAVISDKInMeetingServiceMgrEvent@@@std@@V?$allocator@PAVISDKInMeetingServiceMgrEvent@@@3@$0A@@std@@@std@@IBE?AU?$_Tree_find_hint_result@PAU?$_Tree_node@PAVISDKInMeetingServiceMgrEvent@@PAX@std@@@1@QAU?$_Tree_node@PAVISDKInMeetingServiceMgrEvent@@PAX@1@ABQAVISDKInMeetingServiceMgrEvent@@@Z 0042a9f0 f i sdk_util.obj
 0001:000299f0       ??$_Find_hint@PAVIMeetingParticipantsCtrlEvent@ZOOMSDK@@@?$_Tree@V?$_Tset_traits@PAVIMeetingParticipantsCtrlEvent@ZOOMSDK@@U?$less@PAVIMeetingParticipantsCtrlEvent@ZOOMSDK@@@std@@V?$allocator@PAVIMeetingParticipantsCtrlEvent@ZOOMSDK@@@4@$0A@@std@@@std@@IBE?AU?$_Tree_find_hint_result@PAU?$_Tree_node@PAVIMeetingParticipantsCtrlEvent@ZOOMSDK@@PAX@std@@@1@QAU?$_Tree_node@PAVIMeetingParticipantsCtrlEvent@ZOOMSDK@@PAX@1@ABQAVIMeetingParticipantsCtrlEvent@ZOOMSDK@@@Z 0042a9f0 f i sdk_util.obj
 0001:000299f0       ??$_Find_hint@PAVIMeetingVideoCtrlEvent@ZOOMSDK@@@?$_Tree@V?$_Tset_traits@PAVIMeetingVideoCtrlEvent@ZOOMSDK@@U?$less@PAVIMeetingVideoCtrlEvent@ZOOMSDK@@@std@@V?$allocator@PAVIMeetingVideoCtrlEvent@ZOOMSDK@@@4@$0A@@std@@@std@@IBE?AU?$_Tree_find_hint_result@PAU?$_Tree_node@PAVIMeetingVideoCtrlEvent@ZOOMSDK@@PAX@std@@@1@QAU?$_Tree_node@PAVIMeetingVideoCtrlEvent@ZOOMSDK@@PAX@1@ABQAVIMeetingVideoCtrlEvent@ZOOMSDK@@@Z 0042a9f0 f i sdk_util.obj
 0001:00029cd0       ??$_Find_lower_bound@PAVIMeetingVideoCtrlEvent@ZOOMSDK@@@?$_Tree@V?$_Tset_traits@PAVIMeetingVideoCtrlEvent@ZOOMSDK@@U?$less@PAVIMeetingVideoCtrlEvent@ZOOMSDK@@@std@@V?$allocator@PAVIMeetingVideoCtrlEvent@ZOOMSDK@@@4@$0A@@std@@@std@@IBE?AU?$_Tree_find_result@PAU?$_Tree_node@PAVIMeetingVideoCtrlEvent@ZOOMSDK@@PAX@std@@@1@ABQAVIMeetingVideoCtrlEvent@ZOOMSDK@@@Z 0042acd0 f i sdk_util.obj
 0001:00029cd0       ??$_Find_lower_bound@PAVIMeetingChatCtrlEvent@ZOOMSDK@@@?$_Tree@V?$_Tset_traits@PAVIMeetingChatCtrlEvent@ZOOMSDK@@U?$less@PAVIMeetingChatCtrlEvent@ZOOMSDK@@@std@@V?$allocator@PAVIMeetingChatCtrlEvent@ZOOMSDK@@@4@$0A@@std@@@std@@IBE?AU?$_Tree_find_result@PAU?$_Tree_node@PAVIMeetingChatCtrlEvent@ZOOMSDK@@PAX@std@@@1@ABQAVIMeetingChatCtrlEvent@ZOOMSDK@@@Z 0042acd0 f i sdk_util.obj
 0001:00029cd0       ??$_Find_lower_bound@PAVISDKInMeetingServiceMgrEvent@@@?$_Tree@V?$_Tset_traits@PAVISDKInMeetingServiceMgrEvent@@U?$less@PAVISDKInMeetingServiceMgrEvent@@@std@@V?$allocator@PAVISDKInMeetingServiceMgrEvent@@@3@$0A@@std@@@std@@IBE?AU?$_Tree_find_result@PAU?$_Tree_node@PAVISDKInMeetingServiceMgrEvent@@PAX@std@@@1@ABQAVISDKInMeetingServiceMgrEvent@@@Z 0042acd0 f i sdk_util.obj
 0001:00029cd0       ??$_Find_lower_bound@PAVIMeetingServiceEvent@ZOOMSDK@@@?$_Tree@V?$_Tset_traits@PAVIMeetingServiceEvent@ZOOMSDK@@U?$less@PAVIMeetingServiceEvent@ZOOMSDK@@@std@@V?$allocator@PAVIMeetingServiceEvent@ZOOMSDK@@@4@$0A@@std@@@std@@IBE?AU?$_Tree_find_result@PAU?$_Tree_node@PAVIMeetingServiceEvent@ZOOMSDK@@PAX@std@@@1@ABQAVIMeetingServiceEvent@ZOOMSDK@@@Z 0042acd0 f i sdk_util.obj
 0001:00029cd0       ??$_Find_lower_bound@PAVIMeetingParticipantsCtrlEvent@ZOOMSDK@@@?$_Tree@V?$_Tset_traits@PAVIMeetingParticipantsCtrlEvent@ZOOMSDK@@U?$less@PAVIMeetingParticipantsCtrlEvent@ZOOMSDK@@@std@@V?$allocator@PAVIMeetingParticipantsCtrlEvent@ZOOMSDK@@@4@$0A@@std@@@std@@IBE?AU?$_Tree_find_result@PAU?$_Tree_node@PAVIMeetingParticipantsCtrlEvent@ZOOMSDK@@PAX@std@@@1@ABQAVIMeetingParticipantsCtrlEvent@ZOOMSDK@@@Z 0042acd0 f i sdk_util.obj
 0001:00029cd0       ??$_Find_lower_bound@I@?$_Tree@V?$_Tmap_traits@IPAVIUserInfo@ZOOMSDK@@U?$less@I@std@@V?$allocator@U?$pair@$$CBIPAVIUserInfo@ZOOMSDK@@@std@@@4@$0A@@std@@@std@@IBE?AU?$_Tree_find_result@PAU?$_Tree_node@U?$pair@$$CBIPAVIUserInfo@ZOOMSDK@@@std@@PAX@std@@@1@ABI@Z 0042acd0 f i user_manager.obj
 0001:00029cd0       ??$_Find_lower_bound@PAVIClosedCaptionControllerEvent@ZOOMSDK@@@?$_Tree@V?$_Tset_traits@PAVIClosedCaptionControllerEvent@ZOOMSDK@@U?$less@PAVIClosedCaptionControllerEvent@ZOOMSDK@@@std@@V?$allocator@PAVIClosedCaptionControllerEvent@ZOOMSDK@@@4@$0A@@std@@@std@@IBE?AU?$_Tree_find_result@PAU?$_Tree_node@PAVIClosedCaptionControllerEvent@ZOOMSDK@@PAX@std@@@1@ABQAVIClosedCaptionControllerEvent@ZOOMSDK@@@Z 0042acd0 f i sdk_util.obj
 0001:00029cd0       ??$_Find_lower_bound@PAVIAuthServiceEvent@ZOOMSDK@@@?$_Tree@V?$_Tset_traits@PAVIAuthServiceEvent@ZOOMSDK@@U?$less@PAVIAuthServiceEvent@ZOOMSDK@@@std@@V?$allocator@PAVIAuthServiceEvent@ZOOMSDK@@@4@$0A@@std@@@std@@IBE?AU?$_Tree_find_result@PAU?$_Tree_node@PAVIAuthServiceEvent@ZOOMSDK@@PAX@std@@@1@ABQAVIAuthServiceEvent@ZOOMSDK@@@Z 0042acd0 f i sdk_util.obj
 0001:00029cd0       ??$_Find_lower_bound@PAVIPreMeetingServiceEvent@ZOOMSDK@@@?$_Tree@V?$_Tset_traits@PAVIPreMeetingServiceEvent@ZOOMSDK@@U?$less@PAVIPreMeetingServiceEvent@ZOOMSDK@@@std@@V?$allocator@PAVIPreMeetingServiceEvent@ZOOMSDK@@@4@$0A@@std@@@std@@IBE?AU?$_Tree_find_result@PAU?$_Tree_node@PAVIPreMeetingServiceEvent@ZOOMSDK@@PAX@std@@@1@ABQAVIPreMeetingServiceEvent@ZOOMSDK@@@Z 0042acd0 f i sdk_util.obj
 0001:00029d90       ??$_Freenode0@V?$allocator@U?$_Tree_node@PAVIMeetingParticipantsCtrlEvent@ZOOMSDK@@PAX@std@@@std@@@?$_Tree_node@PAVIMeetingParticipantsCtrlEvent@ZOOMSDK@@PAX@std@@SAXAAV?$allocator@U?$_Tree_node@PAVIMeetingParticipantsCtrlEvent@ZOOMSDK@@PAX@std@@@1@PAU01@@Z 0042ad90 f i sdk_util.obj
 0001:00029d90       ??$_Freenode0@V?$allocator@U?$_Tree_node@PAVIClosedCaptionControllerEvent@ZOOMSDK@@PAX@std@@@std@@@?$_Tree_node@PAVIClosedCaptionControllerEvent@ZOOMSDK@@PAX@std@@SAXAAV?$allocator@U?$_Tree_node@PAVIClosedCaptionControllerEvent@ZOOMSDK@@PAX@std@@@1@PAU01@@Z 0042ad90 f i sdk_util.obj
 0001:00029d90       ??$_Freenode0@V?$allocator@U?$_Tree_node@PAVIMeetingVideoCtrlEvent@ZOOMSDK@@PAX@std@@@std@@@?$_Tree_node@PAVIMeetingVideoCtrlEvent@ZOOMSDK@@PAX@std@@SAXAAV?$allocator@U?$_Tree_node@PAVIMeetingVideoCtrlEvent@ZOOMSDK@@PAX@std@@@1@PAU01@@Z 0042ad90 f i sdk_util.obj
 0001:00029d90       ??$_Freenode0@V?$allocator@U?$_Tree_node@PAVIAuthServiceEvent@ZOOMSDK@@PAX@std@@@std@@@?$_Tree_node@PAVIAuthServiceEvent@ZOOMSDK@@PAX@std@@SAXAAV?$allocator@U?$_Tree_node@PAVIAuthServiceEvent@ZOOMSDK@@PAX@std@@@1@PAU01@@Z 0042ad90 f i sdk_util.obj
 0001:00029d90       ??$_Freenode0@V?$allocator@U?$_Tree_node@PAVISDKInMeetingServiceMgrEvent@@PAX@std@@@std@@@?$_Tree_node@PAVISDKInMeetingServiceMgrEvent@@PAX@std@@SAXAAV?$allocator@U?$_Tree_node@PAVISDKInMeetingServiceMgrEvent@@PAX@std@@@1@PAU01@@Z 0042ad90 f i sdk_util.obj
 0001:00029d90       ??$_Freenode0@V?$allocator@U?$_Tree_node@PAVIMeetingChatCtrlEvent@ZOOMSDK@@PAX@std@@@std@@@?$_Tree_node@PAVIMeetingChatCtrlEvent@ZOOMSDK@@PAX@std@@SAXAAV?$allocator@U?$_Tree_node@PAVIMeetingChatCtrlEvent@ZOOMSDK@@PAX@std@@@1@PAU01@@Z 0042ad90 f i sdk_util.obj
 0001:00029d90       ??$_Freenode0@V?$allocator@U?$_Tree_node@PAVIPreMeetingServiceEvent@ZOOMSDK@@PAX@std@@@std@@@?$_Tree_node@PAVIPreMeetingServiceEvent@ZOOMSDK@@PAX@std@@SAXAAV?$allocator@U?$_Tree_node@PAVIPreMeetingServiceEvent@ZOOMSDK@@PAX@std@@@1@PAU01@@Z 0042ad90 f i sdk_util.obj
 0001:00029d90       ??$_Freenode0@V?$allocator@U?$_Tree_node@PAVIMeetingServiceEvent@ZOOMSDK@@PAX@std@@@std@@@?$_Tree_node@PAVIMeetingServiceEvent@ZOOMSDK@@PAX@std@@SAXAAV?$allocator@U?$_Tree_node@PAVIMeetingServiceEvent@ZOOMSDK@@PAX@std@@@1@PAU01@@Z 0042ad90 f i sdk_util.obj
 0001:00029e10       ??$_Freenode@V?$allocator@U?$_Tree_node@PAVIAuthServiceEvent@ZOOMSDK@@PAX@std@@@std@@@?$_Tree_node@PAVIAuthServiceEvent@ZOOMSDK@@PAX@std@@SAXAAV?$allocator@U?$_Tree_node@PAVIAuthServiceEvent@ZOOMSDK@@PAX@std@@@1@PAU01@@Z 0042ae10 f i sdk_util.obj
 0001:00029e10       ??$_Freenode@V?$allocator@U?$_Tree_node@PAVIMeetingServiceEvent@ZOOMSDK@@PAX@std@@@std@@@?$_Tree_node@PAVIMeetingServiceEvent@ZOOMSDK@@PAX@std@@SAXAAV?$allocator@U?$_Tree_node@PAVIMeetingServiceEvent@ZOOMSDK@@PAX@std@@@1@PAU01@@Z 0042ae10 f i sdk_util.obj
 0001:00029e10       ??$_Freenode@V?$allocator@U?$_Tree_node@PAVIPreMeetingServiceEvent@ZOOMSDK@@PAX@std@@@std@@@?$_Tree_node@PAVIPreMeetingServiceEvent@ZOOMSDK@@PAX@std@@SAXAAV?$allocator@U?$_Tree_node@PAVIPreMeetingServiceEvent@ZOOMSDK@@PAX@std@@@1@PAU01@@Z 0042ae10 f i sdk_util.obj
 0001:00029e10       ??$_Freenode@V?$allocator@U?$_Tree_node@PAVISDKInMeetingServiceMgrEvent@@PAX@std@@@std@@@?$_Tree_node@PAVISDKInMeetingServiceMgrEvent@@PAX@std@@SAXAAV?$allocator@U?$_Tree_node@PAVISDKInMeetingServiceMgrEvent@@PAX@std@@@1@PAU01@@Z 0042ae10 f i sdk_util.obj
 0001:00029e10       ??$_Freenode@V?$allocator@U?$_Tree_node@PAVIMeetingChatCtrlEvent@ZOOMSDK@@PAX@std@@@std@@@?$_Tree_node@PAVIMeetingChatCtrlEvent@ZOOMSDK@@PAX@std@@SAXAAV?$allocator@U?$_Tree_node@PAVIMeetingChatCtrlEvent@ZOOMSDK@@PAX@std@@@1@PAU01@@Z 0042ae10 f i sdk_util.obj
 0001:00029e10       ??$_Freenode@V?$allocator@U?$_Tree_node@PAVIMeetingVideoCtrlEvent@ZOOMSDK@@PAX@std@@@std@@@?$_Tree_node@PAVIMeetingVideoCtrlEvent@ZOOMSDK@@PAX@std@@SAXAAV?$allocator@U?$_Tree_node@PAVIMeetingVideoCtrlEvent@ZOOMSDK@@PAX@std@@@1@PAU01@@Z 0042ae10 f i sdk_util.obj
 0001:00029e10       ??$_Freenode@V?$allocator@U?$_Tree_node@PAVIClosedCaptionControllerEvent@ZOOMSDK@@PAX@std@@@std@@@?$_Tree_node@PAVIClosedCaptionControllerEvent@ZOOMSDK@@PAX@std@@SAXAAV?$allocator@U?$_Tree_node@PAVIClosedCaptionControllerEvent@ZOOMSDK@@PAX@std@@@1@PAU01@@Z 0042ae10 f i sdk_util.obj
 0001:00029e10       ??$_Freenode@V?$allocator@U?$_Tree_node@PAVIMeetingParticipantsCtrlEvent@ZOOMSDK@@PAX@std@@@std@@@?$_Tree_node@PAVIMeetingParticipantsCtrlEvent@ZOOMSDK@@PAX@std@@SAXAAV?$allocator@U?$_Tree_node@PAVIMeetingParticipantsCtrlEvent@ZOOMSDK@@PAX@std@@@1@PAU01@@Z 0042ae10 f i sdk_util.obj
 0001:00029e80       ??$_Get_size_of_n@$0BE@@std@@YAII@Z 0042ae80 f i sdk_util.obj
 0001:00029eb0       ??$_Get_unwrapped@AAV?$_Tree_const_iterator@V?$_Tree_val@U?$_Tree_simple_types@PAVIMeetingServiceEvent@ZOOMSDK@@@std@@@std@@@std@@@std@@YA?AV?$_Tree_unchecked_const_iterator@V?$_Tree_val@U?$_Tree_simple_types@PAVIMeetingServiceEvent@ZOOMSDK@@@std@@@std@@U_Iterator_base0@2@@0@AAV?$_Tree_const_iterator@V?$_Tree_val@U?$_Tree_simple_types@PAVIMeetingServiceEvent@ZOOMSDK@@@std@@@std@@@0@@Z 0042aeb0 f i sdk_util.obj
 0001:00029eb0       ??$_Get_unwrapped@AAV?$_Tree_const_iterator@V?$_Tree_val@U?$_Tree_simple_types@PAVIMeetingParticipantsCtrlEvent@ZOOMSDK@@@std@@@std@@@std@@@std@@YA?AV?$_Tree_unchecked_const_iterator@V?$_Tree_val@U?$_Tree_simple_types@PAVIMeetingParticipantsCtrlEvent@ZOOMSDK@@@std@@@std@@U_Iterator_base0@2@@0@AAV?$_Tree_const_iterator@V?$_Tree_val@U?$_Tree_simple_types@PAVIMeetingParticipantsCtrlEvent@ZOOMSDK@@@std@@@std@@@0@@Z 0042aeb0 f i sdk_util.obj
 0001:00029eb0       ??$_Get_unwrapped@AAV?$_Tree_const_iterator@V?$_Tree_val@U?$_Tree_simple_types@PAVIPreMeetingServiceEvent@ZOOMSDK@@@std@@@std@@@std@@@std@@YA?AV?$_Tree_unchecked_const_iterator@V?$_Tree_val@U?$_Tree_simple_types@PAVIPreMeetingServiceEvent@ZOOMSDK@@@std@@@std@@U_Iterator_base0@2@@0@AAV?$_Tree_const_iterator@V?$_Tree_val@U?$_Tree_simple_types@PAVIPreMeetingServiceEvent@ZOOMSDK@@@std@@@std@@@0@@Z 0042aeb0 f i sdk_util.obj
 0001:00029eb0       ??$_Get_unwrapped@AAV?$_Tree_const_iterator@V?$_Tree_val@U?$_Tree_simple_types@PAVIClosedCaptionControllerEvent@ZOOMSDK@@@std@@@std@@@std@@@std@@YA?AV?$_Tree_unchecked_const_iterator@V?$_Tree_val@U?$_Tree_simple_types@PAVIClosedCaptionControllerEvent@ZOOMSDK@@@std@@@std@@U_Iterator_base0@2@@0@AAV?$_Tree_const_iterator@V?$_Tree_val@U?$_Tree_simple_types@PAVIClosedCaptionControllerEvent@ZOOMSDK@@@std@@@std@@@0@@Z 0042aeb0 f i sdk_util.obj
 0001:00029eb0       ??$_Get_unwrapped@AAV?$_Tree_const_iterator@V?$_Tree_val@U?$_Tree_simple_types@PAVIMeetingChatCtrlEvent@ZOOMSDK@@@std@@@std@@@std@@@std@@YA?AV?$_Tree_unchecked_const_iterator@V?$_Tree_val@U?$_Tree_simple_types@PAVIMeetingChatCtrlEvent@ZOOMSDK@@@std@@@std@@U_Iterator_base0@2@@0@AAV?$_Tree_const_iterator@V?$_Tree_val@U?$_Tree_simple_types@PAVIMeetingChatCtrlEvent@ZOOMSDK@@@std@@@std@@@0@@Z 0042aeb0 f i sdk_util.obj
 0001:00029eb0       ??$_Get_unwrapped@AAV?$_Tree_const_iterator@V?$_Tree_val@U?$_Tree_simple_types@PAVIAuthServiceEvent@ZOOMSDK@@@std@@@std@@@std@@@std@@YA?AV?$_Tree_unchecked_const_iterator@V?$_Tree_val@U?$_Tree_simple_types@PAVIAuthServiceEvent@ZOOMSDK@@@std@@@std@@U_Iterator_base0@2@@0@AAV?$_Tree_const_iterator@V?$_Tree_val@U?$_Tree_simple_types@PAVIAuthServiceEvent@ZOOMSDK@@@std@@@std@@@0@@Z 0042aeb0 f i sdk_util.obj
 0001:00029eb0       ??$_Get_unwrapped@AAV?$_Tree_const_iterator@V?$_Tree_val@U?$_Tree_simple_types@PAVISDKInMeetingServiceMgrEvent@@@std@@@std@@@std@@@std@@YA?AV?$_Tree_unchecked_const_iterator@V?$_Tree_val@U?$_Tree_simple_types@PAVISDKInMeetingServiceMgrEvent@@@std@@@std@@U_Iterator_base0@2@@0@AAV?$_Tree_const_iterator@V?$_Tree_val@U?$_Tree_simple_types@PAVISDKInMeetingServiceMgrEvent@@@std@@@std@@@0@@Z 0042aeb0 f i sdk_util.obj
 0001:00029eb0       ??$_Get_unwrapped@AAV?$_Tree_const_iterator@V?$_Tree_val@U?$_Tree_simple_types@PAVIMeetingVideoCtrlEvent@ZOOMSDK@@@std@@@std@@@std@@@std@@YA?AV?$_Tree_unchecked_const_iterator@V?$_Tree_val@U?$_Tree_simple_types@PAVIMeetingVideoCtrlEvent@ZOOMSDK@@@std@@@std@@U_Iterator_base0@2@@0@AAV?$_Tree_const_iterator@V?$_Tree_val@U?$_Tree_simple_types@PAVIMeetingVideoCtrlEvent@ZOOMSDK@@@std@@@std@@@0@@Z 0042aeb0 f i sdk_util.obj
 0001:00029ed0       ??$_Lower_bound_duplicate@PAVIMeetingServiceEvent@ZOOMSDK@@@?$_Tree@V?$_Tset_traits@PAVIMeetingServiceEvent@ZOOMSDK@@U?$less@PAVIMeetingServiceEvent@ZOOMSDK@@@std@@V?$allocator@PAVIMeetingServiceEvent@ZOOMSDK@@@4@$0A@@std@@@std@@IBE_NQAU?$_Tree_node@PAVIMeetingServiceEvent@ZOOMSDK@@PAX@1@ABQAVIMeetingServiceEvent@ZOOMSDK@@@Z 0042aed0 f i sdk_util.obj
 0001:00029ed0       ??$_Lower_bound_duplicate@PAVIPreMeetingServiceEvent@ZOOMSDK@@@?$_Tree@V?$_Tset_traits@PAVIPreMeetingServiceEvent@ZOOMSDK@@U?$less@PAVIPreMeetingServiceEvent@ZOOMSDK@@@std@@V?$allocator@PAVIPreMeetingServiceEvent@ZOOMSDK@@@4@$0A@@std@@@std@@IBE_NQAU?$_Tree_node@PAVIPreMeetingServiceEvent@ZOOMSDK@@PAX@1@ABQAVIPreMeetingServiceEvent@ZOOMSDK@@@Z 0042aed0 f i sdk_util.obj
 0001:00029ed0       ??$_Lower_bound_duplicate@PAVIMeetingChatCtrlEvent@ZOOMSDK@@@?$_Tree@V?$_Tset_traits@PAVIMeetingChatCtrlEvent@ZOOMSDK@@U?$less@PAVIMeetingChatCtrlEvent@ZOOMSDK@@@std@@V?$allocator@PAVIMeetingChatCtrlEvent@ZOOMSDK@@@4@$0A@@std@@@std@@IBE_NQAU?$_Tree_node@PAVIMeetingChatCtrlEvent@ZOOMSDK@@PAX@1@ABQAVIMeetingChatCtrlEvent@ZOOMSDK@@@Z 0042aed0 f i sdk_util.obj
 0001:00029ed0       ??$_Lower_bound_duplicate@PAVIAuthServiceEvent@ZOOMSDK@@@?$_Tree@V?$_Tset_traits@PAVIAuthServiceEvent@ZOOMSDK@@U?$less@PAVIAuthServiceEvent@ZOOMSDK@@@std@@V?$allocator@PAVIAuthServiceEvent@ZOOMSDK@@@4@$0A@@std@@@std@@IBE_NQAU?$_Tree_node@PAVIAuthServiceEvent@ZOOMSDK@@PAX@1@ABQAVIAuthServiceEvent@ZOOMSDK@@@Z 0042aed0 f i sdk_util.obj
 0001:00029ed0       ??$_Lower_bound_duplicate@PAVIMeetingParticipantsCtrlEvent@ZOOMSDK@@@?$_Tree@V?$_Tset_traits@PAVIMeetingParticipantsCtrlEvent@ZOOMSDK@@U?$less@PAVIMeetingParticipantsCtrlEvent@ZOOMSDK@@@std@@V?$allocator@PAVIMeetingParticipantsCtrlEvent@ZOOMSDK@@@4@$0A@@std@@@std@@IBE_NQAU?$_Tree_node@PAVIMeetingParticipantsCtrlEvent@ZOOMSDK@@PAX@1@ABQAVIMeetingParticipantsCtrlEvent@ZOOMSDK@@@Z 0042aed0 f i sdk_util.obj
 0001:00029ed0       ??$_Lower_bound_duplicate@PAVIClosedCaptionControllerEvent@ZOOMSDK@@@?$_Tree@V?$_Tset_traits@PAVIClosedCaptionControllerEvent@ZOOMSDK@@U?$less@PAVIClosedCaptionControllerEvent@ZOOMSDK@@@std@@V?$allocator@PAVIClosedCaptionControllerEvent@ZOOMSDK@@@4@$0A@@std@@@std@@IBE_NQAU?$_Tree_node@PAVIClosedCaptionControllerEvent@ZOOMSDK@@PAX@1@ABQAVIClosedCaptionControllerEvent@ZOOMSDK@@@Z 0042aed0 f i sdk_util.obj
 0001:00029ed0       ??$_Lower_bound_duplicate@I@?$_Tree@V?$_Tmap_traits@IPAVIUserInfo@ZOOMSDK@@U?$less@I@std@@V?$allocator@U?$pair@$$CBIPAVIUserInfo@ZOOMSDK@@@std@@@4@$0A@@std@@@std@@IBE_NQAU?$_Tree_node@U?$pair@$$CBIPAVIUserInfo@ZOOMSDK@@@std@@PAX@1@ABI@Z 0042aed0 f i user_manager.obj
 0001:00029ed0       ??$_Lower_bound_duplicate@PAVISDKInMeetingServiceMgrEvent@@@?$_Tree@V?$_Tset_traits@PAVISDKInMeetingServiceMgrEvent@@U?$less@PAVISDKInMeetingServiceMgrEvent@@@std@@V?$allocator@PAVISDKInMeetingServiceMgrEvent@@@3@$0A@@std@@@std@@IBE_NQAU?$_Tree_node@PAVISDKInMeetingServiceMgrEvent@@PAX@1@ABQAVISDKInMeetingServiceMgrEvent@@@Z 0042aed0 f i sdk_util.obj
 0001:00029ed0       ??$_Lower_bound_duplicate@PAVIMeetingVideoCtrlEvent@ZOOMSDK@@@?$_Tree@V?$_Tset_traits@PAVIMeetingVideoCtrlEvent@ZOOMSDK@@U?$less@PAVIMeetingVideoCtrlEvent@ZOOMSDK@@@std@@V?$allocator@PAVIMeetingVideoCtrlEvent@ZOOMSDK@@@4@$0A@@std@@@std@@IBE_NQAU?$_Tree_node@PAVIMeetingVideoCtrlEvent@ZOOMSDK@@PAX@1@ABQAVIMeetingVideoCtrlEvent@ZOOMSDK@@@Z 0042aed0 f i sdk_util.obj
 0001:00029f30       ??$distance@V?$_Tree_unchecked_const_iterator@V?$_Tree_val@U?$_Tree_simple_types@PAVIClosedCaptionControllerEvent@ZOOMSDK@@@std@@@std@@U_Iterator_base0@2@@std@@@std@@YAHV?$_Tree_unchecked_const_iterator@V?$_Tree_val@U?$_Tree_simple_types@PAVIClosedCaptionControllerEvent@ZOOMSDK@@@std@@@std@@U_Iterator_base0@2@@0@0@Z 0042af30 f i sdk_util.obj
 0001:00029f30       ??$distance@V?$_Tree_unchecked_const_iterator@V?$_Tree_val@U?$_Tree_simple_types@PAVIAuthServiceEvent@ZOOMSDK@@@std@@@std@@U_Iterator_base0@2@@std@@@std@@YAHV?$_Tree_unchecked_const_iterator@V?$_Tree_val@U?$_Tree_simple_types@PAVIAuthServiceEvent@ZOOMSDK@@@std@@@std@@U_Iterator_base0@2@@0@0@Z 0042af30 f i sdk_util.obj
 0001:00029f30       ??$distance@V?$_Tree_unchecked_const_iterator@V?$_Tree_val@U?$_Tree_simple_types@PAVIMeetingParticipantsCtrlEvent@ZOOMSDK@@@std@@@std@@U_Iterator_base0@2@@std@@@std@@YAHV?$_Tree_unchecked_const_iterator@V?$_Tree_val@U?$_Tree_simple_types@PAVIMeetingParticipantsCtrlEvent@ZOOMSDK@@@std@@@std@@U_Iterator_base0@2@@0@0@Z 0042af30 f i sdk_util.obj
 0001:00029f30       ??$distance@V?$_Tree_unchecked_const_iterator@V?$_Tree_val@U?$_Tree_simple_types@PAVIMeetingServiceEvent@ZOOMSDK@@@std@@@std@@U_Iterator_base0@2@@std@@@std@@YAHV?$_Tree_unchecked_const_iterator@V?$_Tree_val@U?$_Tree_simple_types@PAVIMeetingServiceEvent@ZOOMSDK@@@std@@@std@@U_Iterator_base0@2@@0@0@Z 0042af30 f i sdk_util.obj
 0001:00029f30       ??$distance@V?$_Tree_unchecked_const_iterator@V?$_Tree_val@U?$_Tree_simple_types@PAVISDKInMeetingServiceMgrEvent@@@std@@@std@@U_Iterator_base0@2@@std@@@std@@YAHV?$_Tree_unchecked_const_iterator@V?$_Tree_val@U?$_Tree_simple_types@PAVISDKInMeetingServiceMgrEvent@@@std@@@std@@U_Iterator_base0@2@@0@0@Z 0042af30 f i sdk_util.obj
 0001:00029f30       ??$distance@V?$_Tree_unchecked_const_iterator@V?$_Tree_val@U?$_Tree_simple_types@PAVIPreMeetingServiceEvent@ZOOMSDK@@@std@@@std@@U_Iterator_base0@2@@std@@@std@@YAHV?$_Tree_unchecked_const_iterator@V?$_Tree_val@U?$_Tree_simple_types@PAVIPreMeetingServiceEvent@ZOOMSDK@@@std@@@std@@U_Iterator_base0@2@@0@0@Z 0042af30 f i sdk_util.obj
 0001:00029f30       ??$distance@V?$_Tree_unchecked_const_iterator@V?$_Tree_val@U?$_Tree_simple_types@PAVIMeetingChatCtrlEvent@ZOOMSDK@@@std@@@std@@U_Iterator_base0@2@@std@@@std@@YAHV?$_Tree_unchecked_const_iterator@V?$_Tree_val@U?$_Tree_simple_types@PAVIMeetingChatCtrlEvent@ZOOMSDK@@@std@@@std@@U_Iterator_base0@2@@0@0@Z 0042af30 f i sdk_util.obj
 0001:00029fa0       ??$exchange@PAU?$_Tree_node@PAVISDKInMeetingServiceMgrEvent@@PAX@std@@$$T@std@@YAPAU?$_Tree_node@PAVISDKInMeetingServiceMgrEvent@@PAX@0@AAPAU10@$$QA$$T@Z 0042afa0 f i sdk_util.obj
 0001:00029fa0       ??$exchange@PAU?$_Tree_node@PAVIClosedCaptionControllerEvent@ZOOMSDK@@PAX@std@@AAPAU12@@std@@YAPAU?$_Tree_node@PAVIClosedCaptionControllerEvent@ZOOMSDK@@PAX@0@AAPAU10@0@Z 0042afa0 f i sdk_util.obj
 0001:00029fa0       ??$exchange@PAU?$_Tree_node@PAVIClosedCaptionControllerEvent@ZOOMSDK@@PAX@std@@$$T@std@@YAPAU?$_Tree_node@PAVIClosedCaptionControllerEvent@ZOOMSDK@@PAX@0@AAPAU10@$$QA$$T@Z 0042afa0 f i sdk_util.obj
 0001:00029fa0       ??$exchange@PAU?$_Tree_node@PAVIAuthServiceEvent@ZOOMSDK@@PAX@std@@AAPAU12@@std@@YAPAU?$_Tree_node@PAVIAuthServiceEvent@ZOOMSDK@@PAX@0@AAPAU10@0@Z 0042afa0 f i sdk_util.obj
 0001:00029fa0       ??$exchange@PAU?$_Tree_node@PAVIAuthServiceEvent@ZOOMSDK@@PAX@std@@$$T@std@@YAPAU?$_Tree_node@PAVIAuthServiceEvent@ZOOMSDK@@PAX@0@AAPAU10@$$QA$$T@Z 0042afa0 f i sdk_util.obj
 0001:00029fa0       ??$exchange@PAU?$_Tree_node@PAVIMeetingParticipantsCtrlEvent@ZOOMSDK@@PAX@std@@AAPAU12@@std@@YAPAU?$_Tree_node@PAVIMeetingParticipantsCtrlEvent@ZOOMSDK@@PAX@0@AAPAU10@0@Z 0042afa0 f i sdk_util.obj
 0001:00029fa0       ??$exchange@PAU?$_Tree_node@PAVIMeetingServiceEvent@ZOOMSDK@@PAX@std@@AAPAU12@@std@@YAPAU?$_Tree_node@PAVIMeetingServiceEvent@ZOOMSDK@@PAX@0@AAPAU10@0@Z 0042afa0 f i sdk_util.obj
 0001:00029fa0       ??$exchange@PAU?$_Tree_node@PAVIMeetingParticipantsCtrlEvent@ZOOMSDK@@PAX@std@@$$T@std@@YAPAU?$_Tree_node@PAVIMeetingParticipantsCtrlEvent@ZOOMSDK@@PAX@0@AAPAU10@$$QA$$T@Z 0042afa0 f i sdk_util.obj
 0001:00029fa0       ??$exchange@PAU?$_Tree_node@U?$pair@$$CBIPAVIUserInfo@ZOOMSDK@@@std@@PAX@std@@AAPAU12@@std@@YAPAU?$_Tree_node@U?$pair@$$CBIPAVIUserInfo@ZOOMSDK@@@std@@PAX@0@AAPAU10@0@Z 0042afa0 f i user_manager.obj
 0001:00029fa0       ??$exchange@PAU?$_Tree_node@PAVIMeetingServiceEvent@ZOOMSDK@@PAX@std@@$$T@std@@YAPAU?$_Tree_node@PAVIMeetingServiceEvent@ZOOMSDK@@PAX@0@AAPAU10@$$QA$$T@Z 0042afa0 f i sdk_util.obj
 0001:00029fa0       ??$exchange@PAU?$_Tree_node@PAVIPreMeetingServiceEvent@ZOOMSDK@@PAX@std@@AAPAU12@@std@@YAPAU?$_Tree_node@PAVIPreMeetingServiceEvent@ZOOMSDK@@PAX@0@AAPAU10@0@Z 0042afa0 f i sdk_util.obj
 0001:00029fa0       ??$exchange@PAU?$_Tree_node@U?$pair@$$CBHW4bkItemType@@@std@@PAX@std@@AAPAU12@@std@@YAPAU?$_Tree_node@U?$pair@$$CBHW4bkItemType@@@std@@PAX@0@AAPAU10@0@Z 0042afa0 f i settings_ui.obj
 0001:00029fa0       ??$exchange@PAU?$_Tree_node@PAVIMeetingVideoCtrlEvent@ZOOMSDK@@PAX@std@@$$T@std@@YAPAU?$_Tree_node@PAVIMeetingVideoCtrlEvent@ZOOMSDK@@PAX@0@AAPAU10@$$QA$$T@Z 0042afa0 f i sdk_util.obj
 0001:00029fa0       ??$exchange@PAU?$_Tree_node@PAVIMeetingChatCtrlEvent@ZOOMSDK@@PAX@std@@$$T@std@@YAPAU?$_Tree_node@PAVIMeetingChatCtrlEvent@ZOOMSDK@@PAX@0@AAPAU10@$$QA$$T@Z 0042afa0 f i sdk_util.obj
 0001:00029fa0       ??$exchange@PAU?$_Tree_node@PAVIPreMeetingServiceEvent@ZOOMSDK@@PAX@std@@$$T@std@@YAPAU?$_Tree_node@PAVIPreMeetingServiceEvent@ZOOMSDK@@PAX@0@AAPAU10@$$QA$$T@Z 0042afa0 f i sdk_util.obj
 0001:00029fa0       ??$exchange@PAU?$_Tree_node@PAVIMeetingChatCtrlEvent@ZOOMSDK@@PAX@std@@AAPAU12@@std@@YAPAU?$_Tree_node@PAVIMeetingChatCtrlEvent@ZOOMSDK@@PAX@0@AAPAU10@0@Z 0042afa0 f i sdk_util.obj
 0001:00029fa0       ??$exchange@PAU?$_Tree_node@PAVISDKInMeetingServiceMgrEvent@@PAX@std@@AAPAU12@@std@@YAPAU?$_Tree_node@PAVISDKInMeetingServiceMgrEvent@@PAX@0@AAPAU10@0@Z 0042afa0 f i sdk_util.obj
 0001:00029fa0       ??$exchange@PAU?$_Tree_node@PAVIMeetingVideoCtrlEvent@ZOOMSDK@@PAX@std@@AAPAU12@@std@@YAPAU?$_Tree_node@PAVIMeetingVideoCtrlEvent@ZOOMSDK@@PAX@0@AAPAU10@0@Z 0042afa0 f i sdk_util.obj
 0001:00029fa0       ??$exchange@PAU?$_Tree_node@U?$pair@$$CBHW4bkItemType@@@std@@PAX@std@@$$T@std@@YAPAU?$_Tree_node@U?$pair@$$CBHW4bkItemType@@@std@@PAX@0@AAPAU10@$$QA$$T@Z 0042afa0 f i settings_ui.obj
 0001:00029fa0       ??$exchange@PAU?$_Tree_node@U?$pair@$$CBIPAVIUserInfo@ZOOMSDK@@@std@@PAX@std@@$$T@std@@YAPAU?$_Tree_node@U?$pair@$$CBIPAVIUserInfo@ZOOMSDK@@@std@@PAX@0@AAPAU10@$$QA$$T@Z 0042afa0 f i user_manager.obj
 0001:00029fc0       ??$insert@$0A@$0A@@?$_Tree@V?$_Tset_traits@PAVIClosedCaptionControllerEvent@ZOOMSDK@@U?$less@PAVIClosedCaptionControllerEvent@ZOOMSDK@@@std@@V?$allocator@PAVIClosedCaptionControllerEvent@ZOOMSDK@@@4@$0A@@std@@@std@@QAE?AU?$pair@V?$_Tree_const_iterator@V?$_Tree_val@U?$_Tree_simple_types@PAVIClosedCaptionControllerEvent@ZOOMSDK@@@std@@@std@@@std@@_N@1@ABQAVIClosedCaptionControllerEvent@ZOOMSDK@@@Z 0042afc0 f i sdk_util.obj
 0001:00029fc0       ??$insert@$0A@$0A@@?$_Tree@V?$_Tset_traits@PAVIMeetingChatCtrlEvent@ZOOMSDK@@U?$less@PAVIMeetingChatCtrlEvent@ZOOMSDK@@@std@@V?$allocator@PAVIMeetingChatCtrlEvent@ZOOMSDK@@@4@$0A@@std@@@std@@QAE?AU?$pair@V?$_Tree_const_iterator@V?$_Tree_val@U?$_Tree_simple_types@PAVIMeetingChatCtrlEvent@ZOOMSDK@@@std@@@std@@@std@@_N@1@ABQAVIMeetingChatCtrlEvent@ZOOMSDK@@@Z 0042afc0 f i sdk_util.obj
 0001:00029fc0       ??$insert@$0A@$0A@@?$_Tree@V?$_Tset_traits@PAVIPreMeetingServiceEvent@ZOOMSDK@@U?$less@PAVIPreMeetingServiceEvent@ZOOMSDK@@@std@@V?$allocator@PAVIPreMeetingServiceEvent@ZOOMSDK@@@4@$0A@@std@@@std@@QAE?AU?$pair@V?$_Tree_const_iterator@V?$_Tree_val@U?$_Tree_simple_types@PAVIPreMeetingServiceEvent@ZOOMSDK@@@std@@@std@@@std@@_N@1@ABQAVIPreMeetingServiceEvent@ZOOMSDK@@@Z 0042afc0 f i sdk_util.obj
 0001:00029fc0       ??$insert@$0A@$0A@@?$_Tree@V?$_Tset_traits@PAVIAuthServiceEvent@ZOOMSDK@@U?$less@PAVIAuthServiceEvent@ZOOMSDK@@@std@@V?$allocator@PAVIAuthServiceEvent@ZOOMSDK@@@4@$0A@@std@@@std@@QAE?AU?$pair@V?$_Tree_const_iterator@V?$_Tree_val@U?$_Tree_simple_types@PAVIAuthServiceEvent@ZOOMSDK@@@std@@@std@@@std@@_N@1@ABQAVIAuthServiceEvent@ZOOMSDK@@@Z 0042afc0 f i sdk_util.obj
 0001:00029fc0       ??$insert@$0A@$0A@@?$_Tree@V?$_Tset_traits@PAVIMeetingVideoCtrlEvent@ZOOMSDK@@U?$less@PAVIMeetingVideoCtrlEvent@ZOOMSDK@@@std@@V?$allocator@PAVIMeetingVideoCtrlEvent@ZOOMSDK@@@4@$0A@@std@@@std@@QAE?AU?$pair@V?$_Tree_const_iterator@V?$_Tree_val@U?$_Tree_simple_types@PAVIMeetingVideoCtrlEvent@ZOOMSDK@@@std@@@std@@@std@@_N@1@ABQAVIMeetingVideoCtrlEvent@ZOOMSDK@@@Z 0042afc0 f i sdk_util.obj
 0001:00029fc0       ??$insert@$0A@$0A@@?$_Tree@V?$_Tset_traits@PAVIMeetingServiceEvent@ZOOMSDK@@U?$less@PAVIMeetingServiceEvent@ZOOMSDK@@@std@@V?$allocator@PAVIMeetingServiceEvent@ZOOMSDK@@@4@$0A@@std@@@std@@QAE?AU?$pair@V?$_Tree_const_iterator@V?$_Tree_val@U?$_Tree_simple_types@PAVIMeetingServiceEvent@ZOOMSDK@@@std@@@std@@@std@@_N@1@ABQAVIMeetingServiceEvent@ZOOMSDK@@@Z 0042afc0 f i sdk_util.obj
 0001:00029fc0       ??$insert@$0A@$0A@@?$_Tree@V?$_Tset_traits@PAVIMeetingParticipantsCtrlEvent@ZOOMSDK@@U?$less@PAVIMeetingParticipantsCtrlEvent@ZOOMSDK@@@std@@V?$allocator@PAVIMeetingParticipantsCtrlEvent@ZOOMSDK@@@4@$0A@@std@@@std@@QAE?AU?$pair@V?$_Tree_const_iterator@V?$_Tree_val@U?$_Tree_simple_types@PAVIMeetingParticipantsCtrlEvent@ZOOMSDK@@@std@@@std@@@std@@_N@1@ABQAVIMeetingParticipantsCtrlEvent@ZOOMSDK@@@Z 0042afc0 f i sdk_util.obj
 0001:00029fc0       ??$insert@$0A@$0A@@?$_Tree@V?$_Tset_traits@PAVISDKInMeetingServiceMgrEvent@@U?$less@PAVISDKInMeetingServiceMgrEvent@@@std@@V?$allocator@PAVISDKInMeetingServiceMgrEvent@@@3@$0A@@std@@@std@@QAE?AU?$pair@V?$_Tree_const_iterator@V?$_Tree_val@U?$_Tree_simple_types@PAVISDKInMeetingServiceMgrEvent@@@std@@@std@@@std@@_N@1@ABQAVISDKInMeetingServiceMgrEvent@@@Z 0042afc0 f i sdk_util.obj
 0001:0002a010       ??$insert@V?$_Tree_const_iterator@V?$_Tree_val@U?$_Tree_simple_types@PAVIMeetingParticipantsCtrlEvent@ZOOMSDK@@@std@@@std@@@std@@@?$_Tree@V?$_Tset_traits@PAVIMeetingParticipantsCtrlEvent@ZOOMSDK@@U?$less@PAVIMeetingParticipantsCtrlEvent@ZOOMSDK@@@std@@V?$allocator@PAVIMeetingParticipantsCtrlEvent@ZOOMSDK@@@4@$0A@@std@@@std@@QAEXV?$_Tree_const_iterator@V?$_Tree_val@U?$_Tree_simple_types@PAVIMeetingParticipantsCtrlEvent@ZOOMSDK@@@std@@@std@@@1@0@Z 0042b010 f i sdk_util.obj
 0001:0002a010       ??$insert@V?$_Tree_const_iterator@V?$_Tree_val@U?$_Tree_simple_types@PAVIClosedCaptionControllerEvent@ZOOMSDK@@@std@@@std@@@std@@@?$_Tree@V?$_Tset_traits@PAVIClosedCaptionControllerEvent@ZOOMSDK@@U?$less@PAVIClosedCaptionControllerEvent@ZOOMSDK@@@std@@V?$allocator@PAVIClosedCaptionControllerEvent@ZOOMSDK@@@4@$0A@@std@@@std@@QAEXV?$_Tree_const_iterator@V?$_Tree_val@U?$_Tree_simple_types@PAVIClosedCaptionControllerEvent@ZOOMSDK@@@std@@@std@@@1@0@Z 0042b010 f i sdk_util.obj
 0001:0002a010       ??$insert@V?$_Tree_const_iterator@V?$_Tree_val@U?$_Tree_simple_types@PAVIAuthServiceEvent@ZOOMSDK@@@std@@@std@@@std@@@?$_Tree@V?$_Tset_traits@PAVIAuthServiceEvent@ZOOMSDK@@U?$less@PAVIAuthServiceEvent@ZOOMSDK@@@std@@V?$allocator@PAVIAuthServiceEvent@ZOOMSDK@@@4@$0A@@std@@@std@@QAEXV?$_Tree_const_iterator@V?$_Tree_val@U?$_Tree_simple_types@PAVIAuthServiceEvent@ZOOMSDK@@@std@@@std@@@1@0@Z 0042b010 f i sdk_util.obj
 0001:0002a010       ??$insert@V?$_Tree_const_iterator@V?$_Tree_val@U?$_Tree_simple_types@PAVIMeetingChatCtrlEvent@ZOOMSDK@@@std@@@std@@@std@@@?$_Tree@V?$_Tset_traits@PAVIMeetingChatCtrlEvent@ZOOMSDK@@U?$less@PAVIMeetingChatCtrlEvent@ZOOMSDK@@@std@@V?$allocator@PAVIMeetingChatCtrlEvent@ZOOMSDK@@@4@$0A@@std@@@std@@QAEXV?$_Tree_const_iterator@V?$_Tree_val@U?$_Tree_simple_types@PAVIMeetingChatCtrlEvent@ZOOMSDK@@@std@@@std@@@1@0@Z 0042b010 f i sdk_util.obj
 0001:0002a010       ??$insert@V?$_Tree_const_iterator@V?$_Tree_val@U?$_Tree_simple_types@PAVIPreMeetingServiceEvent@ZOOMSDK@@@std@@@std@@@std@@@?$_Tree@V?$_Tset_traits@PAVIPreMeetingServiceEvent@ZOOMSDK@@U?$less@PAVIPreMeetingServiceEvent@ZOOMSDK@@@std@@V?$allocator@PAVIPreMeetingServiceEvent@ZOOMSDK@@@4@$0A@@std@@@std@@QAEXV?$_Tree_const_iterator@V?$_Tree_val@U?$_Tree_simple_types@PAVIPreMeetingServiceEvent@ZOOMSDK@@@std@@@std@@@1@0@Z 0042b010 f i sdk_util.obj
 0001:0002a010       ??$insert@V?$_Tree_const_iterator@V?$_Tree_val@U?$_Tree_simple_types@PAVIMeetingServiceEvent@ZOOMSDK@@@std@@@std@@@std@@@?$_Tree@V?$_Tset_traits@PAVIMeetingServiceEvent@ZOOMSDK@@U?$less@PAVIMeetingServiceEvent@ZOOMSDK@@@std@@V?$allocator@PAVIMeetingServiceEvent@ZOOMSDK@@@4@$0A@@std@@@std@@QAEXV?$_Tree_const_iterator@V?$_Tree_val@U?$_Tree_simple_types@PAVIMeetingServiceEvent@ZOOMSDK@@@std@@@std@@@1@0@Z 0042b010 f i sdk_util.obj
 0001:0002a010       ??$insert@V?$_Tree_const_iterator@V?$_Tree_val@U?$_Tree_simple_types@PAVIMeetingVideoCtrlEvent@ZOOMSDK@@@std@@@std@@@std@@@?$_Tree@V?$_Tset_traits@PAVIMeetingVideoCtrlEvent@ZOOMSDK@@U?$less@PAVIMeetingVideoCtrlEvent@ZOOMSDK@@@std@@V?$allocator@PAVIMeetingVideoCtrlEvent@ZOOMSDK@@@4@$0A@@std@@@std@@QAEXV?$_Tree_const_iterator@V?$_Tree_val@U?$_Tree_simple_types@PAVIMeetingVideoCtrlEvent@ZOOMSDK@@@std@@@std@@@1@0@Z 0042b010 f i sdk_util.obj
 0001:0002a010       ??$insert@V?$_Tree_const_iterator@V?$_Tree_val@U?$_Tree_simple_types@PAVISDKInMeetingServiceMgrEvent@@@std@@@std@@@std@@@?$_Tree@V?$_Tset_traits@PAVISDKInMeetingServiceMgrEvent@@U?$less@PAVISDKInMeetingServiceMgrEvent@@@std@@V?$allocator@PAVISDKInMeetingServiceMgrEvent@@@3@$0A@@std@@@std@@QAEXV?$_Tree_const_iterator@V?$_Tree_val@U?$_Tree_simple_types@PAVISDKInMeetingServiceMgrEvent@@@std@@@std@@@1@0@Z 0042b010 f i sdk_util.obj
 0001:0002a090       ??$swap@D$0A@@std@@YAXAAD0@Z 0042b090 f i sdk_util.obj
 0001:0002a0d0       ??0?$EventSinkPool@VIAuthServiceEvent@ZOOMSDK@@@@QAE@XZ 0042b0d0 f i sdk_util.obj
 0001:0002a140       ??0?$EventSinkPool@VIClosedCaptionControllerEvent@ZOOMSDK@@@@QAE@XZ 0042b140 f i sdk_util.obj
 0001:0002a1b0       ??0?$EventSinkPool@VIMeetingChatCtrlEvent@ZOOMSDK@@@@QAE@XZ 0042b1b0 f i sdk_util.obj
 0001:0002a220       ??0?$EventSinkPool@VIMeetingParticipantsCtrlEvent@ZOOMSDK@@@@QAE@XZ 0042b220 f i sdk_util.obj
 0001:0002a290       ??0?$EventSinkPool@VIMeetingServiceEvent@ZOOMSDK@@@@QAE@XZ 0042b290 f i sdk_util.obj
 0001:0002a300       ??0?$EventSinkPool@VIMeetingVideoCtrlEvent@ZOOMSDK@@@@QAE@XZ 0042b300 f i sdk_util.obj
 0001:0002a370       ??0?$EventSinkPool@VIPreMeetingServiceEvent@ZOOMSDK@@@@QAE@XZ 0042b370 f i sdk_util.obj
 0001:0002a3e0       ??0?$EventSinkPool@VISDKInMeetingServiceMgrEvent@@@@QAE@XZ 0042b3e0 f i sdk_util.obj
 0001:0002a450       ??0?$_Tree@V?$_Tset_traits@PAVIAuthServiceEvent@ZOOMSDK@@U?$less@PAVIAuthServiceEvent@ZOOMSDK@@@std@@V?$allocator@PAVIAuthServiceEvent@ZOOMSDK@@@4@$0A@@std@@@std@@QAE@ABU?$less@PAVIAuthServiceEvent@ZOOMSDK@@@1@@Z 0042b450 f i sdk_util.obj
 0001:0002a450       ??0?$_Tree@V?$_Tset_traits@PAVIMeetingServiceEvent@ZOOMSDK@@U?$less@PAVIMeetingServiceEvent@ZOOMSDK@@@std@@V?$allocator@PAVIMeetingServiceEvent@ZOOMSDK@@@4@$0A@@std@@@std@@QAE@ABU?$less@PAVIMeetingServiceEvent@ZOOMSDK@@@1@@Z 0042b450 f i sdk_util.obj
 0001:0002a450       ??0?$_Tree@V?$_Tset_traits@PAVIPreMeetingServiceEvent@ZOOMSDK@@U?$less@PAVIPreMeetingServiceEvent@ZOOMSDK@@@std@@V?$allocator@PAVIPreMeetingServiceEvent@ZOOMSDK@@@4@$0A@@std@@@std@@QAE@ABU?$less@PAVIPreMeetingServiceEvent@ZOOMSDK@@@1@@Z 0042b450 f i sdk_util.obj
 0001:0002a450       ??0?$_Tree@V?$_Tset_traits@PAVIMeetingParticipantsCtrlEvent@ZOOMSDK@@U?$less@PAVIMeetingParticipantsCtrlEvent@ZOOMSDK@@@std@@V?$allocator@PAVIMeetingParticipantsCtrlEvent@ZOOMSDK@@@4@$0A@@std@@@std@@QAE@ABU?$less@PAVIMeetingParticipantsCtrlEvent@ZOOMSDK@@@1@@Z 0042b450 f i sdk_util.obj
 0001:0002a450       ??0?$_Tree@V?$_Tset_traits@PAVIMeetingVideoCtrlEvent@ZOOMSDK@@U?$less@PAVIMeetingVideoCtrlEvent@ZOOMSDK@@@std@@V?$allocator@PAVIMeetingVideoCtrlEvent@ZOOMSDK@@@4@$0A@@std@@@std@@QAE@ABU?$less@PAVIMeetingVideoCtrlEvent@ZOOMSDK@@@1@@Z 0042b450 f i sdk_util.obj
 0001:0002a450       ??0?$_Tree@V?$_Tset_traits@PAVISDKInMeetingServiceMgrEvent@@U?$less@PAVISDKInMeetingServiceMgrEvent@@@std@@V?$allocator@PAVISDKInMeetingServiceMgrEvent@@@3@$0A@@std@@@std@@QAE@ABU?$less@PAVISDKInMeetingServiceMgrEvent@@@1@@Z 0042b450 f i sdk_util.obj
 0001:0002a450       ??0?$_Tree@V?$_Tset_traits@PAVIClosedCaptionControllerEvent@ZOOMSDK@@U?$less@PAVIClosedCaptionControllerEvent@ZOOMSDK@@@std@@V?$allocator@PAVIClosedCaptionControllerEvent@ZOOMSDK@@@4@$0A@@std@@@std@@QAE@ABU?$less@PAVIClosedCaptionControllerEvent@ZOOMSDK@@@1@@Z 0042b450 f i sdk_util.obj
 0001:0002a450       ??0?$_Tree@V?$_Tset_traits@PAVIMeetingChatCtrlEvent@ZOOMSDK@@U?$less@PAVIMeetingChatCtrlEvent@ZOOMSDK@@@std@@V?$allocator@PAVIMeetingChatCtrlEvent@ZOOMSDK@@@4@$0A@@std@@@std@@QAE@ABU?$less@PAVIMeetingChatCtrlEvent@ZOOMSDK@@@1@@Z 0042b450 f i sdk_util.obj
 0001:0002a480       ??0?$_Tree_temp_node_alloc@V?$allocator@U?$_Tree_node@PAVISDKInMeetingServiceMgrEvent@@PAX@std@@@std@@@std@@QAE@AAV?$allocator@U?$_Tree_node@PAVISDKInMeetingServiceMgrEvent@@PAX@std@@@1@@Z 0042b480 f i sdk_util.obj
 0001:0002a480       ??0?$_Tree_temp_node_alloc@V?$allocator@U?$_Tree_node@PAVIMeetingServiceEvent@ZOOMSDK@@PAX@std@@@std@@@std@@QAE@AAV?$allocator@U?$_Tree_node@PAVIMeetingServiceEvent@ZOOMSDK@@PAX@std@@@1@@Z 0042b480 f i sdk_util.obj
 0001:0002a480       ??0?$_Tree_temp_node_alloc@V?$allocator@U?$_Tree_node@PAVIPreMeetingServiceEvent@ZOOMSDK@@PAX@std@@@std@@@std@@QAE@AAV?$allocator@U?$_Tree_node@PAVIPreMeetingServiceEvent@ZOOMSDK@@PAX@std@@@1@@Z 0042b480 f i sdk_util.obj
 0001:0002a480       ??0?$_Tree_temp_node_alloc@V?$allocator@U?$_Tree_node@PAVIMeetingChatCtrlEvent@ZOOMSDK@@PAX@std@@@std@@@std@@QAE@AAV?$allocator@U?$_Tree_node@PAVIMeetingChatCtrlEvent@ZOOMSDK@@PAX@std@@@1@@Z 0042b480 f i sdk_util.obj
 0001:0002a480       ??0?$_Tree_temp_node_alloc@V?$allocator@U?$_Tree_node@PAVIMeetingVideoCtrlEvent@ZOOMSDK@@PAX@std@@@std@@@std@@QAE@AAV?$allocator@U?$_Tree_node@PAVIMeetingVideoCtrlEvent@ZOOMSDK@@PAX@std@@@1@@Z 0042b480 f i sdk_util.obj
 0001:0002a480       ??0?$_Tree_temp_node_alloc@V?$allocator@U?$_Tree_node@PAVIAuthServiceEvent@ZOOMSDK@@PAX@std@@@std@@@std@@QAE@AAV?$allocator@U?$_Tree_node@PAVIAuthServiceEvent@ZOOMSDK@@PAX@std@@@1@@Z 0042b480 f i sdk_util.obj
 0001:0002a480       ??0?$_Tree_temp_node_alloc@V?$allocator@U?$_Tree_node@PAVIClosedCaptionControllerEvent@ZOOMSDK@@PAX@std@@@std@@@std@@QAE@AAV?$allocator@U?$_Tree_node@PAVIClosedCaptionControllerEvent@ZOOMSDK@@PAX@std@@@1@@Z 0042b480 f i sdk_util.obj
 0001:0002a480       ??0?$_Tree_temp_node_alloc@V?$allocator@U?$_Tree_node@PAVIMeetingParticipantsCtrlEvent@ZOOMSDK@@PAX@std@@@std@@@std@@QAE@AAV?$allocator@U?$_Tree_node@PAVIMeetingParticipantsCtrlEvent@ZOOMSDK@@PAX@std@@@1@@Z 0042b480 f i sdk_util.obj
 0001:0002a4e0       ??0?$set@PAVIMeetingVideoCtrlEvent@ZOOMSDK@@U?$less@PAVIMeetingVideoCtrlEvent@ZOOMSDK@@@std@@V?$allocator@PAVIMeetingVideoCtrlEvent@ZOOMSDK@@@4@@std@@QAE@XZ 0042b4e0 f i sdk_util.obj
 0001:0002a4e0       ??0?$set@PAVIClosedCaptionControllerEvent@ZOOMSDK@@U?$less@PAVIClosedCaptionControllerEvent@ZOOMSDK@@@std@@V?$allocator@PAVIClosedCaptionControllerEvent@ZOOMSDK@@@4@@std@@QAE@XZ 0042b4e0 f i sdk_util.obj
 0001:0002a4e0       ??0?$set@PAVIMeetingChatCtrlEvent@ZOOMSDK@@U?$less@PAVIMeetingChatCtrlEvent@ZOOMSDK@@@std@@V?$allocator@PAVIMeetingChatCtrlEvent@ZOOMSDK@@@4@@std@@QAE@XZ 0042b4e0 f i sdk_util.obj
 0001:0002a4e0       ??0?$set@PAVISDKInMeetingServiceMgrEvent@@U?$less@PAVISDKInMeetingServiceMgrEvent@@@std@@V?$allocator@PAVISDKInMeetingServiceMgrEvent@@@3@@std@@QAE@XZ 0042b4e0 f i sdk_util.obj
 0001:0002a4e0       ??0?$set@PAVIPreMeetingServiceEvent@ZOOMSDK@@U?$less@PAVIPreMeetingServiceEvent@ZOOMSDK@@@std@@V?$allocator@PAVIPreMeetingServiceEvent@ZOOMSDK@@@4@@std@@QAE@XZ 0042b4e0 f i sdk_util.obj
 0001:0002a4e0       ??0?$set@PAVIAuthServiceEvent@ZOOMSDK@@U?$less@PAVIAuthServiceEvent@ZOOMSDK@@@std@@V?$allocator@PAVIAuthServiceEvent@ZOOMSDK@@@4@@std@@QAE@XZ 0042b4e0 f i sdk_util.obj
 0001:0002a4e0       ??0?$set@PAVIMeetingServiceEvent@ZOOMSDK@@U?$less@PAVIMeetingServiceEvent@ZOOMSDK@@@std@@V?$allocator@PAVIMeetingServiceEvent@ZOOMSDK@@@4@@std@@QAE@XZ 0042b4e0 f i sdk_util.obj
 0001:0002a4e0       ??0?$set@PAVIMeetingParticipantsCtrlEvent@ZOOMSDK@@U?$less@PAVIMeetingParticipantsCtrlEvent@ZOOMSDK@@@std@@V?$allocator@PAVIMeetingParticipantsCtrlEvent@ZOOMSDK@@@4@@std@@QAE@XZ 0042b4e0 f i sdk_util.obj
 0001:0002a500       ??0STRINGorID@DuiLib@@QAE@PB_W@Z 0042b500 f i DuiLib:Utils.obj
 0001:0002a500       ??0CAtlException@ATL@@QAE@J@Z 0042b500 f i sdk_util.obj
 0001:0002a520       ??0CComAutoCriticalSection@ATL@@QAE@XZ 0042b520 f i sdk_util.obj
 0001:0002a590       ??0SDKInterfaceWrap@@AAE@XZ 0042b590 f   sdk_util.obj
 0001:0002a790       ??1?$EventSinkPool@VIAuthServiceEvent@ZOOMSDK@@@@UAE@XZ 0042b790 f i sdk_util.obj
 0001:0002a7e0       ??1?$EventSinkPool@VIClosedCaptionControllerEvent@ZOOMSDK@@@@UAE@XZ 0042b7e0 f i sdk_util.obj
 0001:0002a830       ??1?$EventSinkPool@VIMeetingChatCtrlEvent@ZOOMSDK@@@@UAE@XZ 0042b830 f i sdk_util.obj
 0001:0002a880       ??1?$EventSinkPool@VIMeetingParticipantsCtrlEvent@ZOOMSDK@@@@UAE@XZ 0042b880 f i sdk_util.obj
 0001:0002a8d0       ??1?$EventSinkPool@VIMeetingServiceEvent@ZOOMSDK@@@@UAE@XZ 0042b8d0 f i sdk_util.obj
 0001:0002a920       ??1?$EventSinkPool@VIMeetingVideoCtrlEvent@ZOOMSDK@@@@UAE@XZ 0042b920 f i sdk_util.obj
 0001:0002a970       ??1?$EventSinkPool@VIPreMeetingServiceEvent@ZOOMSDK@@@@UAE@XZ 0042b970 f i sdk_util.obj
 0001:0002a9c0       ??1?$EventSinkPool@VISDKInMeetingServiceMgrEvent@@@@UAE@XZ 0042b9c0 f i sdk_util.obj
 0001:0002aa10       ??1?$_Alloc_construct_ptr@V?$allocator@U?$_Tree_node@PAVIMeetingVideoCtrlEvent@ZOOMSDK@@PAX@std@@@std@@@std@@QAE@XZ 0042ba10 f i sdk_util.obj
 0001:0002aa10       ??1?$_Alloc_construct_ptr@V?$allocator@U?$_Tree_node@PAVIMeetingChatCtrlEvent@ZOOMSDK@@PAX@std@@@std@@@std@@QAE@XZ 0042ba10 f i sdk_util.obj
 0001:0002aa10       ??1?$_Alloc_construct_ptr@V?$allocator@U?$_Tree_node@PAVIPreMeetingServiceEvent@ZOOMSDK@@PAX@std@@@std@@@std@@QAE@XZ 0042ba10 f i sdk_util.obj
 0001:0002aa10       ??1?$_Alloc_construct_ptr@V?$allocator@U?$_Tree_node@PAVIMeetingParticipantsCtrlEvent@ZOOMSDK@@PAX@std@@@std@@@std@@QAE@XZ 0042ba10 f i sdk_util.obj
 0001:0002aa10       ??1?$_Alloc_construct_ptr@V?$allocator@U?$_Tree_node@PAVIMeetingServiceEvent@ZOOMSDK@@PAX@std@@@std@@@std@@QAE@XZ 0042ba10 f i sdk_util.obj
 0001:0002aa10       ??1?$_Alloc_construct_ptr@V?$allocator@U?$_Tree_node@PAVISDKInMeetingServiceMgrEvent@@PAX@std@@@std@@@std@@QAE@XZ 0042ba10 f i sdk_util.obj
 0001:0002aa10       ??1?$_Alloc_construct_ptr@V?$allocator@U?$_Tree_node@PAVIClosedCaptionControllerEvent@ZOOMSDK@@PAX@std@@@std@@@std@@QAE@XZ 0042ba10 f i sdk_util.obj
 0001:0002aa10       ??1?$_Alloc_construct_ptr@V?$allocator@U?$_Tree_node@PAVIAuthServiceEvent@ZOOMSDK@@PAX@std@@@std@@@std@@QAE@XZ 0042ba10 f i sdk_util.obj
 0001:0002aa70       ??1?$_Tree@V?$_Tset_traits@PAVIPreMeetingServiceEvent@ZOOMSDK@@U?$less@PAVIPreMeetingServiceEvent@ZOOMSDK@@@std@@V?$allocator@PAVIPreMeetingServiceEvent@ZOOMSDK@@@4@$0A@@std@@@std@@QAE@XZ 0042ba70 f i sdk_util.obj
 0001:0002aa70       ??1?$_Tree@V?$_Tset_traits@PAVIMeetingChatCtrlEvent@ZOOMSDK@@U?$less@PAVIMeetingChatCtrlEvent@ZOOMSDK@@@std@@V?$allocator@PAVIMeetingChatCtrlEvent@ZOOMSDK@@@4@$0A@@std@@@std@@QAE@XZ 0042ba70 f i sdk_util.obj
 0001:0002aa70       ??1?$_Tree@V?$_Tset_traits@PAVIMeetingServiceEvent@ZOOMSDK@@U?$less@PAVIMeetingServiceEvent@ZOOMSDK@@@std@@V?$allocator@PAVIMeetingServiceEvent@ZOOMSDK@@@4@$0A@@std@@@std@@QAE@XZ 0042ba70 f i sdk_util.obj
 0001:0002aa70       ??1?$_Tree@V?$_Tset_traits@PAVISDKInMeetingServiceMgrEvent@@U?$less@PAVISDKInMeetingServiceMgrEvent@@@std@@V?$allocator@PAVISDKInMeetingServiceMgrEvent@@@3@$0A@@std@@@std@@QAE@XZ 0042ba70 f i sdk_util.obj
 0001:0002aa70       ??1?$_Tree@V?$_Tset_traits@PAVIMeetingVideoCtrlEvent@ZOOMSDK@@U?$less@PAVIMeetingVideoCtrlEvent@ZOOMSDK@@@std@@V?$allocator@PAVIMeetingVideoCtrlEvent@ZOOMSDK@@@4@$0A@@std@@@std@@QAE@XZ 0042ba70 f i sdk_util.obj
 0001:0002aa70       ??1?$_Tree@V?$_Tset_traits@PAVIAuthServiceEvent@ZOOMSDK@@U?$less@PAVIAuthServiceEvent@ZOOMSDK@@@std@@V?$allocator@PAVIAuthServiceEvent@ZOOMSDK@@@4@$0A@@std@@@std@@QAE@XZ 0042ba70 f i sdk_util.obj
 0001:0002aa70       ??1?$_Tree@V?$_Tset_traits@PAVIMeetingParticipantsCtrlEvent@ZOOMSDK@@U?$less@PAVIMeetingParticipantsCtrlEvent@ZOOMSDK@@@std@@V?$allocator@PAVIMeetingParticipantsCtrlEvent@ZOOMSDK@@@4@$0A@@std@@@std@@QAE@XZ 0042ba70 f i sdk_util.obj
 0001:0002aa70       ??1?$_Tree@V?$_Tset_traits@PAVIClosedCaptionControllerEvent@ZOOMSDK@@U?$less@PAVIClosedCaptionControllerEvent@ZOOMSDK@@@std@@V?$allocator@PAVIClosedCaptionControllerEvent@ZOOMSDK@@@4@$0A@@std@@@std@@QAE@XZ 0042ba70 f i sdk_util.obj
 0001:0002aaa0       ??1?$_Tree_temp_node@V?$allocator@U?$_Tree_node@PAVIPreMeetingServiceEvent@ZOOMSDK@@PAX@std@@@std@@@std@@QAE@XZ 0042baa0 f i sdk_util.obj
 0001:0002aaa0       ??1?$_Tree_temp_node@V?$allocator@U?$_Tree_node@PAVIMeetingParticipantsCtrlEvent@ZOOMSDK@@PAX@std@@@std@@@std@@QAE@XZ 0042baa0 f i sdk_util.obj
 0001:0002aaa0       ??1?$_Tree_temp_node@V?$allocator@U?$_Tree_node@PAVIAuthServiceEvent@ZOOMSDK@@PAX@std@@@std@@@std@@QAE@XZ 0042baa0 f i sdk_util.obj
 0001:0002aaa0       ??1?$_Tree_temp_node@V?$allocator@U?$_Tree_node@PAVISDKInMeetingServiceMgrEvent@@PAX@std@@@std@@@std@@QAE@XZ 0042baa0 f i sdk_util.obj
 0001:0002aaa0       ??1?$_Tree_temp_node@V?$allocator@U?$_Tree_node@PAVIMeetingChatCtrlEvent@ZOOMSDK@@PAX@std@@@std@@@std@@QAE@XZ 0042baa0 f i sdk_util.obj
 0001:0002aaa0       ??1?$_Tree_temp_node@V?$allocator@U?$_Tree_node@PAVIMeetingVideoCtrlEvent@ZOOMSDK@@PAX@std@@@std@@@std@@QAE@XZ 0042baa0 f i sdk_util.obj
 0001:0002aaa0       ??1?$_Tree_temp_node@V?$allocator@U?$_Tree_node@PAVIMeetingServiceEvent@ZOOMSDK@@PAX@std@@@std@@@std@@QAE@XZ 0042baa0 f i sdk_util.obj
 0001:0002aaa0       ??1?$_Tree_temp_node@V?$allocator@U?$_Tree_node@PAVIClosedCaptionControllerEvent@ZOOMSDK@@PAX@std@@@std@@@std@@QAE@XZ 0042baa0 f i sdk_util.obj
 0001:0002ab40       ??1?$_Tree_temp_node_alloc@V?$allocator@U?$_Tree_node@PAVIMeetingChatCtrlEvent@ZOOMSDK@@PAX@std@@@std@@@std@@QAE@XZ 0042bb40 f i sdk_util.obj
 0001:0002ab40       ??1?$_Tree_temp_node_alloc@V?$allocator@U?$_Tree_node@PAVIPreMeetingServiceEvent@ZOOMSDK@@PAX@std@@@std@@@std@@QAE@XZ 0042bb40 f i sdk_util.obj
 0001:0002ab40       ??1?$_Tree_temp_node_alloc@V?$allocator@U?$_Tree_node@PAVIMeetingParticipantsCtrlEvent@ZOOMSDK@@PAX@std@@@std@@@std@@QAE@XZ 0042bb40 f i sdk_util.obj
 0001:0002ab40       ??1?$_Tree_temp_node_alloc@V?$allocator@U?$_Tree_node@PAVIClosedCaptionControllerEvent@ZOOMSDK@@PAX@std@@@std@@@std@@QAE@XZ 0042bb40 f i sdk_util.obj
 0001:0002ab40       ??1?$_Tree_temp_node_alloc@V?$allocator@U?$_Tree_node@PAVIMeetingServiceEvent@ZOOMSDK@@PAX@std@@@std@@@std@@QAE@XZ 0042bb40 f i sdk_util.obj
 0001:0002ab40       ??1?$_Tree_temp_node_alloc@V?$allocator@U?$_Tree_node@PAVISDKInMeetingServiceMgrEvent@@PAX@std@@@std@@@std@@QAE@XZ 0042bb40 f i sdk_util.obj
 0001:0002ab40       ??1?$_Tree_temp_node_alloc@V?$allocator@U?$_Tree_node@PAVIAuthServiceEvent@ZOOMSDK@@PAX@std@@@std@@@std@@QAE@XZ 0042bb40 f i sdk_util.obj
 0001:0002ab40       ??1?$_Tree_temp_node_alloc@V?$allocator@U?$_Tree_node@PAVIMeetingVideoCtrlEvent@ZOOMSDK@@PAX@std@@@std@@@std@@QAE@XZ 0042bb40 f i sdk_util.obj
 0001:0002ab60       ??1?$set@PAVIClosedCaptionControllerEvent@ZOOMSDK@@U?$less@PAVIClosedCaptionControllerEvent@ZOOMSDK@@@std@@V?$allocator@PAVIClosedCaptionControllerEvent@ZOOMSDK@@@4@@std@@QAE@XZ 0042bb60 f i sdk_util.obj
 0001:0002ab60       ??1?$set@PAVIMeetingServiceEvent@ZOOMSDK@@U?$less@PAVIMeetingServiceEvent@ZOOMSDK@@@std@@V?$allocator@PAVIMeetingServiceEvent@ZOOMSDK@@@4@@std@@QAE@XZ 0042bb60 f i sdk_util.obj
 0001:0002ab60       ??1?$set@PAVIMeetingChatCtrlEvent@ZOOMSDK@@U?$less@PAVIMeetingChatCtrlEvent@ZOOMSDK@@@std@@V?$allocator@PAVIMeetingChatCtrlEvent@ZOOMSDK@@@4@@std@@QAE@XZ 0042bb60 f i sdk_util.obj
 0001:0002ab60       ??1?$set@PAVIPreMeetingServiceEvent@ZOOMSDK@@U?$less@PAVIPreMeetingServiceEvent@ZOOMSDK@@@std@@V?$allocator@PAVIPreMeetingServiceEvent@ZOOMSDK@@@4@@std@@QAE@XZ 0042bb60 f i sdk_util.obj
 0001:0002ab60       ??1?$set@PAVIAuthServiceEvent@ZOOMSDK@@U?$less@PAVIAuthServiceEvent@ZOOMSDK@@@std@@V?$allocator@PAVIAuthServiceEvent@ZOOMSDK@@@4@@std@@QAE@XZ 0042bb60 f i sdk_util.obj
 0001:0002ab60       ??1?$set@PAVIMeetingParticipantsCtrlEvent@ZOOMSDK@@U?$less@PAVIMeetingParticipantsCtrlEvent@ZOOMSDK@@@std@@V?$allocator@PAVIMeetingParticipantsCtrlEvent@ZOOMSDK@@@4@@std@@QAE@XZ 0042bb60 f i sdk_util.obj
 0001:0002ab60       ??1?$set@PAVISDKInMeetingServiceMgrEvent@@U?$less@PAVISDKInMeetingServiceMgrEvent@@@std@@V?$allocator@PAVISDKInMeetingServiceMgrEvent@@@3@@std@@QAE@XZ 0042bb60 f i sdk_util.obj
 0001:0002ab60       ??1?$set@PAVIMeetingVideoCtrlEvent@ZOOMSDK@@U?$less@PAVIMeetingVideoCtrlEvent@ZOOMSDK@@@std@@V?$allocator@PAVIMeetingVideoCtrlEvent@ZOOMSDK@@@4@@std@@QAE@XZ 0042bb60 f i sdk_util.obj
 0001:0002ab80       ??1CComAutoCriticalSection@ATL@@QAE@XZ 0042bb80 f i sdk_util.obj
 0001:0002aba0       ??1SDKInterfaceWrap@@EAE@XZ 0042bba0 f   sdk_util.obj
 0001:0002aca0       ??D?$_Tree_const_iterator@V?$_Tree_val@U?$_Tree_simple_types@PAVIClosedCaptionControllerEvent@ZOOMSDK@@@std@@@std@@@std@@QBEABQAVIClosedCaptionControllerEvent@ZOOMSDK@@XZ 0042bca0 f i sdk_util.obj
 0001:0002aca0       ??D?$_Tree_const_iterator@V?$_Tree_val@U?$_Tree_simple_types@PAVIPreMeetingServiceEvent@ZOOMSDK@@@std@@@std@@@std@@QBEABQAVIPreMeetingServiceEvent@ZOOMSDK@@XZ 0042bca0 f i sdk_util.obj
 0001:0002aca0       ??D?$_Tree_const_iterator@V?$_Tree_val@U?$_Tree_simple_types@PAVIMeetingVideoCtrlEvent@ZOOMSDK@@@std@@@std@@@std@@QBEABQAVIMeetingVideoCtrlEvent@ZOOMSDK@@XZ 0042bca0 f i sdk_util.obj
 0001:0002aca0       ??D?$_Tree_unchecked_const_iterator@V?$_Tree_val@U?$_Tree_simple_types@PAVIMeetingServiceEvent@ZOOMSDK@@@std@@@std@@U_Iterator_base0@2@@std@@QBEABQAVIMeetingServiceEvent@ZOOMSDK@@XZ 0042bca0 f i sdk_util.obj
 0001:0002aca0       ??D?$_Tree_const_iterator@V?$_Tree_val@U?$_Tree_simple_types@PAVIMeetingChatCtrlEvent@ZOOMSDK@@@std@@@std@@@std@@QBEABQAVIMeetingChatCtrlEvent@ZOOMSDK@@XZ 0042bca0 f i sdk_util.obj
 0001:0002aca0       ??D?$_Tree_unchecked_const_iterator@V?$_Tree_val@U?$_Tree_simple_types@PAVIAuthServiceEvent@ZOOMSDK@@@std@@@std@@U_Iterator_base0@2@@std@@QBEABQAVIAuthServiceEvent@ZOOMSDK@@XZ 0042bca0 f i sdk_util.obj
 0001:0002aca0       ??D?$_Tree_const_iterator@V?$_Tree_val@U?$_Tree_simple_types@U?$pair@$$CBHW4bkItemType@@@std@@@std@@@std@@@std@@QBEABU?$pair@$$CBHW4bkItemType@@@1@XZ 0042bca0 f i settings_ui.obj
 0001:0002aca0       ??D?$_Tree_unchecked_const_iterator@V?$_Tree_val@U?$_Tree_simple_types@PAVIClosedCaptionControllerEvent@ZOOMSDK@@@std@@@std@@U_Iterator_base0@2@@std@@QBEABQAVIClosedCaptionControllerEvent@ZOOMSDK@@XZ 0042bca0 f i sdk_util.obj
 0001:0002aca0       ??D?$_Tree_unchecked_const_iterator@V?$_Tree_val@U?$_Tree_simple_types@PAVIMeetingParticipantsCtrlEvent@ZOOMSDK@@@std@@@std@@U_Iterator_base0@2@@std@@QBEABQAVIMeetingParticipantsCtrlEvent@ZOOMSDK@@XZ 0042bca0 f i sdk_util.obj
 0001:0002aca0       ??D?$_Tree_const_iterator@V?$_Tree_val@U?$_Tree_simple_types@PAVIAuthServiceEvent@ZOOMSDK@@@std@@@std@@@std@@QBEABQAVIAuthServiceEvent@ZOOMSDK@@XZ 0042bca0 f i sdk_util.obj
 0001:0002aca0       ??D?$_Tree_unchecked_const_iterator@V?$_Tree_val@U?$_Tree_simple_types@PAVISDKInMeetingServiceMgrEvent@@@std@@@std@@U_Iterator_base0@2@@std@@QBEABQAVISDKInMeetingServiceMgrEvent@@XZ 0042bca0 f i sdk_util.obj
 0001:0002aca0       ??D?$_Tree_unchecked_const_iterator@V?$_Tree_val@U?$_Tree_simple_types@PAVIPreMeetingServiceEvent@ZOOMSDK@@@std@@@std@@U_Iterator_base0@2@@std@@QBEABQAVIPreMeetingServiceEvent@ZOOMSDK@@XZ 0042bca0 f i sdk_util.obj
 0001:0002aca0       ??D?$_Tree_const_iterator@V?$_Tree_val@U?$_Tree_simple_types@PAVIMeetingParticipantsCtrlEvent@ZOOMSDK@@@std@@@std@@@std@@QBEABQAVIMeetingParticipantsCtrlEvent@ZOOMSDK@@XZ 0042bca0 f i sdk_util.obj
 0001:0002aca0       ??D?$_Tree_const_iterator@V?$_Tree_val@U?$_Tree_simple_types@PAVIMeetingServiceEvent@ZOOMSDK@@@std@@@std@@@std@@QBEABQAVIMeetingServiceEvent@ZOOMSDK@@XZ 0042bca0 f i sdk_util.obj
 0001:0002aca0       ??D?$_Tree_unchecked_const_iterator@V?$_Tree_val@U?$_Tree_simple_types@PAVIMeetingVideoCtrlEvent@ZOOMSDK@@@std@@@std@@U_Iterator_base0@2@@std@@QBEABQAVIMeetingVideoCtrlEvent@ZOOMSDK@@XZ 0042bca0 f i sdk_util.obj
 0001:0002aca0       ??D?$_Tree_const_iterator@V?$_Tree_val@U?$_Tree_simple_types@PAVISDKInMeetingServiceMgrEvent@@@std@@@std@@@std@@QBEABQAVISDKInMeetingServiceMgrEvent@@XZ 0042bca0 f i sdk_util.obj
 0001:0002aca0       ??D?$_Tree_unchecked_const_iterator@V?$_Tree_val@U?$_Tree_simple_types@PAVIMeetingChatCtrlEvent@ZOOMSDK@@@std@@@std@@U_Iterator_base0@2@@std@@QBEABQAVIMeetingChatCtrlEvent@ZOOMSDK@@XZ 0042bca0 f i sdk_util.obj
 0001:0002acc0       ??E?$_Tree_const_iterator@V?$_Tree_val@U?$_Tree_simple_types@PAVIMeetingParticipantsCtrlEvent@ZOOMSDK@@@std@@@std@@@std@@QAE?AV01@H@Z 0042bcc0 f i sdk_util.obj
 0001:0002acc0       ??E?$_Tree_const_iterator@V?$_Tree_val@U?$_Tree_simple_types@PAVIMeetingVideoCtrlEvent@ZOOMSDK@@@std@@@std@@@std@@QAE?AV01@H@Z 0042bcc0 f i sdk_util.obj
 0001:0002acc0       ??E?$_Tree_const_iterator@V?$_Tree_val@U?$_Tree_simple_types@PAVIMeetingChatCtrlEvent@ZOOMSDK@@@std@@@std@@@std@@QAE?AV01@H@Z 0042bcc0 f i sdk_util.obj
 0001:0002acc0       ??E?$_Tree_const_iterator@V?$_Tree_val@U?$_Tree_simple_types@PAVIClosedCaptionControllerEvent@ZOOMSDK@@@std@@@std@@@std@@QAE?AV01@H@Z 0042bcc0 f i sdk_util.obj
 0001:0002acc0       ??E?$_Tree_const_iterator@V?$_Tree_val@U?$_Tree_simple_types@PAVIPreMeetingServiceEvent@ZOOMSDK@@@std@@@std@@@std@@QAE?AV01@H@Z 0042bcc0 f i sdk_util.obj
 0001:0002acc0       ??E?$_Tree_const_iterator@V?$_Tree_val@U?$_Tree_simple_types@PAVIMeetingServiceEvent@ZOOMSDK@@@std@@@std@@@std@@QAE?AV01@H@Z 0042bcc0 f i sdk_util.obj
 0001:0002acc0       ??E?$_Tree_const_iterator@V?$_Tree_val@U?$_Tree_simple_types@PAVISDKInMeetingServiceMgrEvent@@@std@@@std@@@std@@QAE?AV01@H@Z 0042bcc0 f i sdk_util.obj
 0001:0002acc0       ??E?$_Tree_const_iterator@V?$_Tree_val@U?$_Tree_simple_types@PAVIAuthServiceEvent@ZOOMSDK@@@std@@@std@@@std@@QAE?AV01@H@Z 0042bcc0 f i sdk_util.obj
 0001:0002acf0       ??E?$_Tree_const_iterator@V?$_Tree_val@U?$_Tree_simple_types@PAVIMeetingChatCtrlEvent@ZOOMSDK@@@std@@@std@@@std@@QAEAAV01@XZ 0042bcf0 f i sdk_util.obj
 0001:0002acf0       ??E?$_Tree_const_iterator@V?$_Tree_val@U?$_Tree_simple_types@PAVIMeetingServiceEvent@ZOOMSDK@@@std@@@std@@@std@@QAEAAV01@XZ 0042bcf0 f i sdk_util.obj
 0001:0002acf0       ??E?$_Tree_const_iterator@V?$_Tree_val@U?$_Tree_simple_types@PAVIClosedCaptionControllerEvent@ZOOMSDK@@@std@@@std@@@std@@QAEAAV01@XZ 0042bcf0 f i sdk_util.obj
 0001:0002acf0       ??E?$_Tree_const_iterator@V?$_Tree_val@U?$_Tree_simple_types@PAVISDKInMeetingServiceMgrEvent@@@std@@@std@@@std@@QAEAAV01@XZ 0042bcf0 f i sdk_util.obj
 0001:0002acf0       ??E?$_Tree_const_iterator@V?$_Tree_val@U?$_Tree_simple_types@PAVIAuthServiceEvent@ZOOMSDK@@@std@@@std@@@std@@QAEAAV01@XZ 0042bcf0 f i sdk_util.obj
 0001:0002acf0       ??E?$_Tree_const_iterator@V?$_Tree_val@U?$_Tree_simple_types@PAVIPreMeetingServiceEvent@ZOOMSDK@@@std@@@std@@@std@@QAEAAV01@XZ 0042bcf0 f i sdk_util.obj
 0001:0002acf0       ??E?$_Tree_const_iterator@V?$_Tree_val@U?$_Tree_simple_types@PAVIMeetingParticipantsCtrlEvent@ZOOMSDK@@@std@@@std@@@std@@QAEAAV01@XZ 0042bcf0 f i sdk_util.obj
 0001:0002acf0       ??E?$_Tree_const_iterator@V?$_Tree_val@U?$_Tree_simple_types@PAVIMeetingVideoCtrlEvent@ZOOMSDK@@@std@@@std@@@std@@QAEAAV01@XZ 0042bcf0 f i sdk_util.obj
 0001:0002ad10       ??E?$_Tree_unchecked_const_iterator@V?$_Tree_val@U?$_Tree_simple_types@PAVIAuthServiceEvent@ZOOMSDK@@@std@@@std@@U_Iterator_base0@2@@std@@QAE?AV01@H@Z 0042bd10 f i sdk_util.obj
 0001:0002ad10       ??E?$_Tree_unchecked_const_iterator@V?$_Tree_val@U?$_Tree_simple_types@PAVIMeetingParticipantsCtrlEvent@ZOOMSDK@@@std@@@std@@U_Iterator_base0@2@@std@@QAE?AV01@H@Z 0042bd10 f i sdk_util.obj
 0001:0002ad10       ??E?$_Tree_unchecked_const_iterator@V?$_Tree_val@U?$_Tree_simple_types@PAVIMeetingChatCtrlEvent@ZOOMSDK@@@std@@@std@@U_Iterator_base0@2@@std@@QAE?AV01@H@Z 0042bd10 f i sdk_util.obj
 0001:0002ad10       ??E?$_Tree_unchecked_const_iterator@V?$_Tree_val@U?$_Tree_simple_types@PAVIClosedCaptionControllerEvent@ZOOMSDK@@@std@@@std@@U_Iterator_base0@2@@std@@QAE?AV01@H@Z 0042bd10 f i sdk_util.obj
 0001:0002ad10       ??E?$_Tree_unchecked_const_iterator@V?$_Tree_val@U?$_Tree_simple_types@PAVISDKInMeetingServiceMgrEvent@@@std@@@std@@U_Iterator_base0@2@@std@@QAE?AV01@H@Z 0042bd10 f i sdk_util.obj
 0001:0002ad10       ??E?$_Tree_unchecked_const_iterator@V?$_Tree_val@U?$_Tree_simple_types@PAVIMeetingServiceEvent@ZOOMSDK@@@std@@@std@@U_Iterator_base0@2@@std@@QAE?AV01@H@Z 0042bd10 f i sdk_util.obj
 0001:0002ad10       ??E?$_Tree_unchecked_const_iterator@V?$_Tree_val@U?$_Tree_simple_types@U?$pair@$$CBHW4bkItemType@@@std@@@std@@@std@@U_Iterator_base0@2@@std@@QAE?AV01@H@Z 0042bd10 f i settings_ui.obj
 0001:0002ad10       ??E?$_Tree_unchecked_const_iterator@V?$_Tree_val@U?$_Tree_simple_types@PAVIPreMeetingServiceEvent@ZOOMSDK@@@std@@@std@@U_Iterator_base0@2@@std@@QAE?AV01@H@Z 0042bd10 f i sdk_util.obj
 0001:0002ad40       ??E?$_Tree_unchecked_const_iterator@V?$_Tree_val@U?$_Tree_simple_types@U?$pair@$$CBIPAVIUserInfo@ZOOMSDK@@@std@@@std@@@std@@U_Iterator_base0@2@@std@@QAEAAV01@XZ 0042bd40 f i user_manager.obj
 0001:0002ad40       ??E?$_Tree_unchecked_const_iterator@V?$_Tree_val@U?$_Tree_simple_types@PAVIMeetingVideoCtrlEvent@ZOOMSDK@@@std@@@std@@U_Iterator_base0@2@@std@@QAEAAV01@XZ 0042bd40 f i sdk_util.obj
 0001:0002ad40       ??E?$_Tree_unchecked_const_iterator@V?$_Tree_val@U?$_Tree_simple_types@PAVIPreMeetingServiceEvent@ZOOMSDK@@@std@@@std@@U_Iterator_base0@2@@std@@QAEAAV01@XZ 0042bd40 f i sdk_util.obj
 0001:0002ad40       ??E?$_Tree_unchecked_const_iterator@V?$_Tree_val@U?$_Tree_simple_types@PAVIClosedCaptionControllerEvent@ZOOMSDK@@@std@@@std@@U_Iterator_base0@2@@std@@QAEAAV01@XZ 0042bd40 f i sdk_util.obj
 0001:0002ad40       ??E?$_Tree_unchecked_const_iterator@V?$_Tree_val@U?$_Tree_simple_types@PAVIMeetingParticipantsCtrlEvent@ZOOMSDK@@@std@@@std@@U_Iterator_base0@2@@std@@QAEAAV01@XZ 0042bd40 f i sdk_util.obj
 0001:0002ad40       ??E?$_Tree_unchecked_const_iterator@V?$_Tree_val@U?$_Tree_simple_types@PAVISDKInMeetingServiceMgrEvent@@@std@@@std@@U_Iterator_base0@2@@std@@QAEAAV01@XZ 0042bd40 f i sdk_util.obj
 0001:0002ad40       ??E?$_Tree_unchecked_const_iterator@V?$_Tree_val@U?$_Tree_simple_types@U?$pair@$$CBHW4bkItemType@@@std@@@std@@@std@@U_Iterator_base0@2@@std@@QAEAAV01@XZ 0042bd40 f i settings_ui.obj
 0001:0002ad40       ??E?$_Tree_unchecked_const_iterator@V?$_Tree_val@U?$_Tree_simple_types@PAVIMeetingChatCtrlEvent@ZOOMSDK@@@std@@@std@@U_Iterator_base0@2@@std@@QAEAAV01@XZ 0042bd40 f i sdk_util.obj
 0001:0002ad40       ??E?$_Tree_unchecked_const_iterator@V?$_Tree_val@U?$_Tree_simple_types@PAVIMeetingServiceEvent@ZOOMSDK@@@std@@@std@@U_Iterator_base0@2@@std@@QAEAAV01@XZ 0042bd40 f i sdk_util.obj
 0001:0002ad40       ??E?$_Tree_unchecked_const_iterator@V?$_Tree_val@U?$_Tree_simple_types@PAVIAuthServiceEvent@ZOOMSDK@@@std@@@std@@U_Iterator_base0@2@@std@@QAEAAV01@XZ 0042bd40 f i sdk_util.obj
 0001:0002adb0       ??F?$_Tree_unchecked_const_iterator@V?$_Tree_val@U?$_Tree_simple_types@PAVIMeetingServiceEvent@ZOOMSDK@@@std@@@std@@U_Iterator_base0@2@@std@@QAEAAV01@XZ 0042bdb0 f i sdk_util.obj
 0001:0002adb0       ??F?$_Tree_unchecked_const_iterator@V?$_Tree_val@U?$_Tree_simple_types@PAVIMeetingChatCtrlEvent@ZOOMSDK@@@std@@@std@@U_Iterator_base0@2@@std@@QAEAAV01@XZ 0042bdb0 f i sdk_util.obj
 0001:0002adb0       ??F?$_Tree_unchecked_const_iterator@V?$_Tree_val@U?$_Tree_simple_types@PAVIMeetingVideoCtrlEvent@ZOOMSDK@@@std@@@std@@U_Iterator_base0@2@@std@@QAEAAV01@XZ 0042bdb0 f i sdk_util.obj
 0001:0002adb0       ??F?$_Tree_unchecked_const_iterator@V?$_Tree_val@U?$_Tree_simple_types@PAVIPreMeetingServiceEvent@ZOOMSDK@@@std@@@std@@U_Iterator_base0@2@@std@@QAEAAV01@XZ 0042bdb0 f i sdk_util.obj
 0001:0002adb0       ??F?$_Tree_unchecked_const_iterator@V?$_Tree_val@U?$_Tree_simple_types@PAVIMeetingParticipantsCtrlEvent@ZOOMSDK@@@std@@@std@@U_Iterator_base0@2@@std@@QAEAAV01@XZ 0042bdb0 f i sdk_util.obj
 0001:0002adb0       ??F?$_Tree_unchecked_const_iterator@V?$_Tree_val@U?$_Tree_simple_types@PAVIAuthServiceEvent@ZOOMSDK@@@std@@@std@@U_Iterator_base0@2@@std@@QAEAAV01@XZ 0042bdb0 f i sdk_util.obj
 0001:0002adb0       ??F?$_Tree_unchecked_const_iterator@V?$_Tree_val@U?$_Tree_simple_types@PAVISDKInMeetingServiceMgrEvent@@@std@@@std@@U_Iterator_base0@2@@std@@QAEAAV01@XZ 0042bdb0 f i sdk_util.obj
 0001:0002adb0       ??F?$_Tree_unchecked_const_iterator@V?$_Tree_val@U?$_Tree_simple_types@PAVIClosedCaptionControllerEvent@ZOOMSDK@@@std@@@std@@U_Iterator_base0@2@@std@@QAEAAV01@XZ 0042bdb0 f i sdk_util.obj
 0001:0002ae50       ??R?$less@PAVIMeetingParticipantsCtrlEvent@ZOOMSDK@@@std@@QBE_NABQAVIMeetingParticipantsCtrlEvent@ZOOMSDK@@0@Z 0042be50 f i sdk_util.obj
 0001:0002ae50       ??R?$less@PAVIMeetingVideoCtrlEvent@ZOOMSDK@@@std@@QBE_NABQAVIMeetingVideoCtrlEvent@ZOOMSDK@@0@Z 0042be50 f i sdk_util.obj
 0001:0002ae50       ??R?$less@PAVISDKInMeetingServiceMgrEvent@@@std@@QBE_NABQAVISDKInMeetingServiceMgrEvent@@0@Z 0042be50 f i sdk_util.obj
 0001:0002ae50       ??R?$less@PAVIMeetingChatCtrlEvent@ZOOMSDK@@@std@@QBE_NABQAVIMeetingChatCtrlEvent@ZOOMSDK@@0@Z 0042be50 f i sdk_util.obj
 0001:0002ae50       ??R?$less@I@std@@QBE_NABI0@Z 0042be50 f i user_manager.obj
 0001:0002ae50       ??R?$less@PAVIClosedCaptionControllerEvent@ZOOMSDK@@@std@@QBE_NABQAVIClosedCaptionControllerEvent@ZOOMSDK@@0@Z 0042be50 f i sdk_util.obj
 0001:0002ae50       ??R?$less@PAVIMeetingServiceEvent@ZOOMSDK@@@std@@QBE_NABQAVIMeetingServiceEvent@ZOOMSDK@@0@Z 0042be50 f i sdk_util.obj
 0001:0002ae50       ??R?$less@PAVIPreMeetingServiceEvent@ZOOMSDK@@@std@@QBE_NABQAVIPreMeetingServiceEvent@ZOOMSDK@@0@Z 0042be50 f i sdk_util.obj
 0001:0002ae50       ??R?$less@PAVIAuthServiceEvent@ZOOMSDK@@@std@@QBE_NABQAVIAuthServiceEvent@ZOOMSDK@@0@Z 0042be50 f i sdk_util.obj
 0001:0002ae80       ??_E?$EventSinkPool@VIAuthServiceEvent@ZOOMSDK@@@@UAEPAXI@Z 0042be80 f i sdk_util.obj
 0001:0002ae80       ??_G?$EventSinkPool@VIAuthServiceEvent@ZOOMSDK@@@@UAEPAXI@Z 0042be80 f i sdk_util.obj
 0001:0002aeb0       ??_G?$EventSinkPool@VIClosedCaptionControllerEvent@ZOOMSDK@@@@UAEPAXI@Z 0042beb0 f i sdk_util.obj
 0001:0002aeb0       ??_E?$EventSinkPool@VIClosedCaptionControllerEvent@ZOOMSDK@@@@UAEPAXI@Z 0042beb0 f i sdk_util.obj
 0001:0002aee0       ??_G?$EventSinkPool@VIMeetingChatCtrlEvent@ZOOMSDK@@@@UAEPAXI@Z 0042bee0 f i sdk_util.obj
 0001:0002aee0       ??_E?$EventSinkPool@VIMeetingChatCtrlEvent@ZOOMSDK@@@@UAEPAXI@Z 0042bee0 f i sdk_util.obj
 0001:0002af10       ??_E?$EventSinkPool@VIMeetingParticipantsCtrlEvent@ZOOMSDK@@@@UAEPAXI@Z 0042bf10 f i sdk_util.obj
 0001:0002af10       ??_G?$EventSinkPool@VIMeetingParticipantsCtrlEvent@ZOOMSDK@@@@UAEPAXI@Z 0042bf10 f i sdk_util.obj
 0001:0002af40       ??_E?$EventSinkPool@VIMeetingServiceEvent@ZOOMSDK@@@@UAEPAXI@Z 0042bf40 f i sdk_util.obj
 0001:0002af40       ??_G?$EventSinkPool@VIMeetingServiceEvent@ZOOMSDK@@@@UAEPAXI@Z 0042bf40 f i sdk_util.obj
 0001:0002af70       ??_E?$EventSinkPool@VIMeetingVideoCtrlEvent@ZOOMSDK@@@@UAEPAXI@Z 0042bf70 f i sdk_util.obj
 0001:0002af70       ??_G?$EventSinkPool@VIMeetingVideoCtrlEvent@ZOOMSDK@@@@UAEPAXI@Z 0042bf70 f i sdk_util.obj
 0001:0002afa0       ??_E?$EventSinkPool@VIPreMeetingServiceEvent@ZOOMSDK@@@@UAEPAXI@Z 0042bfa0 f i sdk_util.obj
 0001:0002afa0       ??_G?$EventSinkPool@VIPreMeetingServiceEvent@ZOOMSDK@@@@UAEPAXI@Z 0042bfa0 f i sdk_util.obj
 0001:0002afd0       ??_E?$EventSinkPool@VISDKInMeetingServiceMgrEvent@@@@UAEPAXI@Z 0042bfd0 f i sdk_util.obj
 0001:0002afd0       ??_G?$EventSinkPool@VISDKInMeetingServiceMgrEvent@@@@UAEPAXI@Z 0042bfd0 f i sdk_util.obj
 0001:0002b000       ??_ESDKInterfaceWrap@@EAEPAXI@Z 0042c000 f i sdk_util.obj
 0001:0002b000       ??_GSDKInterfaceWrap@@EAEPAXI@Z 0042c000 f i sdk_util.obj
 0001:0002b040       ?ActiveWindowToTop@@YAXPAUHWND__@@H@Z 0042c040 f   sdk_util.obj
 0001:0002b140       ?AddListener@?$EventSinkPool@VIPreMeetingServiceEvent@ZOOMSDK@@@@QAEXPAVIPreMeetingServiceEvent@ZOOMSDK@@@Z 0042c140 f i sdk_util.obj
 0001:0002b140       ?AddListener@?$EventSinkPool@VIMeetingVideoCtrlEvent@ZOOMSDK@@@@QAEXPAVIMeetingVideoCtrlEvent@ZOOMSDK@@@Z 0042c140 f i sdk_util.obj
 0001:0002b140       ?AddListener@?$EventSinkPool@VIClosedCaptionControllerEvent@ZOOMSDK@@@@QAEXPAVIClosedCaptionControllerEvent@ZOOMSDK@@@Z 0042c140 f i sdk_util.obj
 0001:0002b140       ?AddListener@?$EventSinkPool@VIAuthServiceEvent@ZOOMSDK@@@@QAEXPAVIAuthServiceEvent@ZOOMSDK@@@Z 0042c140 f i sdk_util.obj
 0001:0002b140       ?AddListener@?$EventSinkPool@VIMeetingChatCtrlEvent@ZOOMSDK@@@@QAEXPAVIMeetingChatCtrlEvent@ZOOMSDK@@@Z 0042c140 f i sdk_util.obj
 0001:0002b140       ?AddListener@?$EventSinkPool@VIMeetingParticipantsCtrlEvent@ZOOMSDK@@@@QAEXPAVIMeetingParticipantsCtrlEvent@ZOOMSDK@@@Z 0042c140 f i sdk_util.obj
 0001:0002b140       ?AddListener@?$EventSinkPool@VIMeetingServiceEvent@ZOOMSDK@@@@QAEXPAVIMeetingServiceEvent@ZOOMSDK@@@Z 0042c140 f i sdk_util.obj
 0001:0002b140       ?AddListener@?$EventSinkPool@VISDKInMeetingServiceMgrEvent@@@@QAEXPAVISDKInMeetingServiceMgrEvent@@@Z 0042c140 f i sdk_util.obj
 0001:0002b180       ?AtlThrowImpl@ATL@@YGXJ@Z  0042c180 f i sdk_util.obj
 0001:0002b1b0       ?Cleanup@SDKInterfaceWrap@@QAE?AW4SDKError@ZOOMSDK@@XZ 0042c1b0 f   sdk_util.obj
 0001:0002b2e0       ?GetAuthService@SDKInterfaceWrap@@QAEPAVIAuthService@ZOOMSDK@@XZ 0042c2e0 f   sdk_util.obj
 0001:0002b350       ?GetCloseCaptionController@SDKInterfaceWrap@@QAEPAVIClosedCaptionController@ZOOMSDK@@XZ 0042c350 f   sdk_util.obj
 0001:0002b3f0       ?GetCustomizedAnnotationController@SDKInterfaceWrap@@QAEPAVICustomizedAnnotationController@ZOOMSDK@@PAVICustomizedShareRender@3@@Z 0042c3f0 f   sdk_util.obj
 0001:0002b470       ?GetInst@SDKInterfaceWrap@@SAAAV1@XZ 0042c470 f   sdk_util.obj
 0001:0002b510       ?GetLastError@SDKInterfaceWrap@@QAEPBVIZoomLastError@ZOOMSDK@@XZ 0042c510 f   sdk_util.obj
 0001:0002b550       ?GetMeetingChatController@SDKInterfaceWrap@@QAEPAVIMeetingChatController@ZOOMSDK@@XZ 0042c550 f   sdk_util.obj
 0001:0002b5f0       ?GetMeetingParticipantsController@SDKInterfaceWrap@@QAEPAVIMeetingParticipantsController@ZOOMSDK@@XZ 0042c5f0 f   sdk_util.obj
 0001:0002b690       ?GetMeetingRemoteController@SDKInterfaceWrap@@QAEPAVIMeetingRemoteController@ZOOMSDK@@XZ 0042c690 f   sdk_util.obj
 0001:0002b6e0       ?GetMeetingService@SDKInterfaceWrap@@QAEPAVIMeetingService@ZOOMSDK@@XZ 0042c6e0 f   sdk_util.obj
 0001:0002b780       ?GetMeetingVideoController@SDKInterfaceWrap@@QAEPAVIMeetingVideoController@ZOOMSDK@@XZ 0042c780 f   sdk_util.obj
 0001:0002b820       ?GetNetworkConnectionHelper@SDKInterfaceWrap@@QAEPAVINetworkConnectionHelper@ZOOMSDK@@XZ 0042c820 f   sdk_util.obj
 0001:0002b860       ?GetPreMeetingService@SDKInterfaceWrap@@QAEPAVIPreMeetingService@ZOOMSDK@@XZ 0042c860 f   sdk_util.obj
 0001:0002b8f0       ?GetSettingService@SDKInterfaceWrap@@QAEPAVISettingService@ZOOMSDK@@XZ 0042c8f0 f   sdk_util.obj
 0001:0002b930       ?Init@SDKInterfaceWrap@@QAE?AW4SDKError@ZOOMSDK@@AAUtagInitParam@3@@Z 0042c930 f   sdk_util.obj
 0001:0002b9b0       ?ListenAuthServiceEvent@SDKInterfaceWrap@@QAEXPAVIAuthServiceEvent@ZOOMSDK@@@Z 0042c9b0 f   sdk_util.obj
 0001:0002b9e0       ?ListenChatServiceMgrEvent@SDKInterfaceWrap@@QAEXPAVIMeetingChatCtrlEvent@ZOOMSDK@@@Z 0042c9e0 f   sdk_util.obj
 0001:0002ba00       ?ListenCloseCaptionEvent@SDKInterfaceWrap@@QAEXPAVIClosedCaptionControllerEvent@ZOOMSDK@@@Z 0042ca00 f   sdk_util.obj
 0001:0002ba20       ?ListenInMeetingServiceMgrEvent@SDKInterfaceWrap@@QAEXPAVISDKInMeetingServiceMgrEvent@@@Z 0042ca20 f   sdk_util.obj
 0001:0002ba40       ?ListenMeetingParticipantsCtrEvent@SDKInterfaceWrap@@QAEXPAVIMeetingParticipantsCtrlEvent@ZOOMSDK@@@Z 0042ca40 f   sdk_util.obj
 0001:0002ba60       ?ListenMeetingServiceEvent@SDKInterfaceWrap@@QAEXPAVIMeetingServiceEvent@ZOOMSDK@@@Z 0042ca60 f   sdk_util.obj
 0001:0002ba80       ?ListenMeetingVideoCtrEvent@SDKInterfaceWrap@@QAEXPAVIMeetingVideoCtrlEvent@ZOOMSDK@@@Z 0042ca80 f   sdk_util.obj
 0001:0002baa0       ?ListenPremeetingServiceEvent@SDKInterfaceWrap@@QAEXPAVIPreMeetingServiceEvent@ZOOMSDK@@@Z 0042caa0 f   sdk_util.obj
 0001:0002bac0       ?Lock@CComCriticalSection@ATL@@QAEJXZ 0042cac0 f i sdk_util.obj
 0001:0002bae0       ?OnMicSpkVolumnChanged@SDKInterfaceWrap@@UAEXII@Z 0042cae0 f i sdk_util.obj
 0001:0002bc00       ?OnNoAudioDeviceIsUseful@SDKInterfaceWrap@@UAEX_N@Z 0042cc00 f i sdk_util.obj
 0001:0002bd10       ?OnNoVideoDeviceIsUseful@SDKInterfaceWrap@@UAEXXZ 0042cd10 f i sdk_util.obj
 0001:0002be20       ?OnNoWindowToShowPreview@SDKInterfaceWrap@@UAEXXZ 0042ce20 f i sdk_util.obj
 0001:0002bf30       ?OnSelectedAudioDeviceIsChanged@SDKInterfaceWrap@@UAEXXZ 0042cf30 f i sdk_util.obj
 0001:0002c040       ?OnSelectedVideoDeviceIsChanged@SDKInterfaceWrap@@UAEXXZ 0042d040 f i sdk_util.obj
 0001:0002c150       ?OnTestMicStatusChanged@SDKInterfaceWrap@@UAEXW4SDK_TESTMIC_STATUS@ZOOMSDK@@AA_N@Z 0042d150 f i sdk_util.obj
 0001:0002c270       ?RemoveListener@?$EventSinkPool@VIMeetingChatCtrlEvent@ZOOMSDK@@@@QAEXPAVIMeetingChatCtrlEvent@ZOOMSDK@@@Z 0042d270 f i sdk_util.obj
 0001:0002c270       ?RemoveListener@?$EventSinkPool@VIMeetingParticipantsCtrlEvent@ZOOMSDK@@@@QAEXPAVIMeetingParticipantsCtrlEvent@ZOOMSDK@@@Z 0042d270 f i sdk_util.obj
 0001:0002c270       ?RemoveListener@?$EventSinkPool@VIPreMeetingServiceEvent@ZOOMSDK@@@@QAEXPAVIPreMeetingServiceEvent@ZOOMSDK@@@Z 0042d270 f i sdk_util.obj
 0001:0002c270       ?RemoveListener@?$EventSinkPool@VIMeetingServiceEvent@ZOOMSDK@@@@QAEXPAVIMeetingServiceEvent@ZOOMSDK@@@Z 0042d270 f i sdk_util.obj
 0001:0002c270       ?RemoveListener@?$EventSinkPool@VIClosedCaptionControllerEvent@ZOOMSDK@@@@QAEXPAVIClosedCaptionControllerEvent@ZOOMSDK@@@Z 0042d270 f i sdk_util.obj
 0001:0002c270       ?RemoveListener@?$EventSinkPool@VISDKInMeetingServiceMgrEvent@@@@QAEXPAVISDKInMeetingServiceMgrEvent@@@Z 0042d270 f i sdk_util.obj
 0001:0002c270       ?RemoveListener@?$EventSinkPool@VIAuthServiceEvent@ZOOMSDK@@@@QAEXPAVIAuthServiceEvent@ZOOMSDK@@@Z 0042d270 f i sdk_util.obj
 0001:0002c2b0       ?SetDataToClipboard@@YA_NPB_WPAUHWND__@@@Z 0042d2b0 f   sdk_util.obj
 0001:0002c3a0       ?UnListenAuthServiceEvent@SDKInterfaceWrap@@QAEXPAVIAuthServiceEvent@ZOOMSDK@@@Z 0042d3a0 f   sdk_util.obj
 0001:0002c3c0       ?UnListenChatServiceMgrEvent@SDKInterfaceWrap@@QAEXPAVIMeetingChatCtrlEvent@ZOOMSDK@@@Z 0042d3c0 f   sdk_util.obj
 0001:0002c3e0       ?UnListenCloseCaptionEvent@SDKInterfaceWrap@@QAEXPAVIClosedCaptionControllerEvent@ZOOMSDK@@@Z 0042d3e0 f   sdk_util.obj
 0001:0002c400       ?UnListenInMeetingServiceMgrEvent@SDKInterfaceWrap@@QAEXPAVISDKInMeetingServiceMgrEvent@@@Z 0042d400 f   sdk_util.obj
 0001:0002c420       ?UnListenMeetingParticipantsCtrEvent@SDKInterfaceWrap@@QAEXPAVIMeetingParticipantsCtrlEvent@ZOOMSDK@@@Z 0042d420 f   sdk_util.obj
 0001:0002c440       ?UnListenMeetingServiceEvent@SDKInterfaceWrap@@QAEXPAVIMeetingServiceEvent@ZOOMSDK@@@Z 0042d440 f   sdk_util.obj
 0001:0002c460       ?UnListenPremeetingServiceEvent@SDKInterfaceWrap@@QAEXPAVIPreMeetingServiceEvent@ZOOMSDK@@@Z 0042d460 f   sdk_util.obj
 0001:0002c480       ?Unlock@CComCriticalSection@ATL@@QAEJXZ 0042d480 f i sdk_util.obj
 0001:0002c4a0       ?_Alloc_sentinel_and_proxy@?$_Tree@V?$_Tset_traits@PAVISDKInMeetingServiceMgrEvent@@U?$less@PAVISDKInMeetingServiceMgrEvent@@@std@@V?$allocator@PAVISDKInMeetingServiceMgrEvent@@@3@$0A@@std@@@std@@IAEXXZ 0042d4a0 f i sdk_util.obj
 0001:0002c4a0       ?_Alloc_sentinel_and_proxy@?$_Tree@V?$_Tset_traits@PAVIMeetingChatCtrlEvent@ZOOMSDK@@U?$less@PAVIMeetingChatCtrlEvent@ZOOMSDK@@@std@@V?$allocator@PAVIMeetingChatCtrlEvent@ZOOMSDK@@@4@$0A@@std@@@std@@IAEXXZ 0042d4a0 f i sdk_util.obj
 0001:0002c4a0       ?_Alloc_sentinel_and_proxy@?$_Tree@V?$_Tset_traits@PAVIMeetingVideoCtrlEvent@ZOOMSDK@@U?$less@PAVIMeetingVideoCtrlEvent@ZOOMSDK@@@std@@V?$allocator@PAVIMeetingVideoCtrlEvent@ZOOMSDK@@@4@$0A@@std@@@std@@IAEXXZ 0042d4a0 f i sdk_util.obj
 0001:0002c4a0       ?_Alloc_sentinel_and_proxy@?$_Tree@V?$_Tset_traits@PAVIPreMeetingServiceEvent@ZOOMSDK@@U?$less@PAVIPreMeetingServiceEvent@ZOOMSDK@@@std@@V?$allocator@PAVIPreMeetingServiceEvent@ZOOMSDK@@@4@$0A@@std@@@std@@IAEXXZ 0042d4a0 f i sdk_util.obj
 0001:0002c4a0       ?_Alloc_sentinel_and_proxy@?$_Tree@V?$_Tset_traits@PAVIClosedCaptionControllerEvent@ZOOMSDK@@U?$less@PAVIClosedCaptionControllerEvent@ZOOMSDK@@@std@@V?$allocator@PAVIClosedCaptionControllerEvent@ZOOMSDK@@@4@$0A@@std@@@std@@IAEXXZ 0042d4a0 f i sdk_util.obj
 0001:0002c4a0       ?_Alloc_sentinel_and_proxy@?$_Tree@V?$_Tset_traits@PAVIMeetingServiceEvent@ZOOMSDK@@U?$less@PAVIMeetingServiceEvent@ZOOMSDK@@@std@@V?$allocator@PAVIMeetingServiceEvent@ZOOMSDK@@@4@$0A@@std@@@std@@IAEXXZ 0042d4a0 f i sdk_util.obj
 0001:0002c4a0       ?_Alloc_sentinel_and_proxy@?$_Tree@V?$_Tset_traits@PAVIAuthServiceEvent@ZOOMSDK@@U?$less@PAVIAuthServiceEvent@ZOOMSDK@@@std@@V?$allocator@PAVIAuthServiceEvent@ZOOMSDK@@@4@$0A@@std@@@std@@IAEXXZ 0042d4a0 f i sdk_util.obj
 0001:0002c4a0       ?_Alloc_sentinel_and_proxy@?$_Tree@V?$_Tset_traits@PAVIMeetingParticipantsCtrlEvent@ZOOMSDK@@U?$less@PAVIMeetingParticipantsCtrlEvent@ZOOMSDK@@@std@@V?$allocator@PAVIMeetingParticipantsCtrlEvent@ZOOMSDK@@@4@$0A@@std@@@std@@IAEXXZ 0042d4a0 f i sdk_util.obj
 0001:0002c4f0       ?_Allocate@?$_Alloc_construct_ptr@V?$allocator@U?$_Tree_node@PAVIMeetingParticipantsCtrlEvent@ZOOMSDK@@PAX@std@@@std@@@std@@QAEXXZ 0042d4f0 f i sdk_util.obj
 0001:0002c4f0       ?_Allocate@?$_Alloc_construct_ptr@V?$allocator@U?$_Tree_node@PAVIMeetingVideoCtrlEvent@ZOOMSDK@@PAX@std@@@std@@@std@@QAEXXZ 0042d4f0 f i sdk_util.obj
 0001:0002c4f0       ?_Allocate@?$_Alloc_construct_ptr@V?$allocator@U?$_Tree_node@PAVIAuthServiceEvent@ZOOMSDK@@PAX@std@@@std@@@std@@QAEXXZ 0042d4f0 f i sdk_util.obj
 0001:0002c4f0       ?_Allocate@?$_Alloc_construct_ptr@V?$allocator@U?$_Tree_node@PAVIMeetingChatCtrlEvent@ZOOMSDK@@PAX@std@@@std@@@std@@QAEXXZ 0042d4f0 f i sdk_util.obj
 0001:0002c4f0       ?_Allocate@?$_Alloc_construct_ptr@V?$allocator@U?$_Tree_node@PAVIClosedCaptionControllerEvent@ZOOMSDK@@PAX@std@@@std@@@std@@QAEXXZ 0042d4f0 f i sdk_util.obj
 0001:0002c4f0       ?_Allocate@?$_Alloc_construct_ptr@V?$allocator@U?$_Tree_node@PAVISDKInMeetingServiceMgrEvent@@PAX@std@@@std@@@std@@QAEXXZ 0042d4f0 f i sdk_util.obj
 0001:0002c4f0       ?_Allocate@?$_Alloc_construct_ptr@V?$allocator@U?$_Tree_node@PAVIMeetingServiceEvent@ZOOMSDK@@PAX@std@@@std@@@std@@QAEXXZ 0042d4f0 f i sdk_util.obj
 0001:0002c4f0       ?_Allocate@?$_Alloc_construct_ptr@V?$allocator@U?$_Tree_node@PAVIPreMeetingServiceEvent@ZOOMSDK@@PAX@std@@@std@@@std@@QAEXXZ 0042d4f0 f i sdk_util.obj
 0001:0002c520       ?_Check_grow_by_1@?$_Tree@V?$_Tset_traits@PAVIPreMeetingServiceEvent@ZOOMSDK@@U?$less@PAVIPreMeetingServiceEvent@ZOOMSDK@@@std@@V?$allocator@PAVIPreMeetingServiceEvent@ZOOMSDK@@@4@$0A@@std@@@std@@IAEXXZ 0042d520 f i sdk_util.obj
 0001:0002c520       ?_Check_grow_by_1@?$_Tree@V?$_Tset_traits@PAVIMeetingServiceEvent@ZOOMSDK@@U?$less@PAVIMeetingServiceEvent@ZOOMSDK@@@std@@V?$allocator@PAVIMeetingServiceEvent@ZOOMSDK@@@4@$0A@@std@@@std@@IAEXXZ 0042d520 f i sdk_util.obj
 0001:0002c520       ?_Check_grow_by_1@?$_Tree@V?$_Tset_traits@PAVIAuthServiceEvent@ZOOMSDK@@U?$less@PAVIAuthServiceEvent@ZOOMSDK@@@std@@V?$allocator@PAVIAuthServiceEvent@ZOOMSDK@@@4@$0A@@std@@@std@@IAEXXZ 0042d520 f i sdk_util.obj
 0001:0002c520       ?_Check_grow_by_1@?$_Tree@V?$_Tset_traits@PAVIMeetingVideoCtrlEvent@ZOOMSDK@@U?$less@PAVIMeetingVideoCtrlEvent@ZOOMSDK@@@std@@V?$allocator@PAVIMeetingVideoCtrlEvent@ZOOMSDK@@@4@$0A@@std@@@std@@IAEXXZ 0042d520 f i sdk_util.obj
 0001:0002c520       ?_Check_grow_by_1@?$_Tree@V?$_Tset_traits@PAVIMeetingChatCtrlEvent@ZOOMSDK@@U?$less@PAVIMeetingChatCtrlEvent@ZOOMSDK@@@std@@V?$allocator@PAVIMeetingChatCtrlEvent@ZOOMSDK@@@4@$0A@@std@@@std@@IAEXXZ 0042d520 f i sdk_util.obj
 0001:0002c520       ?_Check_grow_by_1@?$_Tree@V?$_Tset_traits@PAVIMeetingParticipantsCtrlEvent@ZOOMSDK@@U?$less@PAVIMeetingParticipantsCtrlEvent@ZOOMSDK@@@std@@V?$allocator@PAVIMeetingParticipantsCtrlEvent@ZOOMSDK@@@4@$0A@@std@@@std@@IAEXXZ 0042d520 f i sdk_util.obj
 0001:0002c520       ?_Check_grow_by_1@?$_Tree@V?$_Tset_traits@PAVIClosedCaptionControllerEvent@ZOOMSDK@@U?$less@PAVIClosedCaptionControllerEvent@ZOOMSDK@@@std@@V?$allocator@PAVIClosedCaptionControllerEvent@ZOOMSDK@@@4@$0A@@std@@@std@@IAEXXZ 0042d520 f i sdk_util.obj
 0001:0002c520       ?_Check_grow_by_1@?$_Tree@V?$_Tset_traits@PAVISDKInMeetingServiceMgrEvent@@U?$less@PAVISDKInMeetingServiceMgrEvent@@@std@@V?$allocator@PAVISDKInMeetingServiceMgrEvent@@@3@$0A@@std@@@std@@IAEXXZ 0042d520 f i sdk_util.obj
 0001:0002c550       ?_Erase_unchecked@?$_Tree@V?$_Tset_traits@PAVIAuthServiceEvent@ZOOMSDK@@U?$less@PAVIAuthServiceEvent@ZOOMSDK@@@std@@V?$allocator@PAVIAuthServiceEvent@ZOOMSDK@@@4@$0A@@std@@@std@@AAEPAU?$_Tree_node@PAVIAuthServiceEvent@ZOOMSDK@@PAX@2@V?$_Tree_unchecked_const_iterator@V?$_Tree_val@U?$_Tree_simple_types@PAVIAuthServiceEvent@ZOOMSDK@@@std@@@std@@U_Iterator_base0@2@@2@0@Z 0042d550 f i sdk_util.obj
 0001:0002c550       ?_Erase_unchecked@?$_Tree@V?$_Tset_traits@PAVIMeetingParticipantsCtrlEvent@ZOOMSDK@@U?$less@PAVIMeetingParticipantsCtrlEvent@ZOOMSDK@@@std@@V?$allocator@PAVIMeetingParticipantsCtrlEvent@ZOOMSDK@@@4@$0A@@std@@@std@@AAEPAU?$_Tree_node@PAVIMeetingParticipantsCtrlEvent@ZOOMSDK@@PAX@2@V?$_Tree_unchecked_const_iterator@V?$_Tree_val@U?$_Tree_simple_types@PAVIMeetingParticipantsCtrlEvent@ZOOMSDK@@@std@@@std@@U_Iterator_base0@2@@2@0@Z 0042d550 f i sdk_util.obj
 0001:0002c550       ?_Erase_unchecked@?$_Tree@V?$_Tset_traits@PAVIClosedCaptionControllerEvent@ZOOMSDK@@U?$less@PAVIClosedCaptionControllerEvent@ZOOMSDK@@@std@@V?$allocator@PAVIClosedCaptionControllerEvent@ZOOMSDK@@@4@$0A@@std@@@std@@AAEPAU?$_Tree_node@PAVIClosedCaptionControllerEvent@ZOOMSDK@@PAX@2@V?$_Tree_unchecked_const_iterator@V?$_Tree_val@U?$_Tree_simple_types@PAVIClosedCaptionControllerEvent@ZOOMSDK@@@std@@@std@@U_Iterator_base0@2@@2@0@Z 0042d550 f i sdk_util.obj
 0001:0002c550       ?_Erase_unchecked@?$_Tree@V?$_Tset_traits@PAVIMeetingChatCtrlEvent@ZOOMSDK@@U?$less@PAVIMeetingChatCtrlEvent@ZOOMSDK@@@std@@V?$allocator@PAVIMeetingChatCtrlEvent@ZOOMSDK@@@4@$0A@@std@@@std@@AAEPAU?$_Tree_node@PAVIMeetingChatCtrlEvent@ZOOMSDK@@PAX@2@V?$_Tree_unchecked_const_iterator@V?$_Tree_val@U?$_Tree_simple_types@PAVIMeetingChatCtrlEvent@ZOOMSDK@@@std@@@std@@U_Iterator_base0@2@@2@0@Z 0042d550 f i sdk_util.obj
 0001:0002c550       ?_Erase_unchecked@?$_Tree@V?$_Tset_traits@PAVISDKInMeetingServiceMgrEvent@@U?$less@PAVISDKInMeetingServiceMgrEvent@@@std@@V?$allocator@PAVISDKInMeetingServiceMgrEvent@@@3@$0A@@std@@@std@@AAEPAU?$_Tree_node@PAVISDKInMeetingServiceMgrEvent@@PAX@2@V?$_Tree_unchecked_const_iterator@V?$_Tree_val@U?$_Tree_simple_types@PAVISDKInMeetingServiceMgrEvent@@@std@@@std@@U_Iterator_base0@2@@2@0@Z 0042d550 f i sdk_util.obj
 0001:0002c550       ?_Erase_unchecked@?$_Tree@V?$_Tset_traits@PAVIPreMeetingServiceEvent@ZOOMSDK@@U?$less@PAVIPreMeetingServiceEvent@ZOOMSDK@@@std@@V?$allocator@PAVIPreMeetingServiceEvent@ZOOMSDK@@@4@$0A@@std@@@std@@AAEPAU?$_Tree_node@PAVIPreMeetingServiceEvent@ZOOMSDK@@PAX@2@V?$_Tree_unchecked_const_iterator@V?$_Tree_val@U?$_Tree_simple_types@PAVIPreMeetingServiceEvent@ZOOMSDK@@@std@@@std@@U_Iterator_base0@2@@2@0@Z 0042d550 f i sdk_util.obj
 0001:0002c550       ?_Erase_unchecked@?$_Tree@V?$_Tset_traits@PAVIMeetingServiceEvent@ZOOMSDK@@U?$less@PAVIMeetingServiceEvent@ZOOMSDK@@@std@@V?$allocator@PAVIMeetingServiceEvent@ZOOMSDK@@@4@$0A@@std@@@std@@AAEPAU?$_Tree_node@PAVIMeetingServiceEvent@ZOOMSDK@@PAX@2@V?$_Tree_unchecked_const_iterator@V?$_Tree_val@U?$_Tree_simple_types@PAVIMeetingServiceEvent@ZOOMSDK@@@std@@@std@@U_Iterator_base0@2@@2@0@Z 0042d550 f i sdk_util.obj
 0001:0002c5d0       ?_Erase_unchecked@?$_Tree@V?$_Tset_traits@PAVIAuthServiceEvent@ZOOMSDK@@U?$less@PAVIAuthServiceEvent@ZOOMSDK@@@std@@V?$allocator@PAVIAuthServiceEvent@ZOOMSDK@@@4@$0A@@std@@@std@@AAEPAU?$_Tree_node@PAVIAuthServiceEvent@ZOOMSDK@@PAX@2@V?$_Tree_unchecked_const_iterator@V?$_Tree_val@U?$_Tree_simple_types@PAVIAuthServiceEvent@ZOOMSDK@@@std@@@std@@U_Iterator_base0@2@@2@@Z 0042d5d0 f i sdk_util.obj
 0001:0002c5d0       ?_Erase_unchecked@?$_Tree@V?$_Tset_traits@PAVIMeetingChatCtrlEvent@ZOOMSDK@@U?$less@PAVIMeetingChatCtrlEvent@ZOOMSDK@@@std@@V?$allocator@PAVIMeetingChatCtrlEvent@ZOOMSDK@@@4@$0A@@std@@@std@@AAEPAU?$_Tree_node@PAVIMeetingChatCtrlEvent@ZOOMSDK@@PAX@2@V?$_Tree_unchecked_const_iterator@V?$_Tree_val@U?$_Tree_simple_types@PAVIMeetingChatCtrlEvent@ZOOMSDK@@@std@@@std@@U_Iterator_base0@2@@2@@Z 0042d5d0 f i sdk_util.obj
 0001:0002c5d0       ?_Erase_unchecked@?$_Tree@V?$_Tset_traits@PAVISDKInMeetingServiceMgrEvent@@U?$less@PAVISDKInMeetingServiceMgrEvent@@@std@@V?$allocator@PAVISDKInMeetingServiceMgrEvent@@@3@$0A@@std@@@std@@AAEPAU?$_Tree_node@PAVISDKInMeetingServiceMgrEvent@@PAX@2@V?$_Tree_unchecked_const_iterator@V?$_Tree_val@U?$_Tree_simple_types@PAVISDKInMeetingServiceMgrEvent@@@std@@@std@@U_Iterator_base0@2@@2@@Z 0042d5d0 f i sdk_util.obj
 0001:0002c5d0       ?_Erase_unchecked@?$_Tree@V?$_Tset_traits@PAVIMeetingParticipantsCtrlEvent@ZOOMSDK@@U?$less@PAVIMeetingParticipantsCtrlEvent@ZOOMSDK@@@std@@V?$allocator@PAVIMeetingParticipantsCtrlEvent@ZOOMSDK@@@4@$0A@@std@@@std@@AAEPAU?$_Tree_node@PAVIMeetingParticipantsCtrlEvent@ZOOMSDK@@PAX@2@V?$_Tree_unchecked_const_iterator@V?$_Tree_val@U?$_Tree_simple_types@PAVIMeetingParticipantsCtrlEvent@ZOOMSDK@@@std@@@std@@U_Iterator_base0@2@@2@@Z 0042d5d0 f i sdk_util.obj
 0001:0002c5d0       ?_Erase_unchecked@?$_Tree@V?$_Tset_traits@PAVIClosedCaptionControllerEvent@ZOOMSDK@@U?$less@PAVIClosedCaptionControllerEvent@ZOOMSDK@@@std@@V?$allocator@PAVIClosedCaptionControllerEvent@ZOOMSDK@@@4@$0A@@std@@@std@@AAEPAU?$_Tree_node@PAVIClosedCaptionControllerEvent@ZOOMSDK@@PAX@2@V?$_Tree_unchecked_const_iterator@V?$_Tree_val@U?$_Tree_simple_types@PAVIClosedCaptionControllerEvent@ZOOMSDK@@@std@@@std@@U_Iterator_base0@2@@2@@Z 0042d5d0 f i sdk_util.obj
 0001:0002c5d0       ?_Erase_unchecked@?$_Tree@V?$_Tset_traits@PAVIMeetingServiceEvent@ZOOMSDK@@U?$less@PAVIMeetingServiceEvent@ZOOMSDK@@@std@@V?$allocator@PAVIMeetingServiceEvent@ZOOMSDK@@@4@$0A@@std@@@std@@AAEPAU?$_Tree_node@PAVIMeetingServiceEvent@ZOOMSDK@@PAX@2@V?$_Tree_unchecked_const_iterator@V?$_Tree_val@U?$_Tree_simple_types@PAVIMeetingServiceEvent@ZOOMSDK@@@std@@@std@@U_Iterator_base0@2@@2@@Z 0042d5d0 f i sdk_util.obj
 0001:0002c5d0       ?_Erase_unchecked@?$_Tree@V?$_Tset_traits@PAVIPreMeetingServiceEvent@ZOOMSDK@@U?$less@PAVIPreMeetingServiceEvent@ZOOMSDK@@@std@@V?$allocator@PAVIPreMeetingServiceEvent@ZOOMSDK@@@4@$0A@@std@@@std@@AAEPAU?$_Tree_node@PAVIPreMeetingServiceEvent@ZOOMSDK@@PAX@2@V?$_Tree_unchecked_const_iterator@V?$_Tree_val@U?$_Tree_simple_types@PAVIPreMeetingServiceEvent@ZOOMSDK@@@std@@@std@@U_Iterator_base0@2@@2@@Z 0042d5d0 f i sdk_util.obj
 0001:0002c630       ?_Extract@?$_Tree_val@U?$_Tree_simple_types@PAVIMeetingParticipantsCtrlEvent@ZOOMSDK@@@std@@@std@@QAEPAU?$_Tree_node@PAVIMeetingParticipantsCtrlEvent@ZOOMSDK@@PAX@2@V?$_Tree_unchecked_const_iterator@V?$_Tree_val@U?$_Tree_simple_types@PAVIMeetingParticipantsCtrlEvent@ZOOMSDK@@@std@@@std@@U_Iterator_base0@2@@2@@Z 0042d630 f i sdk_util.obj
 0001:0002c630       ?_Extract@?$_Tree_val@U?$_Tree_simple_types@PAVIMeetingChatCtrlEvent@ZOOMSDK@@@std@@@std@@QAEPAU?$_Tree_node@PAVIMeetingChatCtrlEvent@ZOOMSDK@@PAX@2@V?$_Tree_unchecked_const_iterator@V?$_Tree_val@U?$_Tree_simple_types@PAVIMeetingChatCtrlEvent@ZOOMSDK@@@std@@@std@@U_Iterator_base0@2@@2@@Z 0042d630 f i sdk_util.obj
 0001:0002c630       ?_Extract@?$_Tree_val@U?$_Tree_simple_types@U?$pair@$$CBIPAVIUserInfo@ZOOMSDK@@@std@@@std@@@std@@QAEPAU?$_Tree_node@U?$pair@$$CBIPAVIUserInfo@ZOOMSDK@@@std@@PAX@2@V?$_Tree_unchecked_const_iterator@V?$_Tree_val@U?$_Tree_simple_types@U?$pair@$$CBIPAVIUserInfo@ZOOMSDK@@@std@@@std@@@std@@U_Iterator_base0@2@@2@@Z 0042d630 f i user_manager.obj
 0001:0002c630       ?_Extract@?$_Tree_val@U?$_Tree_simple_types@PAVIAuthServiceEvent@ZOOMSDK@@@std@@@std@@QAEPAU?$_Tree_node@PAVIAuthServiceEvent@ZOOMSDK@@PAX@2@V?$_Tree_unchecked_const_iterator@V?$_Tree_val@U?$_Tree_simple_types@PAVIAuthServiceEvent@ZOOMSDK@@@std@@@std@@U_Iterator_base0@2@@2@@Z 0042d630 f i sdk_util.obj
 0001:0002c630       ?_Extract@?$_Tree_val@U?$_Tree_simple_types@PAVIMeetingServiceEvent@ZOOMSDK@@@std@@@std@@QAEPAU?$_Tree_node@PAVIMeetingServiceEvent@ZOOMSDK@@PAX@2@V?$_Tree_unchecked_const_iterator@V?$_Tree_val@U?$_Tree_simple_types@PAVIMeetingServiceEvent@ZOOMSDK@@@std@@@std@@U_Iterator_base0@2@@2@@Z 0042d630 f i sdk_util.obj
 0001:0002c630       ?_Extract@?$_Tree_val@U?$_Tree_simple_types@PAVIClosedCaptionControllerEvent@ZOOMSDK@@@std@@@std@@QAEPAU?$_Tree_node@PAVIClosedCaptionControllerEvent@ZOOMSDK@@PAX@2@V?$_Tree_unchecked_const_iterator@V?$_Tree_val@U?$_Tree_simple_types@PAVIClosedCaptionControllerEvent@ZOOMSDK@@@std@@@std@@U_Iterator_base0@2@@2@@Z 0042d630 f i sdk_util.obj
 0001:0002c630       ?_Extract@?$_Tree_val@U?$_Tree_simple_types@PAVIPreMeetingServiceEvent@ZOOMSDK@@@std@@@std@@QAEPAU?$_Tree_node@PAVIPreMeetingServiceEvent@ZOOMSDK@@PAX@2@V?$_Tree_unchecked_const_iterator@V?$_Tree_val@U?$_Tree_simple_types@PAVIPreMeetingServiceEvent@ZOOMSDK@@@std@@@std@@U_Iterator_base0@2@@2@@Z 0042d630 f i sdk_util.obj
 0001:0002c630       ?_Extract@?$_Tree_val@U?$_Tree_simple_types@U?$pair@$$CBHW4bkItemType@@@std@@@std@@@std@@QAEPAU?$_Tree_node@U?$pair@$$CBHW4bkItemType@@@std@@PAX@2@V?$_Tree_unchecked_const_iterator@V?$_Tree_val@U?$_Tree_simple_types@U?$pair@$$CBHW4bkItemType@@@std@@@std@@@std@@U_Iterator_base0@2@@2@@Z 0042d630 f i settings_ui.obj
 0001:0002c630       ?_Extract@?$_Tree_val@U?$_Tree_simple_types@PAVISDKInMeetingServiceMgrEvent@@@std@@@std@@QAEPAU?$_Tree_node@PAVISDKInMeetingServiceMgrEvent@@PAX@2@V?$_Tree_unchecked_const_iterator@V?$_Tree_val@U?$_Tree_simple_types@PAVISDKInMeetingServiceMgrEvent@@@std@@@std@@U_Iterator_base0@2@@2@@Z 0042d630 f i sdk_util.obj
 0001:0002ca60       ?_Get_scary@?$_Tree@V?$_Tset_traits@PAVIPreMeetingServiceEvent@ZOOMSDK@@U?$less@PAVIPreMeetingServiceEvent@ZOOMSDK@@@std@@V?$allocator@PAVIPreMeetingServiceEvent@ZOOMSDK@@@4@$0A@@std@@@std@@IBEPBV?$_Tree_val@U?$_Tree_simple_types@PAVIPreMeetingServiceEvent@ZOOMSDK@@@std@@@2@XZ 0042da60 f i sdk_util.obj
 0001:0002ca60       ?_Get_scary@?$_Tree@V?$_Tset_traits@PAVIMeetingParticipantsCtrlEvent@ZOOMSDK@@U?$less@PAVIMeetingParticipantsCtrlEvent@ZOOMSDK@@@std@@V?$allocator@PAVIMeetingParticipantsCtrlEvent@ZOOMSDK@@@4@$0A@@std@@@std@@IBEPBV?$_Tree_val@U?$_Tree_simple_types@PAVIMeetingParticipantsCtrlEvent@ZOOMSDK@@@std@@@2@XZ 0042da60 f i sdk_util.obj
 0001:0002ca60       ?_Get_scary@?$_Tree@V?$_Tset_traits@PAVISDKInMeetingServiceMgrEvent@@U?$less@PAVISDKInMeetingServiceMgrEvent@@@std@@V?$allocator@PAVISDKInMeetingServiceMgrEvent@@@3@$0A@@std@@@std@@IBEPBV?$_Tree_val@U?$_Tree_simple_types@PAVISDKInMeetingServiceMgrEvent@@@std@@@2@XZ 0042da60 f i sdk_util.obj
 0001:0002ca60       ?_Get_scary@?$_Tree@V?$_Tset_traits@PAVIMeetingVideoCtrlEvent@ZOOMSDK@@U?$less@PAVIMeetingVideoCtrlEvent@ZOOMSDK@@@std@@V?$allocator@PAVIMeetingVideoCtrlEvent@ZOOMSDK@@@4@$0A@@std@@@std@@IBEPBV?$_Tree_val@U?$_Tree_simple_types@PAVIMeetingVideoCtrlEvent@ZOOMSDK@@@std@@@2@XZ 0042da60 f i sdk_util.obj
 0001:0002ca60       ?_Get_scary@?$_Tree@V?$_Tset_traits@PAVISDKInMeetingServiceMgrEvent@@U?$less@PAVISDKInMeetingServiceMgrEvent@@@std@@V?$allocator@PAVISDKInMeetingServiceMgrEvent@@@3@$0A@@std@@@std@@IAEPAV?$_Tree_val@U?$_Tree_simple_types@PAVISDKInMeetingServiceMgrEvent@@@std@@@2@XZ 0042da60 f i sdk_util.obj
 0001:0002ca60       ?_Get_scary@?$_Tree@V?$_Tset_traits@PAVIPreMeetingServiceEvent@ZOOMSDK@@U?$less@PAVIPreMeetingServiceEvent@ZOOMSDK@@@std@@V?$allocator@PAVIPreMeetingServiceEvent@ZOOMSDK@@@4@$0A@@std@@@std@@IAEPAV?$_Tree_val@U?$_Tree_simple_types@PAVIPreMeetingServiceEvent@ZOOMSDK@@@std@@@2@XZ 0042da60 f i sdk_util.obj
 0001:0002ca60       ?_Get_scary@?$_Tree@V?$_Tset_traits@PAVIMeetingServiceEvent@ZOOMSDK@@U?$less@PAVIMeetingServiceEvent@ZOOMSDK@@@std@@V?$allocator@PAVIMeetingServiceEvent@ZOOMSDK@@@4@$0A@@std@@@std@@IBEPBV?$_Tree_val@U?$_Tree_simple_types@PAVIMeetingServiceEvent@ZOOMSDK@@@std@@@2@XZ 0042da60 f i sdk_util.obj
 0001:0002ca60       ?_Get_scary@?$_Tree@V?$_Tset_traits@PAVIMeetingParticipantsCtrlEvent@ZOOMSDK@@U?$less@PAVIMeetingParticipantsCtrlEvent@ZOOMSDK@@@std@@V?$allocator@PAVIMeetingParticipantsCtrlEvent@ZOOMSDK@@@4@$0A@@std@@@std@@IAEPAV?$_Tree_val@U?$_Tree_simple_types@PAVIMeetingParticipantsCtrlEvent@ZOOMSDK@@@std@@@2@XZ 0042da60 f i sdk_util.obj
 0001:0002ca60       ?_Get_scary@?$_Tree@V?$_Tset_traits@PAVIAuthServiceEvent@ZOOMSDK@@U?$less@PAVIAuthServiceEvent@ZOOMSDK@@@std@@V?$allocator@PAVIAuthServiceEvent@ZOOMSDK@@@4@$0A@@std@@@std@@IAEPAV?$_Tree_val@U?$_Tree_simple_types@PAVIAuthServiceEvent@ZOOMSDK@@@std@@@2@XZ 0042da60 f i sdk_util.obj
 0001:0002ca60       ?_Get_scary@?$_Tree@V?$_Tset_traits@PAVIMeetingVideoCtrlEvent@ZOOMSDK@@U?$less@PAVIMeetingVideoCtrlEvent@ZOOMSDK@@@std@@V?$allocator@PAVIMeetingVideoCtrlEvent@ZOOMSDK@@@4@$0A@@std@@@std@@IAEPAV?$_Tree_val@U?$_Tree_simple_types@PAVIMeetingVideoCtrlEvent@ZOOMSDK@@@std@@@2@XZ 0042da60 f i sdk_util.obj
 0001:0002ca60       ?_Get_scary@?$_Tree@V?$_Tset_traits@PAVIMeetingServiceEvent@ZOOMSDK@@U?$less@PAVIMeetingServiceEvent@ZOOMSDK@@@std@@V?$allocator@PAVIMeetingServiceEvent@ZOOMSDK@@@4@$0A@@std@@@std@@IAEPAV?$_Tree_val@U?$_Tree_simple_types@PAVIMeetingServiceEvent@ZOOMSDK@@@std@@@2@XZ 0042da60 f i sdk_util.obj
 0001:0002ca60       ?_Get_scary@?$_Tree@V?$_Tmap_traits@HW4bkItemType@@U?$less@H@std@@V?$allocator@U?$pair@$$CBHW4bkItemType@@@std@@@3@$0A@@std@@@std@@IBEPBV?$_Tree_val@U?$_Tree_simple_types@U?$pair@$$CBHW4bkItemType@@@std@@@std@@@2@XZ 0042da60 f i settings_ui.obj
 0001:0002ca60       ?_Get_scary@?$_Tree@V?$_Tset_traits@PAVIMeetingChatCtrlEvent@ZOOMSDK@@U?$less@PAVIMeetingChatCtrlEvent@ZOOMSDK@@@std@@V?$allocator@PAVIMeetingChatCtrlEvent@ZOOMSDK@@@4@$0A@@std@@@std@@IBEPBV?$_Tree_val@U?$_Tree_simple_types@PAVIMeetingChatCtrlEvent@ZOOMSDK@@@std@@@2@XZ 0042da60 f i sdk_util.obj
 0001:0002ca60       ?_Get_scary@?$_Tree@V?$_Tmap_traits@HW4bkItemType@@U?$less@H@std@@V?$allocator@U?$pair@$$CBHW4bkItemType@@@std@@@3@$0A@@std@@@std@@IAEPAV?$_Tree_val@U?$_Tree_simple_types@U?$pair@$$CBHW4bkItemType@@@std@@@std@@@2@XZ 0042da60 f i settings_ui.obj
 0001:0002ca60       ?_Get_scary@?$_Tree@V?$_Tmap_traits@IPAVIUserInfo@ZOOMSDK@@U?$less@I@std@@V?$allocator@U?$pair@$$CBIPAVIUserInfo@ZOOMSDK@@@std@@@4@$0A@@std@@@std@@IBEPBV?$_Tree_val@U?$_Tree_simple_types@U?$pair@$$CBIPAVIUserInfo@ZOOMSDK@@@std@@@std@@@2@XZ 0042da60 f i user_manager.obj
 0001:0002ca60       ?_Get_scary@?$_Tree@V?$_Tset_traits@PAVIMeetingChatCtrlEvent@ZOOMSDK@@U?$less@PAVIMeetingChatCtrlEvent@ZOOMSDK@@@std@@V?$allocator@PAVIMeetingChatCtrlEvent@ZOOMSDK@@@4@$0A@@std@@@std@@IAEPAV?$_Tree_val@U?$_Tree_simple_types@PAVIMeetingChatCtrlEvent@ZOOMSDK@@@std@@@2@XZ 0042da60 f i sdk_util.obj
 0001:0002ca60       ?_Get_scary@?$_Tree@V?$_Tset_traits@PAVIAuthServiceEvent@ZOOMSDK@@U?$less@PAVIAuthServiceEvent@ZOOMSDK@@@std@@V?$allocator@PAVIAuthServiceEvent@ZOOMSDK@@@4@$0A@@std@@@std@@IBEPBV?$_Tree_val@U?$_Tree_simple_types@PAVIAuthServiceEvent@ZOOMSDK@@@std@@@2@XZ 0042da60 f i sdk_util.obj
 0001:0002ca60       ?_Get_scary@?$_Tree@V?$_Tset_traits@PAVIClosedCaptionControllerEvent@ZOOMSDK@@U?$less@PAVIClosedCaptionControllerEvent@ZOOMSDK@@@std@@V?$allocator@PAVIClosedCaptionControllerEvent@ZOOMSDK@@@4@$0A@@std@@@std@@IBEPBV?$_Tree_val@U?$_Tree_simple_types@PAVIClosedCaptionControllerEvent@ZOOMSDK@@@std@@@2@XZ 0042da60 f i sdk_util.obj
 0001:0002ca60       ?_Get_scary@?$_Tree@V?$_Tset_traits@PAVIClosedCaptionControllerEvent@ZOOMSDK@@U?$less@PAVIClosedCaptionControllerEvent@ZOOMSDK@@@std@@V?$allocator@PAVIClosedCaptionControllerEvent@ZOOMSDK@@@4@$0A@@std@@@std@@IAEPAV?$_Tree_val@U?$_Tree_simple_types@PAVIClosedCaptionControllerEvent@ZOOMSDK@@@std@@@2@XZ 0042da60 f i sdk_util.obj
 0001:0002ca60       ?_Get_scary@?$_Tree@V?$_Tmap_traits@IPAVIUserInfo@ZOOMSDK@@U?$less@I@std@@V?$allocator@U?$pair@$$CBIPAVIUserInfo@ZOOMSDK@@@std@@@4@$0A@@std@@@std@@IAEPAV?$_Tree_val@U?$_Tree_simple_types@U?$pair@$$CBIPAVIUserInfo@ZOOMSDK@@@std@@@std@@@2@XZ 0042da60 f i user_manager.obj
 0001:0002ca80       ?GetNativeWindow@CControlUI@DuiLib@@UBEPAUHWND__@@XZ 0042da80 f i DuiLib:UIControl.obj
 0001:0002ca80       ?_Getcont@_Iterator_base0@std@@QBEPBU_Container_base0@2@XZ 0042da80 f i sdk_util.obj
 0001:0002ca80       ?GetClassStyle@CWindowWnd@DuiLib@@MBEIXZ 0042da80 f i DuiLib:UIBase.obj
 0001:0002ca80       ?GetSuperClassName@CWindowWnd@DuiLib@@MBEPB_WXZ 0042da80 f i DuiLib:UIBase.obj
 0001:0002ca80       ?TxImmGetContext@CTxtWinHost@DuiLib@@UAEPAUHIMC__@@XZ 0042da80 f i DuiLib:UIRichEdit.obj
 0001:0002ca80       ?GetControlFlags@CControlUI@DuiLib@@UBEIXZ 0042da80 f i DuiLib:UIControl.obj
 0001:0002ca90       ?_Insert_node@?$_Tree_val@U?$_Tree_simple_types@PAVIMeetingParticipantsCtrlEvent@ZOOMSDK@@@std@@@std@@QAEPAU?$_Tree_node@PAVIMeetingParticipantsCtrlEvent@ZOOMSDK@@PAX@2@U?$_Tree_id@PAU?$_Tree_node@PAVIMeetingParticipantsCtrlEvent@ZOOMSDK@@PAX@std@@@2@QAU32@@Z 0042da90 f i sdk_util.obj
 0001:0002ca90       ?_Insert_node@?$_Tree_val@U?$_Tree_simple_types@U?$pair@$$CBIPAVIUserInfo@ZOOMSDK@@@std@@@std@@@std@@QAEPAU?$_Tree_node@U?$pair@$$CBIPAVIUserInfo@ZOOMSDK@@@std@@PAX@2@U?$_Tree_id@PAU?$_Tree_node@U?$pair@$$CBIPAVIUserInfo@ZOOMSDK@@@std@@PAX@std@@@2@QAU32@@Z 0042da90 f i user_manager.obj
 0001:0002ca90       ?_Insert_node@?$_Tree_val@U?$_Tree_simple_types@PAVIAuthServiceEvent@ZOOMSDK@@@std@@@std@@QAEPAU?$_Tree_node@PAVIAuthServiceEvent@ZOOMSDK@@PAX@2@U?$_Tree_id@PAU?$_Tree_node@PAVIAuthServiceEvent@ZOOMSDK@@PAX@std@@@2@QAU32@@Z 0042da90 f i sdk_util.obj
 0001:0002ca90       ?_Insert_node@?$_Tree_val@U?$_Tree_simple_types@PAVISDKInMeetingServiceMgrEvent@@@std@@@std@@QAEPAU?$_Tree_node@PAVISDKInMeetingServiceMgrEvent@@PAX@2@U?$_Tree_id@PAU?$_Tree_node@PAVISDKInMeetingServiceMgrEvent@@PAX@std@@@2@QAU32@@Z 0042da90 f i sdk_util.obj
 0001:0002ca90       ?_Insert_node@?$_Tree_val@U?$_Tree_simple_types@PAVIMeetingChatCtrlEvent@ZOOMSDK@@@std@@@std@@QAEPAU?$_Tree_node@PAVIMeetingChatCtrlEvent@ZOOMSDK@@PAX@2@U?$_Tree_id@PAU?$_Tree_node@PAVIMeetingChatCtrlEvent@ZOOMSDK@@PAX@std@@@2@QAU32@@Z 0042da90 f i sdk_util.obj
 0001:0002ca90       ?_Insert_node@?$_Tree_val@U?$_Tree_simple_types@U?$pair@$$CBHW4bkItemType@@@std@@@std@@@std@@QAEPAU?$_Tree_node@U?$pair@$$CBHW4bkItemType@@@std@@PAX@2@U?$_Tree_id@PAU?$_Tree_node@U?$pair@$$CBHW4bkItemType@@@std@@PAX@std@@@2@QAU32@@Z 0042da90 f i settings_ui.obj
 0001:0002ca90       ?_Insert_node@?$_Tree_val@U?$_Tree_simple_types@PAVIMeetingServiceEvent@ZOOMSDK@@@std@@@std@@QAEPAU?$_Tree_node@PAVIMeetingServiceEvent@ZOOMSDK@@PAX@2@U?$_Tree_id@PAU?$_Tree_node@PAVIMeetingServiceEvent@ZOOMSDK@@PAX@std@@@2@QAU32@@Z 0042da90 f i sdk_util.obj
 0001:0002ca90       ?_Insert_node@?$_Tree_val@U?$_Tree_simple_types@PAVIMeetingVideoCtrlEvent@ZOOMSDK@@@std@@@std@@QAEPAU?$_Tree_node@PAVIMeetingVideoCtrlEvent@ZOOMSDK@@PAX@2@U?$_Tree_id@PAU?$_Tree_node@PAVIMeetingVideoCtrlEvent@ZOOMSDK@@PAX@std@@@2@QAU32@@Z 0042da90 f i sdk_util.obj
 0001:0002ca90       ?_Insert_node@?$_Tree_val@U?$_Tree_simple_types@PAVIClosedCaptionControllerEvent@ZOOMSDK@@@std@@@std@@QAEPAU?$_Tree_node@PAVIClosedCaptionControllerEvent@ZOOMSDK@@PAX@2@U?$_Tree_id@PAU?$_Tree_node@PAVIClosedCaptionControllerEvent@ZOOMSDK@@PAX@std@@@2@QAU32@@Z 0042da90 f i sdk_util.obj
 0001:0002ca90       ?_Insert_node@?$_Tree_val@U?$_Tree_simple_types@PAVIPreMeetingServiceEvent@ZOOMSDK@@@std@@@std@@QAEPAU?$_Tree_node@PAVIPreMeetingServiceEvent@ZOOMSDK@@PAX@2@U?$_Tree_id@PAU?$_Tree_node@PAVIPreMeetingServiceEvent@ZOOMSDK@@PAX@std@@@2@QAU32@@Z 0042da90 f i sdk_util.obj
 0001:0002cca0       ?_Lrotate@?$_Tree_val@U?$_Tree_simple_types@PAVIMeetingServiceEvent@ZOOMSDK@@@std@@@std@@QAEXPAU?$_Tree_node@PAVIMeetingServiceEvent@ZOOMSDK@@PAX@2@@Z 0042dca0 f i sdk_util.obj
 0001:0002cca0       ?_Lrotate@?$_Tree_val@U?$_Tree_simple_types@PAVIAuthServiceEvent@ZOOMSDK@@@std@@@std@@QAEXPAU?$_Tree_node@PAVIAuthServiceEvent@ZOOMSDK@@PAX@2@@Z 0042dca0 f i sdk_util.obj
 0001:0002cca0       ?_Lrotate@?$_Tree_val@U?$_Tree_simple_types@PAVIMeetingVideoCtrlEvent@ZOOMSDK@@@std@@@std@@QAEXPAU?$_Tree_node@PAVIMeetingVideoCtrlEvent@ZOOMSDK@@PAX@2@@Z 0042dca0 f i sdk_util.obj
 0001:0002cca0       ?_Lrotate@?$_Tree_val@U?$_Tree_simple_types@PAVIPreMeetingServiceEvent@ZOOMSDK@@@std@@@std@@QAEXPAU?$_Tree_node@PAVIPreMeetingServiceEvent@ZOOMSDK@@PAX@2@@Z 0042dca0 f i sdk_util.obj
 0001:0002cca0       ?_Lrotate@?$_Tree_val@U?$_Tree_simple_types@U?$pair@$$CBHW4bkItemType@@@std@@@std@@@std@@QAEXPAU?$_Tree_node@U?$pair@$$CBHW4bkItemType@@@std@@PAX@2@@Z 0042dca0 f i settings_ui.obj
 0001:0002cca0       ?_Lrotate@?$_Tree_val@U?$_Tree_simple_types@PAVIClosedCaptionControllerEvent@ZOOMSDK@@@std@@@std@@QAEXPAU?$_Tree_node@PAVIClosedCaptionControllerEvent@ZOOMSDK@@PAX@2@@Z 0042dca0 f i sdk_util.obj
 0001:0002cca0       ?_Lrotate@?$_Tree_val@U?$_Tree_simple_types@PAVISDKInMeetingServiceMgrEvent@@@std@@@std@@QAEXPAU?$_Tree_node@PAVISDKInMeetingServiceMgrEvent@@PAX@2@@Z 0042dca0 f i sdk_util.obj
 0001:0002cca0       ?_Lrotate@?$_Tree_val@U?$_Tree_simple_types@PAVIMeetingParticipantsCtrlEvent@ZOOMSDK@@@std@@@std@@QAEXPAU?$_Tree_node@PAVIMeetingParticipantsCtrlEvent@ZOOMSDK@@PAX@2@@Z 0042dca0 f i sdk_util.obj
 0001:0002cca0       ?_Lrotate@?$_Tree_val@U?$_Tree_simple_types@U?$pair@$$CBIPAVIUserInfo@ZOOMSDK@@@std@@@std@@@std@@QAEXPAU?$_Tree_node@U?$pair@$$CBIPAVIUserInfo@ZOOMSDK@@@std@@PAX@2@@Z 0042dca0 f i user_manager.obj
 0001:0002cca0       ?_Lrotate@?$_Tree_val@U?$_Tree_simple_types@PAVIMeetingChatCtrlEvent@ZOOMSDK@@@std@@@std@@QAEXPAU?$_Tree_node@PAVIMeetingChatCtrlEvent@ZOOMSDK@@PAX@2@@Z 0042dca0 f i sdk_util.obj
 0001:0002cd40       ?_Max@?$_Tree_val@U?$_Tree_simple_types@PAVISDKInMeetingServiceMgrEvent@@@std@@@std@@SAPAU?$_Tree_node@PAVISDKInMeetingServiceMgrEvent@@PAX@2@PAU32@@Z 0042dd40 f i sdk_util.obj
 0001:0002cd40       ?_Max@?$_Tree_val@U?$_Tree_simple_types@PAVIAuthServiceEvent@ZOOMSDK@@@std@@@std@@SAPAU?$_Tree_node@PAVIAuthServiceEvent@ZOOMSDK@@PAX@2@PAU32@@Z 0042dd40 f i sdk_util.obj
 0001:0002cd40       ?_Max@?$_Tree_val@U?$_Tree_simple_types@PAVIMeetingChatCtrlEvent@ZOOMSDK@@@std@@@std@@SAPAU?$_Tree_node@PAVIMeetingChatCtrlEvent@ZOOMSDK@@PAX@2@PAU32@@Z 0042dd40 f i sdk_util.obj
 0001:0002cd40       ?_Max@?$_Tree_val@U?$_Tree_simple_types@PAVIMeetingParticipantsCtrlEvent@ZOOMSDK@@@std@@@std@@SAPAU?$_Tree_node@PAVIMeetingParticipantsCtrlEvent@ZOOMSDK@@PAX@2@PAU32@@Z 0042dd40 f i sdk_util.obj
 0001:0002cd40       ?_Max@?$_Tree_val@U?$_Tree_simple_types@PAVIPreMeetingServiceEvent@ZOOMSDK@@@std@@@std@@SAPAU?$_Tree_node@PAVIPreMeetingServiceEvent@ZOOMSDK@@PAX@2@PAU32@@Z 0042dd40 f i sdk_util.obj
 0001:0002cd40       ?_Max@?$_Tree_val@U?$_Tree_simple_types@PAVIClosedCaptionControllerEvent@ZOOMSDK@@@std@@@std@@SAPAU?$_Tree_node@PAVIClosedCaptionControllerEvent@ZOOMSDK@@PAX@2@PAU32@@Z 0042dd40 f i sdk_util.obj
 0001:0002cd40       ?_Max@?$_Tree_val@U?$_Tree_simple_types@PAVIMeetingVideoCtrlEvent@ZOOMSDK@@@std@@@std@@SAPAU?$_Tree_node@PAVIMeetingVideoCtrlEvent@ZOOMSDK@@PAX@2@PAU32@@Z 0042dd40 f i sdk_util.obj
 0001:0002cd40       ?_Max@?$_Tree_val@U?$_Tree_simple_types@U?$pair@$$CBIPAVIUserInfo@ZOOMSDK@@@std@@@std@@@std@@SAPAU?$_Tree_node@U?$pair@$$CBIPAVIUserInfo@ZOOMSDK@@@std@@PAX@2@PAU32@@Z 0042dd40 f i user_manager.obj
 0001:0002cd40       ?_Max@?$_Tree_val@U?$_Tree_simple_types@U?$pair@$$CBHW4bkItemType@@@std@@@std@@@std@@SAPAU?$_Tree_node@U?$pair@$$CBHW4bkItemType@@@std@@PAX@2@PAU32@@Z 0042dd40 f i settings_ui.obj
 0001:0002cd40       ?_Max@?$_Tree_val@U?$_Tree_simple_types@PAVIMeetingServiceEvent@ZOOMSDK@@@std@@@std@@SAPAU?$_Tree_node@PAVIMeetingServiceEvent@ZOOMSDK@@PAX@2@PAU32@@Z 0042dd40 f i sdk_util.obj
 0001:0002cd70       ?_Min@?$_Tree_val@U?$_Tree_simple_types@PAVISDKInMeetingServiceMgrEvent@@@std@@@std@@SAPAU?$_Tree_node@PAVISDKInMeetingServiceMgrEvent@@PAX@2@PAU32@@Z 0042dd70 f i sdk_util.obj
 0001:0002cd70       ?_Min@?$_Tree_val@U?$_Tree_simple_types@PAVIMeetingServiceEvent@ZOOMSDK@@@std@@@std@@SAPAU?$_Tree_node@PAVIMeetingServiceEvent@ZOOMSDK@@PAX@2@PAU32@@Z 0042dd70 f i sdk_util.obj
 0001:0002cd70       ?_Min@?$_Tree_val@U?$_Tree_simple_types@PAVIMeetingVideoCtrlEvent@ZOOMSDK@@@std@@@std@@SAPAU?$_Tree_node@PAVIMeetingVideoCtrlEvent@ZOOMSDK@@PAX@2@PAU32@@Z 0042dd70 f i sdk_util.obj
 0001:0002cd70       ?_Min@?$_Tree_val@U?$_Tree_simple_types@PAVIMeetingChatCtrlEvent@ZOOMSDK@@@std@@@std@@SAPAU?$_Tree_node@PAVIMeetingChatCtrlEvent@ZOOMSDK@@PAX@2@PAU32@@Z 0042dd70 f i sdk_util.obj
 0001:0002cd70       ?_Min@?$_Tree_val@U?$_Tree_simple_types@U?$pair@$$CBIPAVIUserInfo@ZOOMSDK@@@std@@@std@@@std@@SAPAU?$_Tree_node@U?$pair@$$CBIPAVIUserInfo@ZOOMSDK@@@std@@PAX@2@PAU32@@Z 0042dd70 f i user_manager.obj
 0001:0002cd70       ?_Min@?$_Tree_val@U?$_Tree_simple_types@PAVIClosedCaptionControllerEvent@ZOOMSDK@@@std@@@std@@SAPAU?$_Tree_node@PAVIClosedCaptionControllerEvent@ZOOMSDK@@PAX@2@PAU32@@Z 0042dd70 f i sdk_util.obj
 0001:0002cd70       ?_Min@?$_Tree_val@U?$_Tree_simple_types@PAVIPreMeetingServiceEvent@ZOOMSDK@@@std@@@std@@SAPAU?$_Tree_node@PAVIPreMeetingServiceEvent@ZOOMSDK@@PAX@2@PAU32@@Z 0042dd70 f i sdk_util.obj
 0001:0002cd70       ?_Min@?$_Tree_val@U?$_Tree_simple_types@PAVIAuthServiceEvent@ZOOMSDK@@@std@@@std@@SAPAU?$_Tree_node@PAVIAuthServiceEvent@ZOOMSDK@@PAX@2@PAU32@@Z 0042dd70 f i sdk_util.obj
 0001:0002cd70       ?_Min@?$_Tree_val@U?$_Tree_simple_types@U?$pair@$$CBHW4bkItemType@@@std@@@std@@@std@@SAPAU?$_Tree_node@U?$pair@$$CBHW4bkItemType@@@std@@PAX@2@PAU32@@Z 0042dd70 f i settings_ui.obj
 0001:0002cd70       ?_Min@?$_Tree_val@U?$_Tree_simple_types@PAVIMeetingParticipantsCtrlEvent@ZOOMSDK@@@std@@@std@@SAPAU?$_Tree_node@PAVIMeetingParticipantsCtrlEvent@ZOOMSDK@@PAX@2@PAU32@@Z 0042dd70 f i sdk_util.obj
 0001:0002cd90       ?_Release@?$_Alloc_construct_ptr@V?$allocator@U?$_Tree_node@PAVISDKInMeetingServiceMgrEvent@@PAX@std@@@std@@@std@@QAEPAU?$_Tree_node@PAVISDKInMeetingServiceMgrEvent@@PAX@2@XZ 0042dd90 f i sdk_util.obj
 0001:0002cd90       ?_Release@?$_Alloc_construct_ptr@V?$allocator@U?$_Tree_node@U?$pair@$$CBHW4bkItemType@@@std@@PAX@std@@@std@@@std@@QAEPAU?$_Tree_node@U?$pair@$$CBHW4bkItemType@@@std@@PAX@2@XZ 0042dd90 f i settings_ui.obj
 0001:0002cd90       ?_Release@?$_Alloc_construct_ptr@V?$allocator@U?$_Tree_node@U?$pair@$$CBIPAVIUserInfo@ZOOMSDK@@@std@@PAX@std@@@std@@@std@@QAEPAU?$_Tree_node@U?$pair@$$CBIPAVIUserInfo@ZOOMSDK@@@std@@PAX@2@XZ 0042dd90 f i user_manager.obj
 0001:0002cd90       ?_Release@?$_Alloc_construct_ptr@V?$allocator@U?$_Tree_node@PAVIMeetingParticipantsCtrlEvent@ZOOMSDK@@PAX@std@@@std@@@std@@QAEPAU?$_Tree_node@PAVIMeetingParticipantsCtrlEvent@ZOOMSDK@@PAX@2@XZ 0042dd90 f i sdk_util.obj
 0001:0002cd90       ?_Release@?$_Alloc_construct_ptr@V?$allocator@U?$_Tree_node@PAVIAuthServiceEvent@ZOOMSDK@@PAX@std@@@std@@@std@@QAEPAU?$_Tree_node@PAVIAuthServiceEvent@ZOOMSDK@@PAX@2@XZ 0042dd90 f i sdk_util.obj
 0001:0002cd90       ?_Release@?$_Alloc_construct_ptr@V?$allocator@U?$_Tree_node@PAVIClosedCaptionControllerEvent@ZOOMSDK@@PAX@std@@@std@@@std@@QAEPAU?$_Tree_node@PAVIClosedCaptionControllerEvent@ZOOMSDK@@PAX@2@XZ 0042dd90 f i sdk_util.obj
 0001:0002cd90       ?_Release@?$_Alloc_construct_ptr@V?$allocator@U?$_Tree_node@PAVIMeetingChatCtrlEvent@ZOOMSDK@@PAX@std@@@std@@@std@@QAEPAU?$_Tree_node@PAVIMeetingChatCtrlEvent@ZOOMSDK@@PAX@2@XZ 0042dd90 f i sdk_util.obj
 0001:0002cd90       ?_Release@?$_Alloc_construct_ptr@V?$allocator@U?$_Tree_node@PAVIMeetingVideoCtrlEvent@ZOOMSDK@@PAX@std@@@std@@@std@@QAEPAU?$_Tree_node@PAVIMeetingVideoCtrlEvent@ZOOMSDK@@PAX@2@XZ 0042dd90 f i sdk_util.obj
 0001:0002cd90       ?_Release@?$_Alloc_construct_ptr@V?$allocator@U?$_Tree_node@PAVIPreMeetingServiceEvent@ZOOMSDK@@PAX@std@@@std@@@std@@QAEPAU?$_Tree_node@PAVIPreMeetingServiceEvent@ZOOMSDK@@PAX@2@XZ 0042dd90 f i sdk_util.obj
 0001:0002cd90       ?_Release@?$_Alloc_construct_ptr@V?$allocator@U?$_Tree_node@PAVIMeetingServiceEvent@ZOOMSDK@@PAX@std@@@std@@@std@@QAEPAU?$_Tree_node@PAVIMeetingServiceEvent@ZOOMSDK@@PAX@2@XZ 0042dd90 f i sdk_util.obj
 0001:0002cdc0       ?_Rrotate@?$_Tree_val@U?$_Tree_simple_types@PAVIPreMeetingServiceEvent@ZOOMSDK@@@std@@@std@@QAEXPAU?$_Tree_node@PAVIPreMeetingServiceEvent@ZOOMSDK@@PAX@2@@Z 0042ddc0 f i sdk_util.obj
 0001:0002cdc0       ?_Rrotate@?$_Tree_val@U?$_Tree_simple_types@PAVIAuthServiceEvent@ZOOMSDK@@@std@@@std@@QAEXPAU?$_Tree_node@PAVIAuthServiceEvent@ZOOMSDK@@PAX@2@@Z 0042ddc0 f i sdk_util.obj
 0001:0002cdc0       ?_Rrotate@?$_Tree_val@U?$_Tree_simple_types@U?$pair@$$CBIPAVIUserInfo@ZOOMSDK@@@std@@@std@@@std@@QAEXPAU?$_Tree_node@U?$pair@$$CBIPAVIUserInfo@ZOOMSDK@@@std@@PAX@2@@Z 0042ddc0 f i user_manager.obj
 0001:0002cdc0       ?_Rrotate@?$_Tree_val@U?$_Tree_simple_types@U?$pair@$$CBHW4bkItemType@@@std@@@std@@@std@@QAEXPAU?$_Tree_node@U?$pair@$$CBHW4bkItemType@@@std@@PAX@2@@Z 0042ddc0 f i settings_ui.obj
 0001:0002cdc0       ?_Rrotate@?$_Tree_val@U?$_Tree_simple_types@PAVIMeetingServiceEvent@ZOOMSDK@@@std@@@std@@QAEXPAU?$_Tree_node@PAVIMeetingServiceEvent@ZOOMSDK@@PAX@2@@Z 0042ddc0 f i sdk_util.obj
 0001:0002cdc0       ?_Rrotate@?$_Tree_val@U?$_Tree_simple_types@PAVISDKInMeetingServiceMgrEvent@@@std@@@std@@QAEXPAU?$_Tree_node@PAVISDKInMeetingServiceMgrEvent@@PAX@2@@Z 0042ddc0 f i sdk_util.obj
 0001:0002cdc0       ?_Rrotate@?$_Tree_val@U?$_Tree_simple_types@PAVIMeetingVideoCtrlEvent@ZOOMSDK@@@std@@@std@@QAEXPAU?$_Tree_node@PAVIMeetingVideoCtrlEvent@ZOOMSDK@@PAX@2@@Z 0042ddc0 f i sdk_util.obj
 0001:0002cdc0       ?_Rrotate@?$_Tree_val@U?$_Tree_simple_types@PAVIClosedCaptionControllerEvent@ZOOMSDK@@@std@@@std@@QAEXPAU?$_Tree_node@PAVIClosedCaptionControllerEvent@ZOOMSDK@@PAX@2@@Z 0042ddc0 f i sdk_util.obj
 0001:0002cdc0       ?_Rrotate@?$_Tree_val@U?$_Tree_simple_types@PAVIMeetingChatCtrlEvent@ZOOMSDK@@@std@@@std@@QAEXPAU?$_Tree_node@PAVIMeetingChatCtrlEvent@ZOOMSDK@@PAX@2@@Z 0042ddc0 f i sdk_util.obj
 0001:0002cdc0       ?_Rrotate@?$_Tree_val@U?$_Tree_simple_types@PAVIMeetingParticipantsCtrlEvent@ZOOMSDK@@@std@@@std@@QAEXPAU?$_Tree_node@PAVIMeetingParticipantsCtrlEvent@ZOOMSDK@@PAX@2@@Z 0042ddc0 f i sdk_util.obj
 0001:0002ce60       ?_Throw_tree_length_error@std@@YAXXZ 0042de60 f i sdk_util.obj
 0001:0002ce70       ?_Unchecked_begin@?$_Tree@V?$_Tset_traits@PAVIClosedCaptionControllerEvent@ZOOMSDK@@U?$less@PAVIClosedCaptionControllerEvent@ZOOMSDK@@@std@@V?$allocator@PAVIClosedCaptionControllerEvent@ZOOMSDK@@@4@$0A@@std@@@std@@QAE?AV?$_Tree_unchecked_const_iterator@V?$_Tree_val@U?$_Tree_simple_types@PAVIClosedCaptionControllerEvent@ZOOMSDK@@@std@@@std@@U_Iterator_base0@2@@2@XZ 0042de70 f i sdk_util.obj
 0001:0002ce70       ?_Unchecked_begin@?$_Tree@V?$_Tset_traits@PAVISDKInMeetingServiceMgrEvent@@U?$less@PAVISDKInMeetingServiceMgrEvent@@@std@@V?$allocator@PAVISDKInMeetingServiceMgrEvent@@@3@$0A@@std@@@std@@QAE?AV?$_Tree_unchecked_const_iterator@V?$_Tree_val@U?$_Tree_simple_types@PAVISDKInMeetingServiceMgrEvent@@@std@@@std@@U_Iterator_base0@2@@2@XZ 0042de70 f i sdk_util.obj
 0001:0002ce70       ?_Unchecked_begin@?$_Tree@V?$_Tset_traits@PAVIMeetingParticipantsCtrlEvent@ZOOMSDK@@U?$less@PAVIMeetingParticipantsCtrlEvent@ZOOMSDK@@@std@@V?$allocator@PAVIMeetingParticipantsCtrlEvent@ZOOMSDK@@@4@$0A@@std@@@std@@QAE?AV?$_Tree_unchecked_const_iterator@V?$_Tree_val@U?$_Tree_simple_types@PAVIMeetingParticipantsCtrlEvent@ZOOMSDK@@@std@@@std@@U_Iterator_base0@2@@2@XZ 0042de70 f i sdk_util.obj
 0001:0002ce70       ?_Unchecked_begin@?$_Tree@V?$_Tset_traits@PAVIMeetingChatCtrlEvent@ZOOMSDK@@U?$less@PAVIMeetingChatCtrlEvent@ZOOMSDK@@@std@@V?$allocator@PAVIMeetingChatCtrlEvent@ZOOMSDK@@@4@$0A@@std@@@std@@QAE?AV?$_Tree_unchecked_const_iterator@V?$_Tree_val@U?$_Tree_simple_types@PAVIMeetingChatCtrlEvent@ZOOMSDK@@@std@@@std@@U_Iterator_base0@2@@2@XZ 0042de70 f i sdk_util.obj
 0001:0002ce70       ?_Unchecked_begin@?$_Tree@V?$_Tset_traits@PAVIAuthServiceEvent@ZOOMSDK@@U?$less@PAVIAuthServiceEvent@ZOOMSDK@@@std@@V?$allocator@PAVIAuthServiceEvent@ZOOMSDK@@@4@$0A@@std@@@std@@QAE?AV?$_Tree_unchecked_const_iterator@V?$_Tree_val@U?$_Tree_simple_types@PAVIAuthServiceEvent@ZOOMSDK@@@std@@@std@@U_Iterator_base0@2@@2@XZ 0042de70 f i sdk_util.obj
 0001:0002ce70       ?_Unchecked_begin@?$_Tree@V?$_Tset_traits@PAVIPreMeetingServiceEvent@ZOOMSDK@@U?$less@PAVIPreMeetingServiceEvent@ZOOMSDK@@@std@@V?$allocator@PAVIPreMeetingServiceEvent@ZOOMSDK@@@4@$0A@@std@@@std@@QAE?AV?$_Tree_unchecked_const_iterator@V?$_Tree_val@U?$_Tree_simple_types@PAVIPreMeetingServiceEvent@ZOOMSDK@@@std@@@std@@U_Iterator_base0@2@@2@XZ 0042de70 f i sdk_util.obj
 0001:0002ce70       ?_Unchecked_begin@?$_Tree@V?$_Tset_traits@PAVIMeetingServiceEvent@ZOOMSDK@@U?$less@PAVIMeetingServiceEvent@ZOOMSDK@@@std@@V?$allocator@PAVIMeetingServiceEvent@ZOOMSDK@@@4@$0A@@std@@@std@@QAE?AV?$_Tree_unchecked_const_iterator@V?$_Tree_val@U?$_Tree_simple_types@PAVIMeetingServiceEvent@ZOOMSDK@@@std@@@std@@U_Iterator_base0@2@@2@XZ 0042de70 f i sdk_util.obj
 0001:0002cea0       ?_Unwrapped@?$_Tree_const_iterator@V?$_Tree_val@U?$_Tree_simple_types@PAVIMeetingVideoCtrlEvent@ZOOMSDK@@@std@@@std@@@std@@QBE?AV?$_Tree_unchecked_const_iterator@V?$_Tree_val@U?$_Tree_simple_types@PAVIMeetingVideoCtrlEvent@ZOOMSDK@@@std@@@std@@U_Iterator_base0@2@@2@XZ 0042dea0 f i sdk_util.obj
 0001:0002cea0       ?_Unwrapped@?$_Tree_const_iterator@V?$_Tree_val@U?$_Tree_simple_types@PAVIMeetingParticipantsCtrlEvent@ZOOMSDK@@@std@@@std@@@std@@QBE?AV?$_Tree_unchecked_const_iterator@V?$_Tree_val@U?$_Tree_simple_types@PAVIMeetingParticipantsCtrlEvent@ZOOMSDK@@@std@@@std@@U_Iterator_base0@2@@2@XZ 0042dea0 f i sdk_util.obj
 0001:0002cea0       ?_Unwrapped@?$_Tree_const_iterator@V?$_Tree_val@U?$_Tree_simple_types@U?$pair@$$CBHW4bkItemType@@@std@@@std@@@std@@@std@@QBE?AV?$_Tree_unchecked_const_iterator@V?$_Tree_val@U?$_Tree_simple_types@U?$pair@$$CBHW4bkItemType@@@std@@@std@@@std@@U_Iterator_base0@2@@2@XZ 0042dea0 f i settings_ui.obj
 0001:0002cea0       ?_Unwrapped@?$_Tree_const_iterator@V?$_Tree_val@U?$_Tree_simple_types@PAVIClosedCaptionControllerEvent@ZOOMSDK@@@std@@@std@@@std@@QBE?AV?$_Tree_unchecked_const_iterator@V?$_Tree_val@U?$_Tree_simple_types@PAVIClosedCaptionControllerEvent@ZOOMSDK@@@std@@@std@@U_Iterator_base0@2@@2@XZ 0042dea0 f i sdk_util.obj
 0001:0002cea0       ?_Unwrapped@?$_Tree_const_iterator@V?$_Tree_val@U?$_Tree_simple_types@PAVISDKInMeetingServiceMgrEvent@@@std@@@std@@@std@@QBE?AV?$_Tree_unchecked_const_iterator@V?$_Tree_val@U?$_Tree_simple_types@PAVISDKInMeetingServiceMgrEvent@@@std@@@std@@U_Iterator_base0@2@@2@XZ 0042dea0 f i sdk_util.obj
 0001:0002cea0       ?_Unwrapped@?$_Tree_const_iterator@V?$_Tree_val@U?$_Tree_simple_types@PAVIAuthServiceEvent@ZOOMSDK@@@std@@@std@@@std@@QBE?AV?$_Tree_unchecked_const_iterator@V?$_Tree_val@U?$_Tree_simple_types@PAVIAuthServiceEvent@ZOOMSDK@@@std@@@std@@U_Iterator_base0@2@@2@XZ 0042dea0 f i sdk_util.obj
 0001:0002cea0       ?_Unwrapped@?$_Tree_const_iterator@V?$_Tree_val@U?$_Tree_simple_types@PAVIMeetingChatCtrlEvent@ZOOMSDK@@@std@@@std@@@std@@QBE?AV?$_Tree_unchecked_const_iterator@V?$_Tree_val@U?$_Tree_simple_types@PAVIMeetingChatCtrlEvent@ZOOMSDK@@@std@@@std@@U_Iterator_base0@2@@2@XZ 0042dea0 f i sdk_util.obj
 0001:0002cea0       ?_Unwrapped@?$_Tree_const_iterator@V?$_Tree_val@U?$_Tree_simple_types@PAVIMeetingServiceEvent@ZOOMSDK@@@std@@@std@@@std@@QBE?AV?$_Tree_unchecked_const_iterator@V?$_Tree_val@U?$_Tree_simple_types@PAVIMeetingServiceEvent@ZOOMSDK@@@std@@@std@@U_Iterator_base0@2@@2@XZ 0042dea0 f i sdk_util.obj
 0001:0002cea0       ?_Unwrapped@?$_Tree_const_iterator@V?$_Tree_val@U?$_Tree_simple_types@PAVIPreMeetingServiceEvent@ZOOMSDK@@@std@@@std@@@std@@QBE?AV?$_Tree_unchecked_const_iterator@V?$_Tree_val@U?$_Tree_simple_types@PAVIPreMeetingServiceEvent@ZOOMSDK@@@std@@@std@@U_Iterator_base0@2@@2@XZ 0042dea0 f i sdk_util.obj
 0001:0002ced0       ?allocate@?$allocator@U?$_Tree_node@PAVISDKInMeetingServiceMgrEvent@@PAX@std@@@std@@QAEPAU?$_Tree_node@PAVISDKInMeetingServiceMgrEvent@@PAX@2@I@Z 0042ded0 f i sdk_util.obj
 0001:0002ced0       ?allocate@?$allocator@U?$_Tree_node@PAVIMeetingVideoCtrlEvent@ZOOMSDK@@PAX@std@@@std@@QAEPAU?$_Tree_node@PAVIMeetingVideoCtrlEvent@ZOOMSDK@@PAX@2@I@Z 0042ded0 f i sdk_util.obj
 0001:0002ced0       ?allocate@?$allocator@U?$_Tree_node@PAVIClosedCaptionControllerEvent@ZOOMSDK@@PAX@std@@@std@@QAEPAU?$_Tree_node@PAVIClosedCaptionControllerEvent@ZOOMSDK@@PAX@2@I@Z 0042ded0 f i sdk_util.obj
 0001:0002ced0       ?allocate@?$allocator@U?$_Tree_node@PAVIAuthServiceEvent@ZOOMSDK@@PAX@std@@@std@@QAEPAU?$_Tree_node@PAVIAuthServiceEvent@ZOOMSDK@@PAX@2@I@Z 0042ded0 f i sdk_util.obj
 0001:0002ced0       ?allocate@?$allocator@U?$_Tree_node@PAVIMeetingServiceEvent@ZOOMSDK@@PAX@std@@@std@@QAEPAU?$_Tree_node@PAVIMeetingServiceEvent@ZOOMSDK@@PAX@2@I@Z 0042ded0 f i sdk_util.obj
 0001:0002ced0       ?allocate@?$allocator@U?$_Tree_node@PAVIMeetingChatCtrlEvent@ZOOMSDK@@PAX@std@@@std@@QAEPAU?$_Tree_node@PAVIMeetingChatCtrlEvent@ZOOMSDK@@PAX@2@I@Z 0042ded0 f i sdk_util.obj
 0001:0002ced0       ?allocate@?$allocator@U?$_Tree_node@PAVIMeetingParticipantsCtrlEvent@ZOOMSDK@@PAX@std@@@std@@QAEPAU?$_Tree_node@PAVIMeetingParticipantsCtrlEvent@ZOOMSDK@@PAX@2@I@Z 0042ded0 f i sdk_util.obj
 0001:0002ced0       ?allocate@?$allocator@U?$_Tree_node@PAVIPreMeetingServiceEvent@ZOOMSDK@@PAX@std@@@std@@QAEPAU?$_Tree_node@PAVIPreMeetingServiceEvent@ZOOMSDK@@PAX@2@I@Z 0042ded0 f i sdk_util.obj
 0001:0002cf00       ?begin@?$_Tree@V?$_Tset_traits@PAVIMeetingServiceEvent@ZOOMSDK@@U?$less@PAVIMeetingServiceEvent@ZOOMSDK@@@std@@V?$allocator@PAVIMeetingServiceEvent@ZOOMSDK@@@4@$0A@@std@@@std@@QAE?AV?$_Tree_const_iterator@V?$_Tree_val@U?$_Tree_simple_types@PAVIMeetingServiceEvent@ZOOMSDK@@@std@@@std@@@2@XZ 0042df00 f i sdk_util.obj
 0001:0002cf00       ?begin@?$_Tree@V?$_Tset_traits@PAVIAuthServiceEvent@ZOOMSDK@@U?$less@PAVIAuthServiceEvent@ZOOMSDK@@@std@@V?$allocator@PAVIAuthServiceEvent@ZOOMSDK@@@4@$0A@@std@@@std@@QAE?AV?$_Tree_const_iterator@V?$_Tree_val@U?$_Tree_simple_types@PAVIAuthServiceEvent@ZOOMSDK@@@std@@@std@@@2@XZ 0042df00 f i sdk_util.obj
 0001:0002cf00       ?begin@?$_Tree@V?$_Tset_traits@PAVIMeetingChatCtrlEvent@ZOOMSDK@@U?$less@PAVIMeetingChatCtrlEvent@ZOOMSDK@@@std@@V?$allocator@PAVIMeetingChatCtrlEvent@ZOOMSDK@@@4@$0A@@std@@@std@@QAE?AV?$_Tree_const_iterator@V?$_Tree_val@U?$_Tree_simple_types@PAVIMeetingChatCtrlEvent@ZOOMSDK@@@std@@@std@@@2@XZ 0042df00 f i sdk_util.obj
 0001:0002cf00       ?begin@?$_Tree@V?$_Tset_traits@PAVIClosedCaptionControllerEvent@ZOOMSDK@@U?$less@PAVIClosedCaptionControllerEvent@ZOOMSDK@@@std@@V?$allocator@PAVIClosedCaptionControllerEvent@ZOOMSDK@@@4@$0A@@std@@@std@@QAE?AV?$_Tree_const_iterator@V?$_Tree_val@U?$_Tree_simple_types@PAVIClosedCaptionControllerEvent@ZOOMSDK@@@std@@@std@@@2@XZ 0042df00 f i sdk_util.obj
 0001:0002cf00       ?begin@?$_Tree@V?$_Tset_traits@PAVIMeetingParticipantsCtrlEvent@ZOOMSDK@@U?$less@PAVIMeetingParticipantsCtrlEvent@ZOOMSDK@@@std@@V?$allocator@PAVIMeetingParticipantsCtrlEvent@ZOOMSDK@@@4@$0A@@std@@@std@@QAE?AV?$_Tree_const_iterator@V?$_Tree_val@U?$_Tree_simple_types@PAVIMeetingParticipantsCtrlEvent@ZOOMSDK@@@std@@@std@@@2@XZ 0042df00 f i sdk_util.obj
 0001:0002cf00       ?begin@?$_Tree@V?$_Tset_traits@PAVIPreMeetingServiceEvent@ZOOMSDK@@U?$less@PAVIPreMeetingServiceEvent@ZOOMSDK@@@std@@V?$allocator@PAVIPreMeetingServiceEvent@ZOOMSDK@@@4@$0A@@std@@@std@@QAE?AV?$_Tree_const_iterator@V?$_Tree_val@U?$_Tree_simple_types@PAVIPreMeetingServiceEvent@ZOOMSDK@@@std@@@std@@@2@XZ 0042df00 f i sdk_util.obj
 0001:0002cf00       ?begin@?$_Tree@V?$_Tset_traits@PAVISDKInMeetingServiceMgrEvent@@U?$less@PAVISDKInMeetingServiceMgrEvent@@@std@@V?$allocator@PAVISDKInMeetingServiceMgrEvent@@@3@$0A@@std@@@std@@QAE?AV?$_Tree_const_iterator@V?$_Tree_val@U?$_Tree_simple_types@PAVISDKInMeetingServiceMgrEvent@@@std@@@std@@@2@XZ 0042df00 f i sdk_util.obj
 0001:0002cf00       ?begin@?$_Tree@V?$_Tset_traits@PAVIMeetingVideoCtrlEvent@ZOOMSDK@@U?$less@PAVIMeetingVideoCtrlEvent@ZOOMSDK@@@std@@V?$allocator@PAVIMeetingVideoCtrlEvent@ZOOMSDK@@@4@$0A@@std@@@std@@QAE?AV?$_Tree_const_iterator@V?$_Tree_val@U?$_Tree_simple_types@PAVIMeetingVideoCtrlEvent@ZOOMSDK@@@std@@@std@@@2@XZ 0042df00 f i sdk_util.obj
 0001:0002cf40       ?clear@?$_Tree@V?$_Tset_traits@PAVIClosedCaptionControllerEvent@ZOOMSDK@@U?$less@PAVIClosedCaptionControllerEvent@ZOOMSDK@@@std@@V?$allocator@PAVIClosedCaptionControllerEvent@ZOOMSDK@@@4@$0A@@std@@@std@@QAEXXZ 0042df40 f i sdk_util.obj
 0001:0002cf40       ?clear@?$_Tree@V?$_Tset_traits@PAVIMeetingParticipantsCtrlEvent@ZOOMSDK@@U?$less@PAVIMeetingParticipantsCtrlEvent@ZOOMSDK@@@std@@V?$allocator@PAVIMeetingParticipantsCtrlEvent@ZOOMSDK@@@4@$0A@@std@@@std@@QAEXXZ 0042df40 f i sdk_util.obj
 0001:0002cf40       ?clear@?$_Tree@V?$_Tset_traits@PAVIMeetingChatCtrlEvent@ZOOMSDK@@U?$less@PAVIMeetingChatCtrlEvent@ZOOMSDK@@@std@@V?$allocator@PAVIMeetingChatCtrlEvent@ZOOMSDK@@@4@$0A@@std@@@std@@QAEXXZ 0042df40 f i sdk_util.obj
 0001:0002cf40       ?clear@?$_Tree@V?$_Tset_traits@PAVIMeetingVideoCtrlEvent@ZOOMSDK@@U?$less@PAVIMeetingVideoCtrlEvent@ZOOMSDK@@@std@@V?$allocator@PAVIMeetingVideoCtrlEvent@ZOOMSDK@@@4@$0A@@std@@@std@@QAEXXZ 0042df40 f i sdk_util.obj
 0001:0002cf40       ?clear@?$_Tree@V?$_Tset_traits@PAVIAuthServiceEvent@ZOOMSDK@@U?$less@PAVIAuthServiceEvent@ZOOMSDK@@@std@@V?$allocator@PAVIAuthServiceEvent@ZOOMSDK@@@4@$0A@@std@@@std@@QAEXXZ 0042df40 f i sdk_util.obj
 0001:0002cf40       ?clear@?$_Tree@V?$_Tset_traits@PAVISDKInMeetingServiceMgrEvent@@U?$less@PAVISDKInMeetingServiceMgrEvent@@@std@@V?$allocator@PAVISDKInMeetingServiceMgrEvent@@@3@$0A@@std@@@std@@QAEXXZ 0042df40 f i sdk_util.obj
 0001:0002cf40       ?clear@?$_Tree@V?$_Tset_traits@PAVIPreMeetingServiceEvent@ZOOMSDK@@U?$less@PAVIPreMeetingServiceEvent@ZOOMSDK@@@std@@V?$allocator@PAVIPreMeetingServiceEvent@ZOOMSDK@@@4@$0A@@std@@@std@@QAEXXZ 0042df40 f i sdk_util.obj
 0001:0002cf40       ?clear@?$_Tree@V?$_Tset_traits@PAVIMeetingServiceEvent@ZOOMSDK@@U?$less@PAVIMeetingServiceEvent@ZOOMSDK@@@std@@V?$allocator@PAVIMeetingServiceEvent@ZOOMSDK@@@4@$0A@@std@@@std@@QAEXXZ 0042df40 f i sdk_util.obj
 0001:0002cfb0       ?deallocate@?$_Default_allocator_traits@V?$allocator@U?$_Tree_node@PAVIMeetingVideoCtrlEvent@ZOOMSDK@@PAX@std@@@std@@@std@@SAXAAV?$allocator@U?$_Tree_node@PAVIMeetingVideoCtrlEvent@ZOOMSDK@@PAX@std@@@2@QAU?$_Tree_node@PAVIMeetingVideoCtrlEvent@ZOOMSDK@@PAX@2@I@Z 0042dfb0 f i sdk_util.obj
 0001:0002cfb0       ?deallocate@?$_Default_allocator_traits@V?$allocator@U?$_Tree_node@PAVIMeetingParticipantsCtrlEvent@ZOOMSDK@@PAX@std@@@std@@@std@@SAXAAV?$allocator@U?$_Tree_node@PAVIMeetingParticipantsCtrlEvent@ZOOMSDK@@PAX@std@@@2@QAU?$_Tree_node@PAVIMeetingParticipantsCtrlEvent@ZOOMSDK@@PAX@2@I@Z 0042dfb0 f i sdk_util.obj
 0001:0002cfb0       ?deallocate@?$_Default_allocator_traits@V?$allocator@U?$_Tree_node@PAVIClosedCaptionControllerEvent@ZOOMSDK@@PAX@std@@@std@@@std@@SAXAAV?$allocator@U?$_Tree_node@PAVIClosedCaptionControllerEvent@ZOOMSDK@@PAX@std@@@2@QAU?$_Tree_node@PAVIClosedCaptionControllerEvent@ZOOMSDK@@PAX@2@I@Z 0042dfb0 f i sdk_util.obj
 0001:0002cfb0       ?deallocate@?$_Default_allocator_traits@V?$allocator@U?$_Tree_node@PAVIMeetingServiceEvent@ZOOMSDK@@PAX@std@@@std@@@std@@SAXAAV?$allocator@U?$_Tree_node@PAVIMeetingServiceEvent@ZOOMSDK@@PAX@std@@@2@QAU?$_Tree_node@PAVIMeetingServiceEvent@ZOOMSDK@@PAX@2@I@Z 0042dfb0 f i sdk_util.obj
 0001:0002cfb0       ?deallocate@?$_Default_allocator_traits@V?$allocator@U?$_Tree_node@PAVIAuthServiceEvent@ZOOMSDK@@PAX@std@@@std@@@std@@SAXAAV?$allocator@U?$_Tree_node@PAVIAuthServiceEvent@ZOOMSDK@@PAX@std@@@2@QAU?$_Tree_node@PAVIAuthServiceEvent@ZOOMSDK@@PAX@2@I@Z 0042dfb0 f i sdk_util.obj
 0001:0002cfb0       ?deallocate@?$_Default_allocator_traits@V?$allocator@U?$_Tree_node@PAVIPreMeetingServiceEvent@ZOOMSDK@@PAX@std@@@std@@@std@@SAXAAV?$allocator@U?$_Tree_node@PAVIPreMeetingServiceEvent@ZOOMSDK@@PAX@std@@@2@QAU?$_Tree_node@PAVIPreMeetingServiceEvent@ZOOMSDK@@PAX@2@I@Z 0042dfb0 f i sdk_util.obj
 0001:0002cfb0       ?deallocate@?$_Default_allocator_traits@V?$allocator@U?$_Tree_node@PAVISDKInMeetingServiceMgrEvent@@PAX@std@@@std@@@std@@SAXAAV?$allocator@U?$_Tree_node@PAVISDKInMeetingServiceMgrEvent@@PAX@std@@@2@QAU?$_Tree_node@PAVISDKInMeetingServiceMgrEvent@@PAX@2@I@Z 0042dfb0 f i sdk_util.obj
 0001:0002cfb0       ?deallocate@?$_Default_allocator_traits@V?$allocator@U?$_Tree_node@PAVIMeetingChatCtrlEvent@ZOOMSDK@@PAX@std@@@std@@@std@@SAXAAV?$allocator@U?$_Tree_node@PAVIMeetingChatCtrlEvent@ZOOMSDK@@PAX@std@@@2@QAU?$_Tree_node@PAVIMeetingChatCtrlEvent@ZOOMSDK@@PAX@2@I@Z 0042dfb0 f i sdk_util.obj
 0001:0002cfd0       ?deallocate@?$allocator@U?$_Tree_node@PAVIClosedCaptionControllerEvent@ZOOMSDK@@PAX@std@@@std@@QAEXQAU?$_Tree_node@PAVIClosedCaptionControllerEvent@ZOOMSDK@@PAX@2@I@Z 0042dfd0 f i sdk_util.obj
 0001:0002cfd0       ?deallocate@?$allocator@U?$_Tree_node@PAVIAuthServiceEvent@ZOOMSDK@@PAX@std@@@std@@QAEXQAU?$_Tree_node@PAVIAuthServiceEvent@ZOOMSDK@@PAX@2@I@Z 0042dfd0 f i sdk_util.obj
 0001:0002cfd0       ?deallocate@?$allocator@U?$_Tree_node@PAVIMeetingParticipantsCtrlEvent@ZOOMSDK@@PAX@std@@@std@@QAEXQAU?$_Tree_node@PAVIMeetingParticipantsCtrlEvent@ZOOMSDK@@PAX@2@I@Z 0042dfd0 f i sdk_util.obj
 0001:0002cfd0       ?deallocate@?$allocator@U?$_Tree_node@PAVIMeetingServiceEvent@ZOOMSDK@@PAX@std@@@std@@QAEXQAU?$_Tree_node@PAVIMeetingServiceEvent@ZOOMSDK@@PAX@2@I@Z 0042dfd0 f i sdk_util.obj
 0001:0002cfd0       ?deallocate@?$allocator@U?$_Tree_node@PAVIMeetingVideoCtrlEvent@ZOOMSDK@@PAX@std@@@std@@QAEXQAU?$_Tree_node@PAVIMeetingVideoCtrlEvent@ZOOMSDK@@PAX@2@I@Z 0042dfd0 f i sdk_util.obj
 0001:0002cfd0       ?deallocate@?$allocator@U?$_Tree_node@PAVIMeetingChatCtrlEvent@ZOOMSDK@@PAX@std@@@std@@QAEXQAU?$_Tree_node@PAVIMeetingChatCtrlEvent@ZOOMSDK@@PAX@2@I@Z 0042dfd0 f i sdk_util.obj
 0001:0002cfd0       ?deallocate@?$allocator@U?$_Tree_node@PAVISDKInMeetingServiceMgrEvent@@PAX@std@@@std@@QAEXQAU?$_Tree_node@PAVISDKInMeetingServiceMgrEvent@@PAX@2@I@Z 0042dfd0 f i sdk_util.obj
 0001:0002cfd0       ?deallocate@?$allocator@U?$_Tree_node@PAVIPreMeetingServiceEvent@ZOOMSDK@@PAX@std@@@std@@QAEXQAU?$_Tree_node@PAVIPreMeetingServiceEvent@ZOOMSDK@@PAX@2@I@Z 0042dfd0 f i sdk_util.obj
 0001:0002cff0       ?end@?$_Tree@V?$_Tset_traits@PAVISDKInMeetingServiceMgrEvent@@U?$less@PAVISDKInMeetingServiceMgrEvent@@@std@@V?$allocator@PAVISDKInMeetingServiceMgrEvent@@@3@$0A@@std@@@std@@QAE?AV?$_Tree_const_iterator@V?$_Tree_val@U?$_Tree_simple_types@PAVISDKInMeetingServiceMgrEvent@@@std@@@std@@@2@XZ 0042dff0 f i sdk_util.obj
 0001:0002cff0       ?end@?$_Tree@V?$_Tset_traits@PAVIMeetingChatCtrlEvent@ZOOMSDK@@U?$less@PAVIMeetingChatCtrlEvent@ZOOMSDK@@@std@@V?$allocator@PAVIMeetingChatCtrlEvent@ZOOMSDK@@@4@$0A@@std@@@std@@QAE?AV?$_Tree_const_iterator@V?$_Tree_val@U?$_Tree_simple_types@PAVIMeetingChatCtrlEvent@ZOOMSDK@@@std@@@std@@@2@XZ 0042dff0 f i sdk_util.obj
 0001:0002cff0       ?end@?$_Tree@V?$_Tset_traits@PAVIMeetingParticipantsCtrlEvent@ZOOMSDK@@U?$less@PAVIMeetingParticipantsCtrlEvent@ZOOMSDK@@@std@@V?$allocator@PAVIMeetingParticipantsCtrlEvent@ZOOMSDK@@@4@$0A@@std@@@std@@QAE?AV?$_Tree_const_iterator@V?$_Tree_val@U?$_Tree_simple_types@PAVIMeetingParticipantsCtrlEvent@ZOOMSDK@@@std@@@std@@@2@XZ 0042dff0 f i sdk_util.obj
 0001:0002cff0       ?end@?$_Tree@V?$_Tset_traits@PAVIClosedCaptionControllerEvent@ZOOMSDK@@U?$less@PAVIClosedCaptionControllerEvent@ZOOMSDK@@@std@@V?$allocator@PAVIClosedCaptionControllerEvent@ZOOMSDK@@@4@$0A@@std@@@std@@QAE?AV?$_Tree_const_iterator@V?$_Tree_val@U?$_Tree_simple_types@PAVIClosedCaptionControllerEvent@ZOOMSDK@@@std@@@std@@@2@XZ 0042dff0 f i sdk_util.obj
 0001:0002cff0       ?end@?$_Tree@V?$_Tset_traits@PAVIMeetingVideoCtrlEvent@ZOOMSDK@@U?$less@PAVIMeetingVideoCtrlEvent@ZOOMSDK@@@std@@V?$allocator@PAVIMeetingVideoCtrlEvent@ZOOMSDK@@@4@$0A@@std@@@std@@QAE?AV?$_Tree_const_iterator@V?$_Tree_val@U?$_Tree_simple_types@PAVIMeetingVideoCtrlEvent@ZOOMSDK@@@std@@@std@@@2@XZ 0042dff0 f i sdk_util.obj
 0001:0002cff0       ?end@?$_Tree@V?$_Tset_traits@PAVIPreMeetingServiceEvent@ZOOMSDK@@U?$less@PAVIPreMeetingServiceEvent@ZOOMSDK@@@std@@V?$allocator@PAVIPreMeetingServiceEvent@ZOOMSDK@@@4@$0A@@std@@@std@@QAE?AV?$_Tree_const_iterator@V?$_Tree_val@U?$_Tree_simple_types@PAVIPreMeetingServiceEvent@ZOOMSDK@@@std@@@std@@@2@XZ 0042dff0 f i sdk_util.obj
 0001:0002cff0       ?end@?$_Tree@V?$_Tset_traits@PAVIMeetingServiceEvent@ZOOMSDK@@U?$less@PAVIMeetingServiceEvent@ZOOMSDK@@@std@@V?$allocator@PAVIMeetingServiceEvent@ZOOMSDK@@@4@$0A@@std@@@std@@QAE?AV?$_Tree_const_iterator@V?$_Tree_val@U?$_Tree_simple_types@PAVIMeetingServiceEvent@ZOOMSDK@@@std@@@std@@@2@XZ 0042dff0 f i sdk_util.obj
 0001:0002cff0       ?end@?$_Tree@V?$_Tset_traits@PAVIAuthServiceEvent@ZOOMSDK@@U?$less@PAVIAuthServiceEvent@ZOOMSDK@@@std@@V?$allocator@PAVIAuthServiceEvent@ZOOMSDK@@@4@$0A@@std@@@std@@QAE?AV?$_Tree_const_iterator@V?$_Tree_val@U?$_Tree_simple_types@PAVIAuthServiceEvent@ZOOMSDK@@@std@@@std@@@2@XZ 0042dff0 f i sdk_util.obj
 0001:0002d020       ?erase@?$_Tree@V?$_Tset_traits@PAVIAuthServiceEvent@ZOOMSDK@@U?$less@PAVIAuthServiceEvent@ZOOMSDK@@@std@@V?$allocator@PAVIAuthServiceEvent@ZOOMSDK@@@4@$0A@@std@@@std@@QAEIABQAVIAuthServiceEvent@ZOOMSDK@@@Z 0042e020 f i sdk_util.obj
 0001:0002d020       ?erase@?$_Tree@V?$_Tset_traits@PAVIPreMeetingServiceEvent@ZOOMSDK@@U?$less@PAVIPreMeetingServiceEvent@ZOOMSDK@@@std@@V?$allocator@PAVIPreMeetingServiceEvent@ZOOMSDK@@@4@$0A@@std@@@std@@QAEIABQAVIPreMeetingServiceEvent@ZOOMSDK@@@Z 0042e020 f i sdk_util.obj
 0001:0002d020       ?erase@?$_Tree@V?$_Tset_traits@PAVISDKInMeetingServiceMgrEvent@@U?$less@PAVISDKInMeetingServiceMgrEvent@@@std@@V?$allocator@PAVISDKInMeetingServiceMgrEvent@@@3@$0A@@std@@@std@@QAEIABQAVISDKInMeetingServiceMgrEvent@@@Z 0042e020 f i sdk_util.obj
 0001:0002d020       ?erase@?$_Tree@V?$_Tset_traits@PAVIClosedCaptionControllerEvent@ZOOMSDK@@U?$less@PAVIClosedCaptionControllerEvent@ZOOMSDK@@@std@@V?$allocator@PAVIClosedCaptionControllerEvent@ZOOMSDK@@@4@$0A@@std@@@std@@QAEIABQAVIClosedCaptionControllerEvent@ZOOMSDK@@@Z 0042e020 f i sdk_util.obj
 0001:0002d020       ?erase@?$_Tree@V?$_Tset_traits@PAVIMeetingParticipantsCtrlEvent@ZOOMSDK@@U?$less@PAVIMeetingParticipantsCtrlEvent@ZOOMSDK@@@std@@V?$allocator@PAVIMeetingParticipantsCtrlEvent@ZOOMSDK@@@4@$0A@@std@@@std@@QAEIABQAVIMeetingParticipantsCtrlEvent@ZOOMSDK@@@Z 0042e020 f i sdk_util.obj
 0001:0002d020       ?erase@?$_Tree@V?$_Tset_traits@PAVIMeetingChatCtrlEvent@ZOOMSDK@@U?$less@PAVIMeetingChatCtrlEvent@ZOOMSDK@@@std@@V?$allocator@PAVIMeetingChatCtrlEvent@ZOOMSDK@@@4@$0A@@std@@@std@@QAEIABQAVIMeetingChatCtrlEvent@ZOOMSDK@@@Z 0042e020 f i sdk_util.obj
 0001:0002d020       ?erase@?$_Tree@V?$_Tset_traits@PAVIMeetingServiceEvent@ZOOMSDK@@U?$less@PAVIMeetingServiceEvent@ZOOMSDK@@@std@@V?$allocator@PAVIMeetingServiceEvent@ZOOMSDK@@@4@$0A@@std@@@std@@QAEIABQAVIMeetingServiceEvent@ZOOMSDK@@@Z 0042e020 f i sdk_util.obj
 0001:0002d090       ?max_size@?$_Default_allocator_traits@V?$allocator@U?$_Tree_node@PAVIAuthServiceEvent@ZOOMSDK@@PAX@std@@@std@@@std@@SAIABV?$allocator@U?$_Tree_node@PAVIAuthServiceEvent@ZOOMSDK@@PAX@std@@@2@@Z 0042e090 f i sdk_util.obj
 0001:0002d090       ?max_size@?$_Default_allocator_traits@V?$allocator@U?$_Tree_node@PAVIMeetingParticipantsCtrlEvent@ZOOMSDK@@PAX@std@@@std@@@std@@SAIABV?$allocator@U?$_Tree_node@PAVIMeetingParticipantsCtrlEvent@ZOOMSDK@@PAX@std@@@2@@Z 0042e090 f i sdk_util.obj
 0001:0002d090       ?max_size@?$_Default_allocator_traits@V?$allocator@U?$_Tree_node@PAVISDKInMeetingServiceMgrEvent@@PAX@std@@@std@@@std@@SAIABV?$allocator@U?$_Tree_node@PAVISDKInMeetingServiceMgrEvent@@PAX@std@@@2@@Z 0042e090 f i sdk_util.obj
 0001:0002d090       ?max_size@?$_Default_allocator_traits@V?$allocator@U?$_Tree_node@PAVIMeetingServiceEvent@ZOOMSDK@@PAX@std@@@std@@@std@@SAIABV?$allocator@U?$_Tree_node@PAVIMeetingServiceEvent@ZOOMSDK@@PAX@std@@@2@@Z 0042e090 f i sdk_util.obj
 0001:0002d090       ?max_size@?$_Default_allocator_traits@V?$allocator@U?$_Tree_node@PAVIMeetingVideoCtrlEvent@ZOOMSDK@@PAX@std@@@std@@@std@@SAIABV?$allocator@U?$_Tree_node@PAVIMeetingVideoCtrlEvent@ZOOMSDK@@PAX@std@@@2@@Z 0042e090 f i sdk_util.obj
 0001:0002d090       ?max_size@?$_Default_allocator_traits@V?$allocator@U?$_Tree_node@PAVIClosedCaptionControllerEvent@ZOOMSDK@@PAX@std@@@std@@@std@@SAIABV?$allocator@U?$_Tree_node@PAVIClosedCaptionControllerEvent@ZOOMSDK@@PAX@std@@@2@@Z 0042e090 f i sdk_util.obj
 0001:0002d090       ?max_size@?$_Default_allocator_traits@V?$allocator@U?$_Tree_node@PAVIPreMeetingServiceEvent@ZOOMSDK@@PAX@std@@@std@@@std@@SAIABV?$allocator@U?$_Tree_node@PAVIPreMeetingServiceEvent@ZOOMSDK@@PAX@std@@@2@@Z 0042e090 f i sdk_util.obj
 0001:0002d090       ?max_size@?$_Default_allocator_traits@V?$allocator@U?$_Tree_node@PAVIMeetingChatCtrlEvent@ZOOMSDK@@PAX@std@@@std@@@std@@SAIABV?$allocator@U?$_Tree_node@PAVIMeetingChatCtrlEvent@ZOOMSDK@@PAX@std@@@2@@Z 0042e090 f i sdk_util.obj
 0001:0002d0a0       ?max_size@?$_Tree@V?$_Tset_traits@PAVIMeetingVideoCtrlEvent@ZOOMSDK@@U?$less@PAVIMeetingVideoCtrlEvent@ZOOMSDK@@@std@@V?$allocator@PAVIMeetingVideoCtrlEvent@ZOOMSDK@@@4@$0A@@std@@@std@@QBEIXZ 0042e0a0 f i sdk_util.obj
 0001:0002d0a0       ?max_size@?$_Tree@V?$_Tset_traits@PAVIMeetingChatCtrlEvent@ZOOMSDK@@U?$less@PAVIMeetingChatCtrlEvent@ZOOMSDK@@@std@@V?$allocator@PAVIMeetingChatCtrlEvent@ZOOMSDK@@@4@$0A@@std@@@std@@QBEIXZ 0042e0a0 f i sdk_util.obj
 0001:0002d0a0       ?max_size@?$_Tree@V?$_Tset_traits@PAVIClosedCaptionControllerEvent@ZOOMSDK@@U?$less@PAVIClosedCaptionControllerEvent@ZOOMSDK@@@std@@V?$allocator@PAVIClosedCaptionControllerEvent@ZOOMSDK@@@4@$0A@@std@@@std@@QBEIXZ 0042e0a0 f i sdk_util.obj
 0001:0002d0a0       ?max_size@?$_Tree@V?$_Tset_traits@PAVIMeetingParticipantsCtrlEvent@ZOOMSDK@@U?$less@PAVIMeetingParticipantsCtrlEvent@ZOOMSDK@@@std@@V?$allocator@PAVIMeetingParticipantsCtrlEvent@ZOOMSDK@@@4@$0A@@std@@@std@@QBEIXZ 0042e0a0 f i sdk_util.obj
 0001:0002d0a0       ?max_size@?$_Tree@V?$_Tset_traits@PAVIAuthServiceEvent@ZOOMSDK@@U?$less@PAVIAuthServiceEvent@ZOOMSDK@@@std@@V?$allocator@PAVIAuthServiceEvent@ZOOMSDK@@@4@$0A@@std@@@std@@QBEIXZ 0042e0a0 f i sdk_util.obj
 0001:0002d0a0       ?max_size@?$_Tree@V?$_Tset_traits@PAVISDKInMeetingServiceMgrEvent@@U?$less@PAVISDKInMeetingServiceMgrEvent@@@std@@V?$allocator@PAVISDKInMeetingServiceMgrEvent@@@3@$0A@@std@@@std@@QBEIXZ 0042e0a0 f i sdk_util.obj
 0001:0002d0a0       ?max_size@?$_Tree@V?$_Tset_traits@PAVIMeetingServiceEvent@ZOOMSDK@@U?$less@PAVIMeetingServiceEvent@ZOOMSDK@@@std@@V?$allocator@PAVIMeetingServiceEvent@ZOOMSDK@@@4@$0A@@std@@@std@@QBEIXZ 0042e0a0 f i sdk_util.obj
 0001:0002d0a0       ?max_size@?$_Tree@V?$_Tset_traits@PAVIPreMeetingServiceEvent@ZOOMSDK@@U?$less@PAVIPreMeetingServiceEvent@ZOOMSDK@@@std@@V?$allocator@PAVIPreMeetingServiceEvent@ZOOMSDK@@@4@$0A@@std@@@std@@QBEIXZ 0042e0a0 f i sdk_util.obj
 0001:0002d0e0       ?onActiveSpeakerVideoUserChanged@SDKInterfaceWrap@@UAEXI@Z 0042e0e0 f i sdk_util.obj
 0001:0002d2c0       ?onActiveVideoUserChanged@SDKInterfaceWrap@@UAEXI@Z 0042e2c0 f i sdk_util.obj
 0001:0002d4a0       ?onAssignedToSendCC@SDKInterfaceWrap@@UAEX_N@Z 0042e4a0 f i sdk_util.obj
 0001:0002d5b0       ?onAudioBtnClicked@SDKInterfaceWrap@@UAEXUtagAudioBtnClickedCallbackInfo@ZOOMSDK@@@Z 0042e5b0 f i sdk_util.obj
 0001:0002d6d0       ?onAudioMenuBtnClicked@SDKInterfaceWrap@@UAEXXZ 0042e6d0 f i sdk_util.obj
 0001:0002d7e0       ?onAuthenticationReturn@SDKInterfaceWrap@@UAEXW4AuthResult@ZOOMSDK@@@Z 0042e7e0 f i sdk_util.obj
 0001:0002d8e0       ?onCCBTNClicked@SDKInterfaceWrap@@UAEXXZ 0042e8e0 f i sdk_util.obj
 0001:0002d9f0       ?onChatMsgNotifcation@SDKInterfaceWrap@@UAEXPAVIChatMsgInfo@ZOOMSDK@@PB_W@Z 0042e9f0 f i sdk_util.obj
 0001:0002db00       ?onChatStautsChangedNotification@SDKInterfaceWrap@@UAEXPAUtagChatStatus@ZOOMSDK@@@Z 0042eb00 f i sdk_util.obj
 0001:0002dc10       ?onClosedCaptionMsgReceived@SDKInterfaceWrap@@UAEXPB_W_J@Z 0042ec10 f i sdk_util.obj
 0001:0002dd30       ?onCloudRecordingStatus@SDKInterfaceWrap@@UAEXW4RecordingStatus@ZOOMSDK@@@Z 0042ed30 f i sdk_util.obj
 0001:0002de40       ?onCoHostChangeNotification@SDKInterfaceWrap@@UAEXI_N@Z 0042ee40 f i sdk_util.obj
 0001:0002e030       ?onCustomLiveStreamMenuClicked@SDKInterfaceWrap@@UAEXXZ 0042f030 f i sdk_util.obj
 0001:0002e140       ?onCustomizedLocalRecordingSourceNotification@SDKInterfaceWrap@@UAEXPAVICustomizedLocalRecordingLayoutHelper@ZOOMSDK@@@Z 0042f140 f i sdk_util.obj
 0001:0002e250       ?onDeleteMeeting@SDKInterfaceWrap@@UAEXW4PremeetingAPIResult@ZOOMSDK@@@Z 0042f250 f i sdk_util.obj
 0001:0002e350       ?onEndMeetingBtnClicked@SDKInterfaceWrap@@UAEXXZ 0042f350 f i sdk_util.obj
 0001:0002e460       ?onGetInviteEmailContent@SDKInterfaceWrap@@UAEXW4PremeetingAPIResult@ZOOMSDK@@_KPB_W@Z 0042f460 f i sdk_util.obj
 0001:0002e570       ?onHostChangeNotification@SDKInterfaceWrap@@UAEXI@Z 0042f570 f i sdk_util.obj
 0001:0002e750       ?onHostRequestStartAudio@SDKInterfaceWrap@@UAEXPAVIRequestStartAudioHandler@ZOOMSDK@@@Z 0042f750 f i sdk_util.obj
 0001:0002e860       ?onHostRequestStartVideo@SDKInterfaceWrap@@UAEXPAVIRequestStartVideoHandler@ZOOMSDK@@@Z 0042f860 f i sdk_util.obj
 0001:0002ea40       ?onInviteBtnClicked@SDKInterfaceWrap@@UAEXAA_N@Z 0042fa40 f i sdk_util.obj
 0001:0002eb50       ?onListMeeting@SDKInterfaceWrap@@UAEXW4PremeetingAPIResult@ZOOMSDK@@PAV?$IList@_K@3@@Z 0042fb50 f i sdk_util.obj
 0001:0002ec60       ?onLockShareStatus@SDKInterfaceWrap@@UAEX_N@Z 0042fc60 f i sdk_util.obj
 0001:0002ed70       ?onLoginRet@SDKInterfaceWrap@@UAEXW4LOGINSTATUS@ZOOMSDK@@PAVIAccountInfo@3@@Z 0042fd70 f i sdk_util.obj
 0001:0002ee80       ?onLogout@SDKInterfaceWrap@@UAEXXZ 0042fe80 f i sdk_util.obj
 0001:0002ef80       ?onLowOrRaiseHandStatusChanged@SDKInterfaceWrap@@UAEX_NI@Z 0042ff80 f i sdk_util.obj
 0001:0002f170       ?onMeetingParameterNotification@SDKInterfaceWrap@@UAEXPBUtagMeetingParameter@ZOOMSDK@@@Z 00430170 f i sdk_util.obj
 0001:0002f350       ?onMeetingSecureKeyNotification@SDKInterfaceWrap@@UAEXPBDHPAVIMeetingExternalSecureKeyHandler@ZOOMSDK@@@Z 00430350 f i sdk_util.obj
 0001:0002f540       ?onMeetingStatisticsWarningNotification@SDKInterfaceWrap@@UAEXW4StatisticsWarningType@ZOOMSDK@@@Z 00430540 f i sdk_util.obj
 0001:0002f720       ?onMeetingStatusChanged@SDKInterfaceWrap@@UAEXW4MeetingStatus@ZOOMSDK@@H@Z 00430720 f i sdk_util.obj
 0001:0002f900       ?onParticipantListBtnClicked@SDKInterfaceWrap@@UAEXXZ 00430900 f i sdk_util.obj
 0001:0002fa10       ?onRecordPriviligeChanged@SDKInterfaceWrap@@UAEX_N@Z 00430a10 f i sdk_util.obj
 0001:0002fb20       ?onRecording2MP4Done@SDKInterfaceWrap@@UAEX_NHPB_W@Z 00430b20 f i sdk_util.obj
 0001:0002fc40       ?onRecording2MP4Processing@SDKInterfaceWrap@@UAEXH@Z 00430c40 f i sdk_util.obj
 0001:0002fd50       ?onRecordingStatus@SDKInterfaceWrap@@UAEXW4RecordingStatus@ZOOMSDK@@@Z 00430d50 f i sdk_util.obj
 0001:0002fe60       ?onRemoteControlStatus@SDKInterfaceWrap@@UAEXW4RemoteControlStatus@ZOOMSDK@@I@Z 00430e60 f i sdk_util.obj
 0001:0002ff80       ?onScheduleOrEditMeeting@SDKInterfaceWrap@@UAEXW4PremeetingAPIResult@ZOOMSDK@@_K@Z 00430f80 f i sdk_util.obj
 0001:00030090       ?onShareContentNotification@SDKInterfaceWrap@@UAEXAAUtagShareInfo@ZOOMSDK@@@Z 00431090 f i sdk_util.obj
 0001:000301a0       ?onSharingStatus@SDKInterfaceWrap@@UAEXW4SharingStatus@ZOOMSDK@@I@Z 004311a0 f i sdk_util.obj
 0001:000302c0       ?onSpotlightVideoChangeNotification@SDKInterfaceWrap@@UAEX_NI@Z 004312c0 f i sdk_util.obj
 0001:000304b0       ?onStartShareBtnClicked@SDKInterfaceWrap@@UAEXXZ 004314b0 f i sdk_util.obj
 0001:000305c0       ?onUserActiveAudioChange@SDKInterfaceWrap@@UAEXPAV?$IList@I@ZOOMSDK@@@Z 004315c0 f i sdk_util.obj
 0001:000306d0       ?onUserAudioStatusChange@SDKInterfaceWrap@@UAEXPAV?$IList@PAVIUserAudioStatus@ZOOMSDK@@@ZOOMSDK@@PB_W@Z 004316d0 f i sdk_util.obj
 0001:000307f0       ?onUserJoin@SDKInterfaceWrap@@UAEXPAV?$IList@I@ZOOMSDK@@PB_W@Z 004317f0 f i sdk_util.obj
 0001:000309e0       ?onUserLeft@SDKInterfaceWrap@@UAEXPAV?$IList@I@ZOOMSDK@@PB_W@Z 004319e0 f i sdk_util.obj
 0001:00030bd0       ?onUserNameChanged@SDKInterfaceWrap@@UAEXIPB_W@Z 00431bd0 f i sdk_util.obj
 0001:00030dc0       ?onUserVideoStatusChange@SDKInterfaceWrap@@UAEXIW4VideoStatus@ZOOMSDK@@@Z 00431dc0 f i sdk_util.obj
 0001:00030fb0       ?onZoomAuthIdentityExpired@SDKInterfaceWrap@@UAEXXZ 00431fb0 f i sdk_util.obj
 0001:000310b0       ?onZoomIdentityExpired@SDKInterfaceWrap@@UAEXXZ 004320b0 f i sdk_util.obj
 0001:000311b0       ?onZoomInviteDialogFailed@SDKInterfaceWrap@@UAEXXZ 004321b0 f i sdk_util.obj
 0001:000312c0       ??0CSDKAudioSettingsWorkFlow@@QAE@XZ 004322c0 f   SETTINGS_audio_workflow.obj
 0001:00031330       ??0IAudioSettingContextEvent@ZOOMSDK@@QAE@XZ 00432330 f i SETTINGS_audio_workflow.obj
 0001:00031350       ??1CSDKAudioSettingsWorkFlow@@UAE@XZ 00432350 f   SETTINGS_audio_workflow.obj
 0001:000313a0       ??_ECSDKAudioSettingsWorkFlow@@UAEPAXI@Z 004323a0 f i SETTINGS_audio_workflow.obj
 0001:000313a0       ??_GCSDKAudioSettingsWorkFlow@@UAEPAXI@Z 004323a0 f i SETTINGS_audio_workflow.obj
 0001:000313d0       ?DisableEchoCancellation@CSDKAudioSettingsWorkFlow@@QAE?AW4SDKError@ZOOMSDK@@_N@Z 004323d0 f   SETTINGS_audio_workflow.obj
 0001:00031420       ?EnableTemporalDeNoise@CSDKVideoSettingsWorkFlow@@QAE?AW4SDKError@ZOOMSDK@@_N@Z 00432420 f   SETTINGS_video_workflow.obj
 0001:00031420       ?EnableAlwaysMuteMicWhenJoinVoip@CSDKAudioSettingsWorkFlow@@QAE?AW4SDKError@ZOOMSDK@@_N@Z 00432420 f   SETTINGS_audio_workflow.obj
 0001:00031470       ?EnableAutoAdjustMic@CSDKAudioSettingsWorkFlow@@QAE?AW4SDKError@ZOOMSDK@@_N@Z 00432470 f   SETTINGS_audio_workflow.obj
 0001:000314c0       ?EnableAutoJoinAudio@CSDKAudioSettingsWorkFlow@@QAE?AW4SDKError@ZOOMSDK@@_N@Z 004324c0 f   SETTINGS_audio_workflow.obj
 0001:000314c0       ?EnableFaceBeautyEffect@CSDKVideoSettingsWorkFlow@@QAE?AW4SDKError@ZOOMSDK@@_N@Z 004324c0 f   SETTINGS_video_workflow.obj
 0001:00031510       ?EnableHighFidelityMusicMode@CSDKAudioSettingsWorkFlow@@QAE?AW4SDKError@ZOOMSDK@@_N@Z 00432510 f   SETTINGS_audio_workflow.obj
 0001:00031560       ?EnableHoldSpaceKeyToSpeak@CSDKAudioSettingsWorkFlow@@QAE?AW4SDKError@ZOOMSDK@@_N@Z 00432560 f   SETTINGS_audio_workflow.obj
 0001:00031560       ?EnableHDVideo@CSDKVideoSettingsWorkFlow@@QAE?AW4SDKError@ZOOMSDK@@_N@Z 00432560 f   SETTINGS_video_workflow.obj
 0001:000315b0       ?EnableMicOriginalInput@CSDKAudioSettingsWorkFlow@@QAE?AW4SDKError@ZOOMSDK@@_N@Z 004325b0 f   SETTINGS_audio_workflow.obj
 0001:00031600       ?EnableStereoAudio@CSDKAudioSettingsWorkFlow@@QAE?AW4SDKError@ZOOMSDK@@_N@Z 00432600 f   SETTINGS_audio_workflow.obj
 0001:00031650       ?EnableAlwaysShowNameOnVideo@CSDKVideoSettingsWorkFlow@@QAE?AW4SDKError@ZOOMSDK@@_N@Z 00432650 f   SETTINGS_video_workflow.obj
 0001:00031650       ?EnableSuppressAudioNotify@CSDKAudioSettingsWorkFlow@@QAE?AW4SDKError@ZOOMSDK@@_N@Z 00432650 f   SETTINGS_audio_workflow.obj
 0001:000316a0       ?GetMicList@CSDKAudioSettingsWorkFlow@@QAEPAV?$IList@PAVIMicInfo@ZOOMSDK@@@ZOOMSDK@@XZ 004326a0 f   SETTINGS_audio_workflow.obj
 0001:000316a0       ?GetCameraList@CSDKVideoSettingsWorkFlow@@QAEPAV?$IList@PAVICameraInfo@ZOOMSDK@@@ZOOMSDK@@XZ 004326a0 f   SETTINGS_video_workflow.obj
 0001:000316e0       ?GetMicVol@CSDKAudioSettingsWorkFlow@@QAE?AW4SDKError@ZOOMSDK@@AAM@Z 004326e0 f   SETTINGS_audio_workflow.obj
 0001:00031730       ?GetSpeakerList@CSDKAudioSettingsWorkFlow@@QAEPAV?$IList@PAVISpeakerInfo@ZOOMSDK@@@ZOOMSDK@@XZ 00432730 f   SETTINGS_audio_workflow.obj
 0001:00031770       ?GetSpeakerVol@CSDKAudioSettingsWorkFlow@@QAE?AW4SDKError@ZOOMSDK@@AAM@Z 00432770 f   SETTINGS_audio_workflow.obj
 0001:000317c0       ?Init@CSDKAudioSettingsWorkFlow@@QAE?AW4SDKError@ZOOMSDK@@XZ 004327c0 f   SETTINGS_audio_workflow.obj
 0001:000318b0       ?IsTemporlDeNoiseEnabled@CSDKVideoSettingsWorkFlow@@QAE_NXZ 004328b0 f   SETTINGS_video_workflow.obj
 0001:000318b0       ?IsAlwaysMuteMicWhenJoinVoipEnabled@CSDKAudioSettingsWorkFlow@@QAE_NXZ 004328b0 f   SETTINGS_audio_workflow.obj
 0001:000318f0       ?IsAutoAdjustMicEnabled@CSDKAudioSettingsWorkFlow@@QAE_NXZ 004328f0 f   SETTINGS_audio_workflow.obj
 0001:00031930       ?IsFaceBeautyEffectEnabled@CSDKVideoSettingsWorkFlow@@QAE_NXZ 00432930 f   SETTINGS_video_workflow.obj
 0001:00031930       ?IsAutoJoinAudioEnabled@CSDKAudioSettingsWorkFlow@@QAE_NXZ 00432930 f   SETTINGS_audio_workflow.obj
 0001:00031970       ?IsEchoCancellationDisabled@CSDKAudioSettingsWorkFlow@@QAE_NXZ 00432970 f   SETTINGS_audio_workflow.obj
 0001:000319b0       ?IsHighFidelityMusicModeDisabled@CSDKAudioSettingsWorkFlow@@QAE_NXZ 004329b0 f   SETTINGS_audio_workflow.obj
 0001:000319f0       ?IsHDVideoEnabled@CSDKVideoSettingsWorkFlow@@QAE_NXZ 004329f0 f   SETTINGS_video_workflow.obj
 0001:000319f0       ?IsHoldSpaceKeyToSpeakEnabled@CSDKAudioSettingsWorkFlow@@QAE_NXZ 004329f0 f   SETTINGS_audio_workflow.obj
 0001:00031a30       ?IsMicOriginalInputEnable@CSDKAudioSettingsWorkFlow@@QAE_NXZ 00432a30 f   SETTINGS_audio_workflow.obj
 0001:00031a70       ?IsStereoAudioEnable@CSDKAudioSettingsWorkFlow@@QAE_NXZ 00432a70 f   SETTINGS_audio_workflow.obj
 0001:00031ab0       ?IsAlwaysShowNameOnVideoEnabled@CSDKVideoSettingsWorkFlow@@QAE_NXZ 00432ab0 f   SETTINGS_video_workflow.obj
 0001:00031ab0       ?IsSuppressAudioNotifyEnabled@CSDKAudioSettingsWorkFlow@@QAE_NXZ 00432ab0 f   SETTINGS_audio_workflow.obj
 0001:00031af0       ?OnNoAudioDeviceIsUseful@CSDKAudioSettingsWorkFlow@@UAEX_N@Z 00432af0 f   SETTINGS_audio_workflow.obj
 0001:00031b20       ?OnSelectedAudioDeviceIsChanged@CSDKAudioSettingsWorkFlow@@UAEXXZ 00432b20 f   SETTINGS_audio_workflow.obj
 0001:00031b50       ?OnTestMicStatusChanged@CSDKAudioSettingsWorkFlow@@UAEXW4SDK_TESTMIC_STATUS@ZOOMSDK@@AA_N@Z 00432b50 f   SETTINGS_audio_workflow.obj
 0001:00031b90       ?SelectMic@CSDKAudioSettingsWorkFlow@@QAE?AW4SDKError@ZOOMSDK@@PB_W0@Z 00432b90 f   SETTINGS_audio_workflow.obj
 0001:00031be0       ?SelectSpeaker@CSDKAudioSettingsWorkFlow@@QAE?AW4SDKError@ZOOMSDK@@PB_W0@Z 00432be0 f   SETTINGS_audio_workflow.obj
 0001:00031c30       ?SetMicVol@CSDKAudioSettingsWorkFlow@@QAE?AW4SDKError@ZOOMSDK@@AAM@Z 00432c30 f   SETTINGS_audio_workflow.obj
 0001:00031c80       ?SetSpeakerVol@CSDKAudioSettingsWorkFlow@@QAE?AW4SDKError@ZOOMSDK@@AAM@Z 00432c80 f   SETTINGS_audio_workflow.obj
 0001:00031cd0       ?TestMicPlayRecording@CSDKAudioSettingsWorkFlow@@QAE?AW4SDKError@ZOOMSDK@@XZ 00432cd0 f   SETTINGS_audio_workflow.obj
 0001:00031cd0       ?TestVideoStopPreview@CSDKVideoSettingsWorkFlow@@QAE?AW4SDKError@ZOOMSDK@@XZ 00432cd0 f   SETTINGS_video_workflow.obj
 0001:00031d10       ?TestMicStartRecording@CSDKAudioSettingsWorkFlow@@QAE?AW4SDKError@ZOOMSDK@@PB_W@Z 00432d10 f   SETTINGS_audio_workflow.obj
 0001:00031d60       ?TestMicStopTesting@CSDKAudioSettingsWorkFlow@@QAE?AW4SDKError@ZOOMSDK@@XZ 00432d60 f   SETTINGS_audio_workflow.obj
 0001:00031da0       ?TestSpeakerStartPlaying@CSDKAudioSettingsWorkFlow@@QAE?AW4SDKError@ZOOMSDK@@PB_W@Z 00432da0 f   SETTINGS_audio_workflow.obj
 0001:00031da0       ?TestVideoRotate@CSDKVideoSettingsWorkFlow@@QAE?AW4SDKError@ZOOMSDK@@W4PREVIEW_VIDEO_ROTATION_ACTION@3@@Z 00432da0 f   SETTINGS_video_workflow.obj
 0001:00031df0       ?TestSpeakerStopPlaying@CSDKAudioSettingsWorkFlow@@QAE?AW4SDKError@ZOOMSDK@@XZ 00432df0 f   SETTINGS_audio_workflow.obj
 0001:00031e30       ?onComputerMicDeviceChanged@CSDKAudioSettingsWorkFlow@@UAEXPAV?$IList@PAVIMicInfo@ZOOMSDK@@@ZOOMSDK@@@Z 00432e30 f   SETTINGS_audio_workflow.obj
 0001:00031e60       ?onComputerSpeakerDeviceChanged@CSDKAudioSettingsWorkFlow@@UAEXPAV?$IList@PAVISpeakerInfo@ZOOMSDK@@@ZOOMSDK@@@Z 00432e60 f   SETTINGS_audio_workflow.obj
 0001:00031e90       ??0CSDKFeatureCustomSettingsWorkFlow@@QAE@XZ 00432e90 f   SETTINGS_feature_custom_workflow.obj
 0001:00031ed0       ??1CSDKFeatureCustomSettingsWorkFlow@@UAE@XZ 00432ed0 f   SETTINGS_feature_custom_workflow.obj
 0001:00031f10       ??_GCSDKFeatureCustomSettingsWorkFlow@@UAEPAXI@Z 00432f10 f i SETTINGS_feature_custom_workflow.obj
 0001:00031f10       ??_ECSDKFeatureCustomSettingsWorkFlow@@UAEPAXI@Z 00432f10 f i SETTINGS_feature_custom_workflow.obj
 0001:00031f40       ?BackToMeeting@CSDKFeatureCustomSettingsWorkFlow@@QAE?AW4SDKError@ZOOMSDK@@XZ 00432f40 f   SETTINGS_feature_custom_workflow.obj
 0001:00031f80       ?DisableRemoteCtrlCopyPasteFeature@CSDKFeatureCustomSettingsWorkFlow@@QAEX_N@Z 00432f80 f   SETTINGS_feature_custom_workflow.obj
 0001:00031fc0       ?DisableSplitScreenModeUIElements@CSDKFeatureCustomSettingsWorkFlow@@QAEX_N@Z 00432fc0 f   SETTINGS_feature_custom_workflow.obj
 0001:00031ff0       ?EnableAutoAdjustMicVolumeWhenJoinAudio@CSDKFeatureCustomSettingsWorkFlow@@QAEX_N@Z 00432ff0 f   SETTINGS_feature_custom_workflow.obj
 0001:00032030       ?EnableAutoAdjustSpeakerVolumeWhenJoinAudio@CSDKFeatureCustomSettingsWorkFlow@@QAEX_N@Z 00433030 f   SETTINGS_feature_custom_workflow.obj
 0001:00032070       ?EnableAutoEndOtherMeetingWhenStartMeeting@CSDKFeatureCustomSettingsWorkFlow@@QAEX_N@Z 00433070 f   SETTINGS_feature_custom_workflow.obj
 0001:000320b0       ?EnableClaimHostFeature@CSDKFeatureCustomSettingsWorkFlow@@QAEX_N@Z 004330b0 f   SETTINGS_feature_custom_workflow.obj
 0001:000320e0       ?EnableForceAutoStartMyVideoWhenJoinMeeting@CSDKFeatureCustomSettingsWorkFlow@@QAEX_N@Z 004330e0 f   SETTINGS_feature_custom_workflow.obj
 0001:00032120       ?EnableForceAutoStopMyVideoWhenJoinMeeting@CSDKFeatureCustomSettingsWorkFlow@@QAEX_N@Z 00433120 f   SETTINGS_feature_custom_workflow.obj
 0001:00032160       ?EnableGrabShareWithoutReminder@CSDKFeatureCustomSettingsWorkFlow@@QAE?AW4SDKError@ZOOMSDK@@_N@Z 00433160 f   SETTINGS_feature_custom_workflow.obj
 0001:000321b0       ?EnableLButtonDBClick4SwitchFullScreenMode@CSDKFeatureCustomSettingsWorkFlow@@QAEX_N@Z 004331b0 f   SETTINGS_feature_custom_workflow.obj
 0001:000321e0       ?EnableShareIOSDevice@CSDKFeatureCustomSettingsWorkFlow@@QAEX_N@Z 004331e0 f   SETTINGS_feature_custom_workflow.obj
 0001:00032220       ?EnableShareWhiteBoard@CSDKFeatureCustomSettingsWorkFlow@@QAEX_N@Z 00433220 f   SETTINGS_feature_custom_workflow.obj
 0001:00032260       ?EnterFullScreen@CSDKFeatureCustomSettingsWorkFlow@@QAE?AW4SDKError@ZOOMSDK@@_N0@Z 00433260 f   SETTINGS_feature_custom_workflow.obj
 0001:000322b0       ?ExitFullScreen@CSDKFeatureCustomSettingsWorkFlow@@QAE?AW4SDKError@ZOOMSDK@@_N0@Z 004332b0 f   SETTINGS_feature_custom_workflow.obj
 0001:00032300       ?ForceDisableMultiShare@CSDKFeatureCustomSettingsWorkFlow@@QAEX_N@Z 00433300 f   SETTINGS_feature_custom_workflow.obj
 0001:00032340       ?HideChatDlg@CSDKFeatureCustomSettingsWorkFlow@@QAE?AW4SDKError@ZOOMSDK@@XZ 00433340 f   SETTINGS_feature_custom_workflow.obj
 0001:00032380       ?Init@CSDKUICustomSettingsWorkFlow@@QAE?AW4SDKError@ZOOMSDK@@XZ 00433380 f   SETTINGS_ui_custom_workflow.obj
 0001:00032380       ?Init@CSDKFeatureCustomSettingsWorkFlow@@QAE?AW4SDKError@ZOOMSDK@@XZ 00433380 f   SETTINGS_feature_custom_workflow.obj
 0001:00032400       ?MoveFloatVideoWnd@CSDKFeatureCustomSettingsWorkFlow@@QAE?AW4SDKError@ZOOMSDK@@HH@Z 00433400 f   SETTINGS_feature_custom_workflow.obj
 0001:00032450       ?PrePopulateWebinarRegistrationInfo@CSDKFeatureCustomSettingsWorkFlow@@QAEXPB_W0@Z 00433450 f   SETTINGS_feature_custom_workflow.obj
 0001:00032490       ?SetFloatVideoPos@CSDKFeatureCustomSettingsWorkFlow@@QAEXUtagWndPosition@ZOOMSDK@@@Z 00433490 f   SETTINGS_feature_custom_workflow.obj
 0001:000324e0       ?SetMeetingUIPos@CSDKFeatureCustomSettingsWorkFlow@@QAEXUtagWndPosition@ZOOMSDK@@@Z 004334e0 f   SETTINGS_feature_custom_workflow.obj
 0001:00032530       ?ShowChatDlg@CSDKFeatureCustomSettingsWorkFlow@@QAE?AW4SDKError@ZOOMSDK@@AAUtagShowChatDlgParam@3@@Z 00433530 f   SETTINGS_feature_custom_workflow.obj
 0001:00032580       ?ShowParticipantsListWnd@CSDKFeatureCustomSettingsWorkFlow@@QAE?AW4SDKError@ZOOMSDK@@_NAAPAUHWND__@@@Z 00433580 f   SETTINGS_feature_custom_workflow.obj
 0001:000325d0       ?ShowPreOrNextPageVideo@CSDKFeatureCustomSettingsWorkFlow@@QAE?AW4SDKError@ZOOMSDK@@_N@Z 004335d0 f   SETTINGS_feature_custom_workflow.obj
 0001:00032620       ?SwitchSplitScreenMode@CSDKFeatureCustomSettingsWorkFlow@@QAE?AW4SDKError@ZOOMSDK@@_N@Z 00433620 f   SETTINGS_feature_custom_workflow.obj
 0001:00032670       ?SwitchToVideoWall@CSDKFeatureCustomSettingsWorkFlow@@QAE?AW4SDKError@ZOOMSDK@@XZ 00433670 f   SETTINGS_feature_custom_workflow.obj
 0001:000326b0       ?SwtichToAcitveSpeaker@CSDKFeatureCustomSettingsWorkFlow@@QAE?AW4SDKError@ZOOMSDK@@XZ 004336b0 f   SETTINGS_feature_custom_workflow.obj
 0001:000326f0       ??0CSDKGeneralSettingsWorkFlow@@QAE@XZ 004336f0 f   SETTINGS_general_workflow.obj
 0001:00032730       ??1CSDKGeneralSettingsWorkFlow@@UAE@XZ 00433730 f   SETTINGS_general_workflow.obj
 0001:00032760       ??_ECSDKGeneralSettingsWorkFlow@@UAEPAXI@Z 00433760 f i SETTINGS_general_workflow.obj
 0001:00032760       ??_GCSDKGeneralSettingsWorkFlow@@UAEPAXI@Z 00433760 f i SETTINGS_general_workflow.obj
 0001:00032790       ?EnableAutoFullScreenVideoWhenJoinMeeting@CSDKGeneralSettingsWorkFlow@@QAE?AW4SDKError@ZOOMSDK@@_N@Z 00433790 f   SETTINGS_general_workflow.obj
 0001:00032790       ?SetUsingGreenScreen@CSDKVirtualBGSettingsWorkFlow@@QAE?AW4SDKError@ZOOMSDK@@_N@Z 00433790 f   SETTINGS_virtualBG_workflow.obj
 0001:000327e0       ?EnableDisplayReminderWindowWhenExit@CSDKGeneralSettingsWorkFlow@@QAE?AW4SDKError@ZOOMSDK@@_N@Z 004337e0 f   SETTINGS_general_workflow.obj
 0001:00032830       ?EnableDualScreenMode@CSDKGeneralSettingsWorkFlow@@QAE?AW4SDKError@ZOOMSDK@@_N@Z 00433830 f   SETTINGS_general_workflow.obj
 0001:00032880       ?EnableShowMyMeetingElapseTime@CSDKGeneralSettingsWorkFlow@@QAE?AW4SDKError@ZOOMSDK@@_N@Z 00433880 f   SETTINGS_general_workflow.obj
 0001:000328d0       ?EnableSplitScreenMode@CSDKGeneralSettingsWorkFlow@@QAE?AW4SDKError@ZOOMSDK@@_N@Z 004338d0 f   SETTINGS_general_workflow.obj
 0001:000328d0       ?EnableTCPConnectionWhenSharing@CSDKShareSettingsWorkFlow@@QAE?AW4SDKError@ZOOMSDK@@_N@Z 004338d0 f   SETTINGS_share_workflow.obj
 0001:00032920       ?Init@CSDKGeneralSettingsWorkFlow@@QAE?AW4SDKError@ZOOMSDK@@XZ 00433920 f   SETTINGS_general_workflow.obj
 0001:00032980       ?IsAeroModeInSharingTurnOff@CSDKGeneralSettingsWorkFlow@@QAE_NXZ 00433980 f   SETTINGS_general_workflow.obj
 0001:000329c0       ?IsAutoFullScreenVideoWhenJoinMeetingEnabled@CSDKGeneralSettingsWorkFlow@@QAE_NXZ 004339c0 f   SETTINGS_general_workflow.obj
 0001:00032a00       ?IsDisplayReminderWindowWhenExitEnabled@CSDKGeneralSettingsWorkFlow@@QAE_NXZ 00433a00 f   SETTINGS_general_workflow.obj
 0001:00032a40       ?IsDualScreenModeEnabled@CSDKGeneralSettingsWorkFlow@@QAE_NXZ 00433a40 f   SETTINGS_general_workflow.obj
 0001:00032a80       ?IsShowMyMeetingElapseTimeEnabled@CSDKGeneralSettingsWorkFlow@@QAE_NXZ 00433a80 f   SETTINGS_general_workflow.obj
 0001:00032ac0       ?IsSplitScreenModeEnabled@CSDKGeneralSettingsWorkFlow@@QAE_NXZ 00433ac0 f   SETTINGS_general_workflow.obj
 0001:00032ac0       ?IsTCPConnectionWhenSharing@CSDKShareSettingsWorkFlow@@QAE_NXZ 00433ac0 f   SETTINGS_share_workflow.obj
 0001:00032b00       ?TurnOffAeroModeInSharing@CSDKGeneralSettingsWorkFlow@@QAE?AW4SDKError@ZOOMSDK@@_N@Z 00433b00 f   SETTINGS_general_workflow.obj
 0001:00032b50       ??0CSDKRecordingSettingsWorkFlow@@QAE@XZ 00433b50 f   SETTINGS_recording_workflow.obj
 0001:00032b90       ??1CSDKRecordingSettingsWorkFlow@@UAE@XZ 00433b90 f   SETTINGS_recording_workflow.obj
 0001:00032bc0       ??_ECSDKRecordingSettingsWorkFlow@@UAEPAXI@Z 00433bc0 f i SETTINGS_recording_workflow.obj
 0001:00032bc0       ??_GCSDKRecordingSettingsWorkFlow@@UAEPAXI@Z 00433bc0 f i SETTINGS_recording_workflow.obj
 0001:00032bf0       ?CanGetRecordingManagementURL@CSDKRecordingSettingsWorkFlow@@QAE?AW4SDKError@ZOOMSDK@@AA_N@Z 00433bf0 f   SETTINGS_recording_workflow.obj
 0001:00032c40       ?EnableAddTimestampWatermark@CSDKRecordingSettingsWorkFlow@@QAE?AW4SDKError@ZOOMSDK@@_N@Z 00433c40 f   SETTINGS_recording_workflow.obj
 0001:00032c40       ?EnableRemoteControlAllApplications@CSDKShareSettingsWorkFlow@@QAE?AW4SDKError@ZOOMSDK@@_N@Z 00433c40 f   SETTINGS_share_workflow.obj
 0001:00032c90       ?EnableAccelerateGPUWhenShare@CSDKShareSettingsWorkFlow@@QAE?AW4SDKError@ZOOMSDK@@_N@Z 00433c90 f   SETTINGS_share_workflow.obj
 0001:00032c90       ?EnableMultiAudioStreamRecord@CSDKRecordingSettingsWorkFlow@@QAE?AW4SDKError@ZOOMSDK@@_N@Z 00433c90 f   SETTINGS_recording_workflow.obj
 0001:00032ce0       ?EnableOptimizeFor3rdPartyVideoEditor@CSDKRecordingSettingsWorkFlow@@QAE?AW4SDKError@ZOOMSDK@@_N@Z 00433ce0 f   SETTINGS_recording_workflow.obj
 0001:00032ce0       ?EnableGreenBorderWhenShare@CSDKShareSettingsWorkFlow@@QAE?AW4SDKError@ZOOMSDK@@_N@Z 00433ce0 f   SETTINGS_share_workflow.obj
 0001:00032d30       ?EnablePlaceVideoNextToShareInRecord@CSDKRecordingSettingsWorkFlow@@QAE?AW4SDKError@ZOOMSDK@@_N@Z 00433d30 f   SETTINGS_recording_workflow.obj
 0001:00032d80       ?EnableSelectRecordFileLocationAfterMeeting@CSDKRecordingSettingsWorkFlow@@QAE?AW4SDKError@ZOOMSDK@@_N@Z 00433d80 f   SETTINGS_recording_workflow.obj
 0001:00032dd0       ?EnableShowVideoThumbnailWhenShare@CSDKRecordingSettingsWorkFlow@@QAE?AW4SDKError@ZOOMSDK@@_N@Z 00433dd0 f   SETTINGS_recording_workflow.obj
 0001:00032e20       ?GetRecordingManagementURL@CSDKRecordingSettingsWorkFlow@@QAEPB_WXZ 00433e20 f   SETTINGS_recording_workflow.obj
 0001:00032e60       ?GetRecordingPath@CSDKRecordingSettingsWorkFlow@@QAEPB_WXZ 00433e60 f   SETTINGS_recording_workflow.obj
 0001:00032ea0       ?Init@CSDKRecordingSettingsWorkFlow@@QAE?AW4SDKError@ZOOMSDK@@XZ 00433ea0 f   SETTINGS_recording_workflow.obj
 0001:00032f00       ?IsRemoteControlAllApplicationsEnabled@CSDKShareSettingsWorkFlow@@QAE_NXZ 00433f00 f   SETTINGS_share_workflow.obj
 0001:00032f00       ?IsAddTimestampWatermarkEnabled@CSDKRecordingSettingsWorkFlow@@QAE_NXZ 00433f00 f   SETTINGS_recording_workflow.obj
 0001:00032f40       ?IsMultiAudioStreamRecordEnabled@CSDKRecordingSettingsWorkFlow@@QAE_NXZ 00433f40 f   SETTINGS_recording_workflow.obj
 0001:00032f80       ?IsGreenBorderEnabledWhenShare@CSDKShareSettingsWorkFlow@@QAE_NXZ 00433f80 f   SETTINGS_share_workflow.obj
 0001:00032f80       ?IsOptimizeFor3rdPartyVideoEditorEnabled@CSDKRecordingSettingsWorkFlow@@QAE_NXZ 00433f80 f   SETTINGS_recording_workflow.obj
 0001:00032fc0       ?IsPlaceVideoNextToShareInRecordEnabled@CSDKRecordingSettingsWorkFlow@@QAE_NXZ 00433fc0 f   SETTINGS_recording_workflow.obj
 0001:00033000       ?IsSelectRecordFileLocationAfterMeetingEnabled@CSDKRecordingSettingsWorkFlow@@QAE_NXZ 00434000 f   SETTINGS_recording_workflow.obj
 0001:00033000       ?IsCurrentOSSupportAccelerateGPUWhenShare@CSDKShareSettingsWorkFlow@@QAE_NXZ 00434000 f   SETTINGS_share_workflow.obj
 0001:00033040       ?IsShowVideoThumbnailWhenShareEnabled@CSDKRecordingSettingsWorkFlow@@QAE_NXZ 00434040 f   SETTINGS_recording_workflow.obj
 0001:00033080       ?SetRecordingPath@CSDKRecordingSettingsWorkFlow@@QAE?AW4SDKError@ZOOMSDK@@PB_W@Z 00434080 f   SETTINGS_recording_workflow.obj
 0001:000330d0       ??0CSDKShareSettingsWorkFlow@@QAE@XZ 004340d0 f   SETTINGS_share_workflow.obj
 0001:00033110       ??1CSDKShareSettingsWorkFlow@@UAE@XZ 00434110 f   SETTINGS_share_workflow.obj
 0001:00033140       ??_ECSDKShareSettingsWorkFlow@@UAEPAXI@Z 00434140 f i SETTINGS_share_workflow.obj
 0001:00033140       ??_GCSDKShareSettingsWorkFlow@@UAEPAXI@Z 00434140 f i SETTINGS_share_workflow.obj
